	.file "/home/toliman/LamaProject/compilers-2020/regression/tmp.lama"

	.stabs "/home/toliman/LamaProject/compilers-2020/regression/tmp.lama",100,0,0,.Ltext

	.globl	main

	.data

string_6:	.string	"!!"

string_12:	.string	"!="

string_14:	.string	"%"

string_4:	.string	"%d\n"

string_0:	.string	"%s\n"

string_7:	.string	"&&"

string_16:	.string	"*"

string_18:	.string	"+"

string_17:	.string	"-"

string_1:	.string	"-i"

string_2:	.string	"-s"

string_15:	.string	"/"

string_11:	.string	"<"

string_10:	.string	"<="

string_13:	.string	"=="

string_9:	.string	">"

string_8:	.string	">="

string_3:	.string	"tmp.lama"

string_5:	.string	"z"

_init:	.int 0

	.section custom_data,"aw",@progbits

filler:	.fill	1, 4, 1

	.text

.Ltext:

	.stabs "data:t1=r1;0;4294967295;",128,0,0,0

# PUBLIC ("main") / 

# EXTERN ("LcompileX86") / 

# EXTERN ("LcompileSM") / 

# EXTERN ("LevalSM") / 

# EXTERN ("LshowSM") / 

# EXTERN ("LshowSMInsn") / 

# EXTERN ("Li__Infix_6045") / 

# EXTERN ("LemptyState") / 

# EXTERN ("LevalStmt") / 

# EXTERN ("LgetOutput") / 

# EXTERN ("LreadWorld") / 

# EXTERN ("LwriteWorld") / 

# EXTERN ("LcreateWorld") / 

# EXTERN ("Lfix") / 

# EXTERN ("Li__Infix_35") / 

# EXTERN ("Li__Infix_36") / 

# EXTERN ("Lid") / 

# EXTERN ("LiteriArray") / 

# EXTERN ("LiterArray") / 

# EXTERN ("LfoldrArray") / 

# EXTERN ("LfoldlArray") / 

# EXTERN ("LlistArray") / 

# EXTERN ("LarrayList") / 

# EXTERN ("LmapArray") / 

# EXTERN ("LinitArray") / 

# EXTERN ("Lfilter") / 

# EXTERN ("Lremove") / 

# EXTERN ("Lunzip") / 

# EXTERN ("Lzip") / 

# EXTERN ("Lflatten") / 

# EXTERN ("Lfind") / 

# EXTERN ("Lassoc") / 

# EXTERN ("Lreverse") / 

# EXTERN ("Li__Infix_434343") / 

# EXTERN ("Lmap") / 

# EXTERN ("Liter") / 

# EXTERN ("Lfoldr") / 

# EXTERN ("Lfoldl") / 

# EXTERN ("Lsize") / 

# EXTERN ("Lsingleton") / 

# EXTERN ("LtagHash") / 

# EXTERN ("LflatCompare") / 

# EXTERN ("LcompareTags") / 

# EXTERN ("LkindOf") / 

# EXTERN ("Ltime") / 

# EXTERN ("Lrandom") / 

# EXTERN ("LdisableGC") / 

# EXTERN ("LenableGC") / 

# EXTERN ("Ls__Infix_37") / 

# EXTERN ("Ls__Infix_47") / 

# EXTERN ("Ls__Infix_42") / 

# EXTERN ("Ls__Infix_45") / 

# EXTERN ("Ls__Infix_43") / 

# EXTERN ("Ls__Infix_62") / 

# EXTERN ("Ls__Infix_6261") / 

# EXTERN ("Ls__Infix_60") / 

# EXTERN ("Ls__Infix_6061") / 

# EXTERN ("Ls__Infix_3361") / 

# EXTERN ("Ls__Infix_6161") / 

# EXTERN ("Ls__Infix_3838") / 

# EXTERN ("Ls__Infix_3333") / 

# EXTERN ("Ls__Infix_58") / 

# EXTERN ("Li__Infix_4343") / 

# EXTERN ("Lcompare") / 

# EXTERN ("Lwrite") / 

# EXTERN ("Lread") / 

# EXTERN ("Lfailure") / 

# EXTERN ("Lfwrite") / 

# EXTERN ("Lfread") / 

# EXTERN ("Lfclose") / 

# EXTERN ("Lfopen") / 

# EXTERN ("Lfprintf") / 

# EXTERN ("Lprintf") / 

# EXTERN ("LmakeString") / 

# EXTERN ("Lsprintf") / 

# EXTERN ("LregexpMatch") / 

# EXTERN ("Lregexp") / 

# EXTERN ("Lsubstring") / 

# EXTERN ("LmatchSubString") / 

# EXTERN ("Lstringcat") / 

# EXTERN ("LreadLine") / 

# EXTERN ("Ltl") / 

# EXTERN ("Lhd") / 

# EXTERN ("Lsnd") / 

# EXTERN ("Lfst") / 

# EXTERN ("Lhash") / 

# EXTERN ("Lclone") / 

# EXTERN ("LmakeArray") / 

# EXTERN ("LstringInt") / 

# EXTERN ("global_sysargs") / 

# EXTERN ("Lsystem") / 

# EXTERN ("LgetEnv") / 

# LABEL ("main") / 

main:

# BEGIN ("main", 2, 1, [], [], []) / 

	.type main, @function

	.cfi_startproc

	.cfi_adjust_cfa_offset	4

	movl	_init,	%eax
	test	%eax,	%eax
	jz	_continue
	ret
_continue:

	movl	$1,	_init
	pushl	%ebp
	.cfi_adjust_cfa_offset	4

	movl	%esp,	%ebp
	.cfi_def_cfa_register	5

	subl	$Lmain_SIZE,	%esp
	movl	%esp,	%edi
	movl	$filler,	%esi
	movl	$LSmain_SIZE,	%ecx
	rep movsl	
	call	__gc_init
	pushl	12(%ebp)
	pushl	8(%ebp)
	call	set_args
	addl	$8,	%esp
	call	initList
	call	initArray
	call	initFun
	call	initWorld
	call	initStmt
	call	initState
	call	initSM
	call	initX86
# SLABEL ("L1") / 

L1:

# LINE (57) / 

	.stabn 68,0,57,.L0

.L0:

# LD (Global ("sysargs")) / 

	movl	global_sysargs,	%ebx
# DUP / 

	movl	%ebx,	%ecx
# SLABEL ("L8") / 

L8:

# DUP / 

	movl	%ecx,	%esi
# ARRAY (1) / 

	movl	$3,	%edi
	pushl	%ebx
	pushl	%ecx
	pushl	%edi
	pushl	%esi
	call	Barray_patt
	addl	$8,	%esp
	popl	%ecx
	popl	%ebx
	movl	%eax,	%esi
# CJMP ("nz", "L6") / 

	sarl	%esi
	cmpl	$0,	%esi
	jnz	L6
# LABEL ("L7") / 

L7:

# DROP / 

# JMP ("L5") / 

	jmp	L5
# LABEL ("L6") / 

L6:

# DUP / 

	movl	%ecx,	%esi
# CONST (0) / 

	movl	$1,	%edi
# CALL (".elem", 2, false) / 

	pushl	%ebx
	pushl	%ecx
	pushl	%edi
	pushl	%esi
	call	Belem
	addl	$8,	%esp
	popl	%ecx
	popl	%ebx
	movl	%eax,	%esi
# DROP / 

# DROP / 

# DROP / 

# SLABEL ("L10") / 

L10:

# LINE (58) / 

	.stabn 68,0,58,.L1

.L1:

# STRING ("%s\\n") / 

	movl	$string_0,	%ebx
	pushl	%ebx
	call	Bstring
	addl	$4,	%esp
	movl	%eax,	%ebx
# CALL ("Lprogram", 0, false) / 

	pushl	%ebx
	call	Lprogram
	addl	$0,	%esp
	popl	%ebx
	movl	%eax,	%ecx
# CALL ("LcompileSM", 1, false) / 

	pushl	%ebx
	pushl	%ecx
	call	LcompileSM
	addl	$4,	%esp
	popl	%ebx
	movl	%eax,	%ecx
# CALL ("LcompileX86", 1, false) / 

	pushl	%ebx
	pushl	%ecx
	call	LcompileX86
	addl	$4,	%esp
	popl	%ebx
	movl	%eax,	%ecx
# CALL ("Lprintf", 2, false) / 

	pushl	%ecx
	pushl	%ebx
	call	Lprintf
	addl	$8,	%esp
	movl	%eax,	%ebx
# SLABEL ("L11") / 

L11:

# JMP ("L0") / 

	jmp	L0
# SLABEL ("L9") / 

L9:

# SLABEL ("L17") / 

L17:

# LABEL ("L5") / 

L5:

# DUP / 

	movl	%ebx,	%ecx
# DROP / 

# DROP / 

# SLABEL ("L19") / 

L19:

# LINE (60) / 

	.stabn 68,0,60,.L2

.L2:

# LDA (Local (0)) / 

	leal	-4(%ebp),	%ebx
# LINE (61) / 

	.stabn 68,0,61,.L3

.L3:

# CLOSURE ("Llambda_0_5", []) / 

	pushl	%ebx
	pushl	$Llambda_0_5
	pushl	$1
	call	Bclosure
	addl	$8,	%esp
	movl	%eax,	%ecx
	popl	%ebx
# CALL ("Lfix", 1, false) / 

	pushl	%ebx
	pushl	%ecx
	call	Lfix
	addl	$4,	%esp
	popl	%ebx
	movl	%eax,	%ecx
# CONST (0) / 

	movl	$1,	%esi
# CALLC (1, false) / 

	pushl	%ebx
	pushl	%ecx
	pushl	%esi
	movl	%ecx,	%edx
	call	*(%ecx)
	addl	$4,	%esp
	popl	%ecx
	popl	%ebx
	movl	%eax,	%ecx
# CALL ("Lreverse", 1, false) / 

	pushl	%ebx
	pushl	%ecx
	call	Lreverse
	addl	$4,	%esp
	popl	%ebx
	movl	%eax,	%ecx
# STI / 

	movl	%ecx,	%eax
	movl	%eax,	(%ebx)
	movl	%eax,	%ebx
# DROP / 

# LINE (62) / 

	.stabn 68,0,62,.L4

.L4:

# CLOSURE ("Llambda_1_5", []) / 

	pushl	$Llambda_1_5
	pushl	$1
	call	Bclosure
	addl	$8,	%esp
	movl	%eax,	%ebx
# LINE (63) / 

	.stabn 68,0,63,.L5

.L5:

# LD (Global ("sysargs")) / 

	movl	global_sysargs,	%ecx
# CONST (1) / 

	movl	$3,	%esi
# CALL (".elem", 2, false) / 

	pushl	%ebx
	pushl	%esi
	pushl	%ecx
	call	Belem
	addl	$8,	%esp
	popl	%ebx
	movl	%eax,	%ecx
# DUP / 

	movl	%ecx,	%esi
# SLABEL ("L36") / 

L36:

# STRING ("-i") / 

	movl	$string_1,	%edi
	pushl	%ebx
	pushl	%ecx
	pushl	%esi
	pushl	%edi
	call	Bstring
	addl	$4,	%esp
	popl	%esi
	popl	%ecx
	popl	%ebx
	movl	%eax,	%edi
# PATT (StrCmp) / 

	pushl	%ebx
	pushl	%ecx
	pushl	%edi
	pushl	%esi
	call	Bstring_patt
	addl	$8,	%esp
	popl	%ecx
	popl	%ebx
	movl	%eax,	%esi
# CJMP ("z", "L35") / 

	sarl	%esi
	cmpl	$0,	%esi
	jz	L35
# DROP / 

# SLABEL ("L38") / 

L38:

# LINE (64) / 

	.stabn 68,0,64,.L6

.L6:

# LD (Local (0)) / 

	movl	-4(%ebp),	%ecx
# CALL ("Lprogram", 0, false) / 

	pushl	%ebx
	pushl	%ecx
	call	Lprogram
	addl	$0,	%esp
	popl	%ecx
	popl	%ebx
	movl	%eax,	%esi
# CALL ("LevalStmt", 2, false) / 

	pushl	%ebx
	pushl	%esi
	pushl	%ecx
	call	LevalStmt
	addl	$8,	%esp
	popl	%ebx
	movl	%eax,	%ecx
# SLABEL ("L39") / 

L39:

# JMP ("L29") / 

	jmp	L29
# SLABEL ("L37") / 

L37:

# SLABEL ("L43") / 

L43:

# LABEL ("L35") / 

L35:

# DUP / 

	movl	%ecx,	%esi
# STRING ("-s") / 

	movl	$string_2,	%edi
	pushl	%ebx
	pushl	%ecx
	pushl	%esi
	pushl	%edi
	call	Bstring
	addl	$4,	%esp
	popl	%esi
	popl	%ecx
	popl	%ebx
	movl	%eax,	%edi
# PATT (StrCmp) / 

	pushl	%ebx
	pushl	%ecx
	pushl	%edi
	pushl	%esi
	call	Bstring_patt
	addl	$8,	%esp
	popl	%ecx
	popl	%ebx
	movl	%eax,	%esi
# CJMP ("z", "L31") / 

	sarl	%esi
	cmpl	$0,	%esi
	jz	L31
# DROP / 

# SLABEL ("L45") / 

L45:

# LINE (65) / 

	.stabn 68,0,65,.L7

.L7:

# LD (Local (0)) / 

	movl	-4(%ebp),	%ecx
# CALL ("Lprogram", 0, false) / 

	pushl	%ebx
	pushl	%ecx
	call	Lprogram
	addl	$0,	%esp
	popl	%ecx
	popl	%ebx
	movl	%eax,	%esi
# CALL ("LcompileSM", 1, false) / 

	pushl	%ebx
	pushl	%ecx
	pushl	%esi
	call	LcompileSM
	addl	$4,	%esp
	popl	%ecx
	popl	%ebx
	movl	%eax,	%esi
# CALL ("LevalSM", 2, false) / 

	pushl	%ebx
	pushl	%esi
	pushl	%ecx
	call	LevalSM
	addl	$8,	%esp
	popl	%ebx
	movl	%eax,	%ecx
# SLABEL ("L46") / 

L46:

# SLABEL ("L44") / 

L44:

# JMP ("L29") / 

	jmp	L29
# LABEL ("L31") / 

L31:

# FAIL ((63, 14), true) / 

	pushl	$29
	pushl	$127
	pushl	$string_3
	pushl	%ecx
	call	Bmatch_failure
	addl	$12,	%esp
# JMP ("L29") / 

	jmp	L29
# LABEL ("L29") / 

L29:

# CALL ("Liter", 2, false) / 

	pushl	%ecx
	pushl	%ebx
	call	Liter
	addl	$8,	%esp
	movl	%eax,	%ebx
# SLABEL ("L20") / 

L20:

# SLABEL ("L18") / 

L18:

# JMP ("L0") / 

	jmp	L0
# SLABEL ("L2") / 

L2:

# LABEL ("L0") / 

L0:

# END / 

	movl	%ebx,	%eax
Lmain_epilogue:

	movl	%ebp,	%esp
	popl	%ebp
	xorl	%eax,	%eax
	.cfi_restore	5

	.cfi_def_cfa	4, 4

	ret
	.cfi_endproc

	.set	Lmain_SIZE,	4

	.set	LSmain_SIZE,	1

	.size main, .-main

# LABEL ("Llambda_1_5") / 

Llambda_1_5:

# BEGIN ("Llambda_1_5", 1, 0, [], ["x"], [{ blab="L51"; elab="L52"; names=[]; subs=[{ blab="L54"; elab="L55"; names=[]; subs=[]; }]; }]) / 

	.type lambda_1_5, @function

	.stabs "lambda_1_5:F1",36,0,0,Llambda_1_5

	.stabs "x:p1",160,0,0,8

	.cfi_startproc

	.cfi_adjust_cfa_offset	4

	pushl	%ebp
	.cfi_adjust_cfa_offset	4

	movl	%esp,	%ebp
	.cfi_def_cfa_register	5

	subl	$LLlambda_1_5_SIZE,	%esp
	movl	%esp,	%edi
	movl	$filler,	%esi
	movl	$LSLlambda_1_5_SIZE,	%ecx
	rep movsl	
# SLABEL ("L51") / 

L51:

# SLABEL ("L54") / 

L54:

# LINE (62) / 

	.stabn 68,0,62,0

	.stabn 68,0,62,.L8-Llambda_1_5

.L8:

# STRING ("%d\\n") / 

	movl	$string_4,	%ebx
	pushl	%ebx
	call	Bstring
	addl	$4,	%esp
	movl	%eax,	%ebx
# LD (Arg (0)) / 

	movl	8(%ebp),	%ecx
# CALL ("Lprintf", 2, true) / 

	pushl	%ecx
	pushl	%ebx
	call	Lprintf
	addl	$8,	%esp
	movl	%eax,	%ebx
# SLABEL ("L55") / 

L55:

# SLABEL ("L52") / 

L52:

# END / 

	movl	%ebx,	%eax
LLlambda_1_5_epilogue:

	movl	%ebp,	%esp
	popl	%ebp
	.cfi_restore	5

	.cfi_def_cfa	4, 4

	ret
	.cfi_endproc

	.set	LLlambda_1_5_SIZE,	0

	.set	LSLlambda_1_5_SIZE,	0

	.size Llambda_1_5, .-Llambda_1_5

# LABEL ("Llambda_0_5") / 

Llambda_0_5:

# BEGIN ("Llambda_0_5", 1, 0, [], ["f"], [{ blab="L58"; elab="L59"; names=[]; subs=[{ blab="L61"; elab="L62"; names=[]; subs=[]; }]; }]) / 

	.type lambda_0_5, @function

	.stabs "lambda_0_5:F1",36,0,0,Llambda_0_5

	.stabs "f:p1",160,0,0,8

	.cfi_startproc

	.cfi_adjust_cfa_offset	4

	pushl	%ebp
	.cfi_adjust_cfa_offset	4

	movl	%esp,	%ebp
	.cfi_def_cfa_register	5

	subl	$LLlambda_0_5_SIZE,	%esp
	movl	%esp,	%edi
	movl	$filler,	%esi
	movl	$LSLlambda_0_5_SIZE,	%ecx
	rep movsl	
# SLABEL ("L58") / 

L58:

# SLABEL ("L61") / 

L61:

# LINE (61) / 

	.stabn 68,0,61,0

	.stabn 68,0,61,.L9-Llambda_0_5

.L9:

# CLOSURE ("Llambda_2_13", [Arg (0)]) / 

	pushl	8(%ebp)
	pushl	$Llambda_2_13
	pushl	$3
	call	Bclosure
	addl	$12,	%esp
	movl	%eax,	%ebx
# SLABEL ("L62") / 

L62:

# SLABEL ("L59") / 

L59:

# END / 

	movl	%ebx,	%eax
LLlambda_0_5_epilogue:

	movl	%ebp,	%esp
	popl	%ebp
	.cfi_restore	5

	.cfi_def_cfa	4, 4

	ret
	.cfi_endproc

	.set	LLlambda_0_5_SIZE,	0

	.set	LSLlambda_0_5_SIZE,	0

	.size Llambda_0_5, .-Llambda_0_5

# LABEL ("Llambda_2_13") / 

Llambda_2_13:

# BEGIN ("Llambda_2_13", 1, 1, [Arg (0)], ["acc"], [{ blab="L63"; elab="L64"; names=[]; subs=[{ blab="L66"; elab="L67"; names=[]; subs=[{ blab="L76"; elab="L77"; names=[("arg", 0)]; subs=[{ blab="L78"; elab="L79"; names=[]; subs=[]; }]; }; { blab="L72"; elab="L73"; names=[]; subs=[{ blab="L74"; elab="L75"; names=[]; subs=[]; }]; }]; }]; }]) / 

	.type lambda_2_13, @function

	.stabs "lambda_2_13:F1",36,0,0,Llambda_2_13

	.stabs "acc:p1",160,0,0,8

	.stabs "arg:1",128,0,0,-4

	.stabn 192,0,0,L76-Llambda_2_13

	.stabn 224,0,0,L77-Llambda_2_13

	.cfi_startproc

	.cfi_adjust_cfa_offset	4

	pushl	%edx
	.cfi_adjust_cfa_offset	4

	pushl	%ebp
	.cfi_adjust_cfa_offset	4

	movl	%esp,	%ebp
	.cfi_def_cfa_register	5

	subl	$LLlambda_2_13_SIZE,	%esp
	movl	%esp,	%edi
	movl	$filler,	%esi
	movl	$LSLlambda_2_13_SIZE,	%ecx
	rep movsl	
# SLABEL ("L63") / 

L63:

# SLABEL ("L66") / 

L66:

# CALL ("LreadLine", 0, false) / 

	pushl	%edx
	call	LreadLine
	addl	$0,	%esp
	popl	%edx
	movl	%eax,	%ebx
# DUP / 

	movl	%ebx,	%ecx
# SLABEL ("L72") / 

L72:

# PATT (UnBoxed) / 

	pushl	%edx
	pushl	%ebx
	pushl	%ecx
	call	Bunboxed_patt
	addl	$4,	%esp
	popl	%ebx
	popl	%edx
	movl	%eax,	%ecx
# CJMP ("z", "L71") / 

	sarl	%ecx
	cmpl	$0,	%ecx
	jz	L71
# DROP / 

# SLABEL ("L74") / 

L74:

# LD (Arg (0)) / 

	movl	12(%ebp),	%ebx
# SLABEL ("L75") / 

L75:

# JMP ("L65") / 

	jmp	L65
# SLABEL ("L73") / 

L73:

# SLABEL ("L76") / 

L76:

# LABEL ("L71") / 

L71:

# DUP / 

	movl	%ebx,	%ecx
# DROP / 

# DUP / 

	movl	%ebx,	%ecx
# ST (Local (0)) / 

	movl	%ecx,	-4(%ebp)
# DROP / 

# DROP / 

# SLABEL ("L78") / 

L78:

# LD (Access (0)) / 

	movl	4(%edx),	%ebx
# LD (Local (0)) / 

	movl	-4(%ebp),	%ecx
# CALL ("LstringInt", 1, false) / 

	pushl	%edx
	pushl	%ebx
	pushl	%ecx
	call	LstringInt
	addl	$4,	%esp
	popl	%ebx
	popl	%edx
	movl	%eax,	%ecx
# LD (Arg (0)) / 

	movl	12(%ebp),	%esi
# SEXP ("cons", 2) / 

	movl	$1697575,	%edi
	pushl	%edx
	pushl	%ebx
	pushl	%edi
	pushl	%esi
	pushl	%ecx
	pushl	$7
	call	Bsexp
	addl	$16,	%esp
	popl	%ebx
	popl	%edx
	movl	%eax,	%ecx
# CALLC (1, true) / 

	movl	%ecx,	12(%ebp)
	movl	%ebx,	%edx
	movl	(%edx),	%eax
	movl	%ebp,	%esp
	popl	%ebp
	popl	%ebx
	jmp	*%eax
# SLABEL ("L79") / 

L79:

# SLABEL ("L77") / 

L77:

# JMP ("L65") / 

	jmp	L65
# SLABEL ("L67") / 

L67:

# LABEL ("L65") / 

L65:

# SLABEL ("L64") / 

L64:

# END / 

	movl	%ebx,	%eax
LLlambda_2_13_epilogue:

	movl	%ebp,	%esp
	popl	%ebp
	popl	%edx
	.cfi_restore	5

	.cfi_def_cfa	4, 4

	ret
	.cfi_endproc

	.set	LLlambda_2_13_SIZE,	4

	.set	LSLlambda_2_13_SIZE,	1

	.size Llambda_2_13, .-Llambda_2_13

# LABEL ("Lprogram") / 

Lprogram:

# BEGIN ("Lprogram", 0, 0, [], [], [{ blab="L85"; elab="L86"; names=[]; subs=[{ blab="L88"; elab="L89"; names=[]; subs=[]; }]; }]) / 

	.type program, @function

	.stabs "program:F1",36,0,0,Lprogram

	.cfi_startproc

	.cfi_adjust_cfa_offset	4

	pushl	%ebp
	.cfi_adjust_cfa_offset	4

	movl	%esp,	%ebp
	.cfi_def_cfa_register	5

	subl	$LLprogram_SIZE,	%esp
	movl	%esp,	%edi
	movl	$filler,	%esi
	movl	$LSLprogram_SIZE,	%ecx
	rep movsl	
# SLABEL ("L85") / 

L85:

# SLABEL ("L88") / 

L88:

# LINE (49) / 

	.stabn 68,0,49,0

	.stabn 68,0,49,.L10-Lprogram

.L10:

# LINE (45) / 

	.stabn 68,0,45,.L11-Lprogram

.L11:

# STRING ("z") / 

	movl	$string_5,	%ebx
	pushl	%ebx
	call	Bstring
	addl	$4,	%esp
	movl	%eax,	%ebx
# LINE (22) / 

	.stabn 68,0,22,.L12-Lprogram

.L12:

# CONST (0) / 

	movl	$1,	%ecx
# CONST (1) / 

	movl	$3,	%esi
# CALL ("Li__Infix_45", 2, false) / 

	pushl	%ebx
	pushl	%esi
	pushl	%ecx
	call	Li__Infix_45
	addl	$8,	%esp
	popl	%ebx
	movl	%eax,	%ecx
# CONST (2) / 

	movl	$5,	%esi
# CALL ("Li__Infix_45", 2, false) / 

	pushl	%ebx
	pushl	%esi
	pushl	%ecx
	call	Li__Infix_45
	addl	$8,	%esp
	popl	%ebx
	movl	%eax,	%ecx
# CONST (3) / 

	movl	$7,	%esi
# CALL ("Li__Infix_45", 2, false) / 

	pushl	%ebx
	pushl	%esi
	pushl	%ecx
	call	Li__Infix_45
	addl	$8,	%esp
	popl	%ebx
	movl	%eax,	%ecx
# CONST (4) / 

	movl	$9,	%esi
# CALL ("Li__Infix_45", 2, false) / 

	pushl	%ebx
	pushl	%esi
	pushl	%ecx
	call	Li__Infix_45
	addl	$8,	%esp
	popl	%ebx
	movl	%eax,	%ecx
# CONST (5) / 

	movl	$11,	%esi
# CALL ("Li__Infix_45", 2, false) / 

	pushl	%ebx
	pushl	%esi
	pushl	%ecx
	call	Li__Infix_45
	addl	$8,	%esp
	popl	%ebx
	movl	%eax,	%ecx
# CONST (6) / 

	movl	$13,	%esi
# CALL ("Li__Infix_45", 2, false) / 

	pushl	%ebx
	pushl	%esi
	pushl	%ecx
	call	Li__Infix_45
	addl	$8,	%esp
	popl	%ebx
	movl	%eax,	%ecx
# CONST (7) / 

	movl	$15,	%esi
# CALL ("Li__Infix_45", 2, false) / 

	pushl	%ebx
	pushl	%esi
	pushl	%ecx
	call	Li__Infix_45
	addl	$8,	%esp
	popl	%ebx
	movl	%eax,	%ecx
# CONST (8) / 

	movl	$17,	%esi
# CALL ("Li__Infix_45", 2, false) / 

	pushl	%ebx
	pushl	%esi
	pushl	%ecx
	call	Li__Infix_45
	addl	$8,	%esp
	popl	%ebx
	movl	%eax,	%ecx
# CONST (9) / 

	movl	$19,	%esi
# CALL ("Li__Infix_45", 2, false) / 

	pushl	%ebx
	pushl	%esi
	pushl	%ecx
	call	Li__Infix_45
	addl	$8,	%esp
	popl	%ebx
	movl	%eax,	%ecx
# CALL ("Li__Infix_585861", 2, false) / 

	pushl	%ecx
	pushl	%ebx
	call	Li__Infix_585861
	addl	$8,	%esp
	movl	%eax,	%ebx
# LINE (55) / 

	.stabn 68,0,55,.L13-Lprogram

.L13:

# STRING ("z") / 

	movl	$string_5,	%ecx
	pushl	%ebx
	pushl	%ecx
	call	Bstring
	addl	$4,	%esp
	popl	%ebx
	movl	%eax,	%ecx
# CALL ("Lwrite", 1, false) / 

	pushl	%ebx
	pushl	%ecx
	call	Lwrite
	addl	$4,	%esp
	popl	%ebx
	movl	%eax,	%ecx
# CALL ("Li__Infix_6262", 2, true) / 

	pushl	%ecx
	pushl	%ebx
	call	Li__Infix_6262
	addl	$8,	%esp
	movl	%eax,	%ebx
# SLABEL ("L89") / 

L89:

# SLABEL ("L86") / 

L86:

# END / 

	movl	%ebx,	%eax
LLprogram_epilogue:

	movl	%ebp,	%esp
	popl	%ebp
	.cfi_restore	5

	.cfi_def_cfa	4, 4

	ret
	.cfi_endproc

	.set	LLprogram_SIZE,	0

	.set	LSLprogram_SIZE,	0

	.size Lprogram, .-Lprogram

# LABEL ("Li__Infix_6262") / 

Li__Infix_6262:

# BEGIN ("Li__Infix_6262", 2, 0, [], ["s1"; "s2"], [{ blab="L113"; elab="L114"; names=[]; subs=[{ blab="L116"; elab="L117"; names=[]; subs=[]; }]; }]) / 

	.type i__Infix_6262, @function

	.stabs "i__Infix_6262:F1",36,0,0,Li__Infix_6262

	.stabs "s1:p1",160,0,0,8

	.stabs "s2:p1",160,0,0,12

	.cfi_startproc

	.cfi_adjust_cfa_offset	4

	pushl	%ebp
	.cfi_adjust_cfa_offset	4

	movl	%esp,	%ebp
	.cfi_def_cfa_register	5

	subl	$LLi__Infix_6262_SIZE,	%esp
	movl	%esp,	%edi
	movl	$filler,	%esi
	movl	$LSLi__Infix_6262_SIZE,	%ecx
	rep movsl	
# SLABEL ("L113") / 

L113:

# SLABEL ("L116") / 

L116:

# LINE (50) / 

	.stabn 68,0,50,0

	.stabn 68,0,50,.L14-Li__Infix_6262

.L14:

# LD (Arg (0)) / 

	movl	8(%ebp),	%ebx
# LD (Arg (1)) / 

	movl	12(%ebp),	%ecx
# SEXP ("Seq", 2) / 

	movl	$369315,	%esi
	pushl	%esi
	pushl	%ecx
	pushl	%ebx
	pushl	$7
	call	Bsexp
	addl	$16,	%esp
	movl	%eax,	%ebx
# SLABEL ("L117") / 

L117:

# SLABEL ("L114") / 

L114:

# END / 

	movl	%ebx,	%eax
LLi__Infix_6262_epilogue:

	movl	%ebp,	%esp
	popl	%ebp
	.cfi_restore	5

	.cfi_def_cfa	4, 4

	ret
	.cfi_endproc

	.set	LLi__Infix_6262_SIZE,	0

	.set	LSLi__Infix_6262_SIZE,	0

	.size Li__Infix_6262, .-Li__Infix_6262

# LABEL ("Li__Infix_585861") / 

Li__Infix_585861:

# BEGIN ("Li__Infix_585861", 2, 0, [], ["x"; "e"], [{ blab="L120"; elab="L121"; names=[]; subs=[{ blab="L123"; elab="L124"; names=[]; subs=[]; }]; }]) / 

	.type i__Infix_585861, @function

	.stabs "i__Infix_585861:F1",36,0,0,Li__Infix_585861

	.stabs "x:p1",160,0,0,8

	.stabs "e:p1",160,0,0,12

	.cfi_startproc

	.cfi_adjust_cfa_offset	4

	pushl	%ebp
	.cfi_adjust_cfa_offset	4

	movl	%esp,	%ebp
	.cfi_def_cfa_register	5

	subl	$LLi__Infix_585861_SIZE,	%esp
	movl	%esp,	%edi
	movl	$filler,	%esi
	movl	$LSLi__Infix_585861_SIZE,	%ecx
	rep movsl	
# SLABEL ("L120") / 

L120:

# SLABEL ("L123") / 

L123:

# LINE (46) / 

	.stabn 68,0,46,0

	.stabn 68,0,46,.L15-Li__Infix_585861

.L15:

# LD (Arg (0)) / 

	movl	8(%ebp),	%ebx
# LD (Arg (1)) / 

	movl	12(%ebp),	%ecx
# CALL ("Lopnd", 1, false) / 

	pushl	%ebx
	pushl	%ecx
	call	Lopnd
	addl	$4,	%esp
	popl	%ebx
	movl	%eax,	%ecx
# SEXP ("Assn", 2) / 

	movl	$14313885,	%esi
	pushl	%esi
	pushl	%ecx
	pushl	%ebx
	pushl	$7
	call	Bsexp
	addl	$16,	%esp
	movl	%eax,	%ebx
# SLABEL ("L124") / 

L124:

# SLABEL ("L121") / 

L121:

# END / 

	movl	%ebx,	%eax
LLi__Infix_585861_epilogue:

	movl	%ebp,	%esp
	popl	%ebp
	.cfi_restore	5

	.cfi_def_cfa	4, 4

	ret
	.cfi_endproc

	.set	LLi__Infix_585861_SIZE,	0

	.set	LSLi__Infix_585861_SIZE,	0

	.size Li__Infix_585861, .-Li__Infix_585861

# LABEL ("Lwrite") / 

Lwrite:

# BEGIN ("Lwrite", 1, 0, [], ["e"], [{ blab="L128"; elab="L129"; names=[]; subs=[{ blab="L131"; elab="L132"; names=[]; subs=[]; }]; }]) / 

	.type write, @function

	.stabs "write:F1",36,0,0,Lwrite

	.stabs "e:p1",160,0,0,8

	.cfi_startproc

	.cfi_adjust_cfa_offset	4

	pushl	%ebp
	.cfi_adjust_cfa_offset	4

	movl	%esp,	%ebp
	.cfi_def_cfa_register	5

	subl	$LLwrite_SIZE,	%esp
	movl	%esp,	%edi
	movl	$filler,	%esi
	movl	$LSLwrite_SIZE,	%ecx
	rep movsl	
# SLABEL ("L128") / 

L128:

# SLABEL ("L131") / 

L131:

# LINE (41) / 

	.stabn 68,0,41,0

	.stabn 68,0,41,.L16-Lwrite

.L16:

# LD (Arg (0)) / 

	movl	8(%ebp),	%ebx
# CALL ("Lopnd", 1, false) / 

	pushl	%ebx
	call	Lopnd
	addl	$4,	%esp
	movl	%eax,	%ebx
# SEXP ("Write", 1) / 

	movl	$1653680651,	%ecx
	pushl	%ecx
	pushl	%ebx
	pushl	$5
	call	Bsexp
	addl	$12,	%esp
	movl	%eax,	%ebx
# SLABEL ("L132") / 

L132:

# SLABEL ("L129") / 

L129:

# END / 

	movl	%ebx,	%eax
LLwrite_epilogue:

	movl	%ebp,	%esp
	popl	%ebp
	.cfi_restore	5

	.cfi_def_cfa	4, 4

	ret
	.cfi_endproc

	.set	LLwrite_SIZE,	0

	.set	LSLwrite_SIZE,	0

	.size Lwrite, .-Lwrite

# LABEL ("Lread") / 

Lread:

# BEGIN ("Lread", 1, 0, [], ["x"], [{ blab="L135"; elab="L136"; names=[]; subs=[{ blab="L138"; elab="L139"; names=[]; subs=[]; }]; }]) / 

	.type read, @function

	.stabs "read:F1",36,0,0,Lread

	.stabs "x:p1",160,0,0,8

	.cfi_startproc

	.cfi_adjust_cfa_offset	4

	pushl	%ebp
	.cfi_adjust_cfa_offset	4

	movl	%esp,	%ebp
	.cfi_def_cfa_register	5

	subl	$LLread_SIZE,	%esp
	movl	%esp,	%edi
	movl	$filler,	%esi
	movl	$LSLread_SIZE,	%ecx
	rep movsl	
# SLABEL ("L135") / 

L135:

# SLABEL ("L138") / 

L138:

# LINE (36) / 

	.stabn 68,0,36,0

	.stabn 68,0,36,.L17-Lread

.L17:

# LD (Arg (0)) / 

	movl	8(%ebp),	%ebx
# SEXP ("Read", 1) / 

	movl	$23109769,	%ecx
	pushl	%ecx
	pushl	%ebx
	pushl	$5
	call	Bsexp
	addl	$12,	%esp
	movl	%eax,	%ebx
# SLABEL ("L139") / 

L139:

# SLABEL ("L136") / 

L136:

# END / 

	movl	%ebx,	%eax
LLread_epilogue:

	movl	%ebp,	%esp
	popl	%ebp
	.cfi_restore	5

	.cfi_def_cfa	4, 4

	ret
	.cfi_endproc

	.set	LLread_SIZE,	0

	.set	LSLread_SIZE,	0

	.size Lread, .-Lread

# LABEL ("Li__Infix_3333") / 

Li__Infix_3333:

# BEGIN ("Li__Infix_3333", 2, 0, [], ["l"; "r"], [{ blab="L141"; elab="L142"; names=[]; subs=[{ blab="L144"; elab="L145"; names=[]; subs=[]; }]; }]) / 

	.type i__Infix_3333, @function

	.stabs "i__Infix_3333:F1",36,0,0,Li__Infix_3333

	.stabs "l:p1",160,0,0,8

	.stabs "r:p1",160,0,0,12

	.cfi_startproc

	.cfi_adjust_cfa_offset	4

	pushl	%ebp
	.cfi_adjust_cfa_offset	4

	movl	%esp,	%ebp
	.cfi_def_cfa_register	5

	subl	$LLi__Infix_3333_SIZE,	%esp
	movl	%esp,	%edi
	movl	$filler,	%esi
	movl	$LSLi__Infix_3333_SIZE,	%ecx
	rep movsl	
# SLABEL ("L141") / 

L141:

# SLABEL ("L144") / 

L144:

# STRING ("!!") / 

	movl	$string_6,	%ebx
	pushl	%ebx
	call	Bstring
	addl	$4,	%esp
	movl	%eax,	%ebx
# LINE (33) / 

	.stabn 68,0,33,0

	.stabn 68,0,33,.L18-Li__Infix_3333

.L18:

# LD (Arg (0)) / 

	movl	8(%ebp),	%ecx
# CALL ("Lopnd", 1, false) / 

	pushl	%ebx
	pushl	%ecx
	call	Lopnd
	addl	$4,	%esp
	popl	%ebx
	movl	%eax,	%ecx
# LD (Arg (1)) / 

	movl	12(%ebp),	%esi
# CALL ("Lopnd", 1, false) / 

	pushl	%ebx
	pushl	%ecx
	pushl	%esi
	call	Lopnd
	addl	$4,	%esp
	popl	%ecx
	popl	%ebx
	movl	%eax,	%esi
# SEXP ("Binop", 3) / 

	movl	$944359329,	%edi
	pushl	%edi
	pushl	%esi
	pushl	%ecx
	pushl	%ebx
	pushl	$9
	call	Bsexp
	addl	$20,	%esp
	movl	%eax,	%ebx
# SLABEL ("L145") / 

L145:

# SLABEL ("L142") / 

L142:

# END / 

	movl	%ebx,	%eax
LLi__Infix_3333_epilogue:

	movl	%ebp,	%esp
	popl	%ebp
	.cfi_restore	5

	.cfi_def_cfa	4, 4

	ret
	.cfi_endproc

	.set	LLi__Infix_3333_SIZE,	0

	.set	LSLi__Infix_3333_SIZE,	0

	.size Li__Infix_3333, .-Li__Infix_3333

# LABEL ("Li__Infix_3838") / 

Li__Infix_3838:

# BEGIN ("Li__Infix_3838", 2, 0, [], ["l"; "r"], [{ blab="L151"; elab="L152"; names=[]; subs=[{ blab="L154"; elab="L155"; names=[]; subs=[]; }]; }]) / 

	.type i__Infix_3838, @function

	.stabs "i__Infix_3838:F1",36,0,0,Li__Infix_3838

	.stabs "l:p1",160,0,0,8

	.stabs "r:p1",160,0,0,12

	.cfi_startproc

	.cfi_adjust_cfa_offset	4

	pushl	%ebp
	.cfi_adjust_cfa_offset	4

	movl	%esp,	%ebp
	.cfi_def_cfa_register	5

	subl	$LLi__Infix_3838_SIZE,	%esp
	movl	%esp,	%edi
	movl	$filler,	%esi
	movl	$LSLi__Infix_3838_SIZE,	%ecx
	rep movsl	
# SLABEL ("L151") / 

L151:

# SLABEL ("L154") / 

L154:

# STRING ("&&") / 

	movl	$string_7,	%ebx
	pushl	%ebx
	call	Bstring
	addl	$4,	%esp
	movl	%eax,	%ebx
# LINE (32) / 

	.stabn 68,0,32,0

	.stabn 68,0,32,.L19-Li__Infix_3838

.L19:

# LD (Arg (0)) / 

	movl	8(%ebp),	%ecx
# CALL ("Lopnd", 1, false) / 

	pushl	%ebx
	pushl	%ecx
	call	Lopnd
	addl	$4,	%esp
	popl	%ebx
	movl	%eax,	%ecx
# LD (Arg (1)) / 

	movl	12(%ebp),	%esi
# CALL ("Lopnd", 1, false) / 

	pushl	%ebx
	pushl	%ecx
	pushl	%esi
	call	Lopnd
	addl	$4,	%esp
	popl	%ecx
	popl	%ebx
	movl	%eax,	%esi
# SEXP ("Binop", 3) / 

	movl	$944359329,	%edi
	pushl	%edi
	pushl	%esi
	pushl	%ecx
	pushl	%ebx
	pushl	$9
	call	Bsexp
	addl	$20,	%esp
	movl	%eax,	%ebx
# SLABEL ("L155") / 

L155:

# SLABEL ("L152") / 

L152:

# END / 

	movl	%ebx,	%eax
LLi__Infix_3838_epilogue:

	movl	%ebp,	%esp
	popl	%ebp
	.cfi_restore	5

	.cfi_def_cfa	4, 4

	ret
	.cfi_endproc

	.set	LLi__Infix_3838_SIZE,	0

	.set	LSLi__Infix_3838_SIZE,	0

	.size Li__Infix_3838, .-Li__Infix_3838

# LABEL ("Li__Infix_6261") / 

Li__Infix_6261:

# BEGIN ("Li__Infix_6261", 2, 0, [], ["l"; "r"], [{ blab="L161"; elab="L162"; names=[]; subs=[{ blab="L164"; elab="L165"; names=[]; subs=[]; }]; }]) / 

	.type i__Infix_6261, @function

	.stabs "i__Infix_6261:F1",36,0,0,Li__Infix_6261

	.stabs "l:p1",160,0,0,8

	.stabs "r:p1",160,0,0,12

	.cfi_startproc

	.cfi_adjust_cfa_offset	4

	pushl	%ebp
	.cfi_adjust_cfa_offset	4

	movl	%esp,	%ebp
	.cfi_def_cfa_register	5

	subl	$LLi__Infix_6261_SIZE,	%esp
	movl	%esp,	%edi
	movl	$filler,	%esi
	movl	$LSLi__Infix_6261_SIZE,	%ecx
	rep movsl	
# SLABEL ("L161") / 

L161:

# SLABEL ("L164") / 

L164:

# STRING (">=") / 

	movl	$string_8,	%ebx
	pushl	%ebx
	call	Bstring
	addl	$4,	%esp
	movl	%eax,	%ebx
# LINE (31) / 

	.stabn 68,0,31,0

	.stabn 68,0,31,.L20-Li__Infix_6261

.L20:

# LD (Arg (0)) / 

	movl	8(%ebp),	%ecx
# CALL ("Lopnd", 1, false) / 

	pushl	%ebx
	pushl	%ecx
	call	Lopnd
	addl	$4,	%esp
	popl	%ebx
	movl	%eax,	%ecx
# LD (Arg (1)) / 

	movl	12(%ebp),	%esi
# CALL ("Lopnd", 1, false) / 

	pushl	%ebx
	pushl	%ecx
	pushl	%esi
	call	Lopnd
	addl	$4,	%esp
	popl	%ecx
	popl	%ebx
	movl	%eax,	%esi
# SEXP ("Binop", 3) / 

	movl	$944359329,	%edi
	pushl	%edi
	pushl	%esi
	pushl	%ecx
	pushl	%ebx
	pushl	$9
	call	Bsexp
	addl	$20,	%esp
	movl	%eax,	%ebx
# SLABEL ("L165") / 

L165:

# SLABEL ("L162") / 

L162:

# END / 

	movl	%ebx,	%eax
LLi__Infix_6261_epilogue:

	movl	%ebp,	%esp
	popl	%ebp
	.cfi_restore	5

	.cfi_def_cfa	4, 4

	ret
	.cfi_endproc

	.set	LLi__Infix_6261_SIZE,	0

	.set	LSLi__Infix_6261_SIZE,	0

	.size Li__Infix_6261, .-Li__Infix_6261

# LABEL ("Li__Infix_62") / 

Li__Infix_62:

# BEGIN ("Li__Infix_62", 2, 0, [], ["l"; "r"], [{ blab="L171"; elab="L172"; names=[]; subs=[{ blab="L174"; elab="L175"; names=[]; subs=[]; }]; }]) / 

	.type i__Infix_62, @function

	.stabs "i__Infix_62:F1",36,0,0,Li__Infix_62

	.stabs "l:p1",160,0,0,8

	.stabs "r:p1",160,0,0,12

	.cfi_startproc

	.cfi_adjust_cfa_offset	4

	pushl	%ebp
	.cfi_adjust_cfa_offset	4

	movl	%esp,	%ebp
	.cfi_def_cfa_register	5

	subl	$LLi__Infix_62_SIZE,	%esp
	movl	%esp,	%edi
	movl	$filler,	%esi
	movl	$LSLi__Infix_62_SIZE,	%ecx
	rep movsl	
# SLABEL ("L171") / 

L171:

# SLABEL ("L174") / 

L174:

# STRING (">") / 

	movl	$string_9,	%ebx
	pushl	%ebx
	call	Bstring
	addl	$4,	%esp
	movl	%eax,	%ebx
# LINE (30) / 

	.stabn 68,0,30,0

	.stabn 68,0,30,.L21-Li__Infix_62

.L21:

# LD (Arg (0)) / 

	movl	8(%ebp),	%ecx
# CALL ("Lopnd", 1, false) / 

	pushl	%ebx
	pushl	%ecx
	call	Lopnd
	addl	$4,	%esp
	popl	%ebx
	movl	%eax,	%ecx
# LD (Arg (1)) / 

	movl	12(%ebp),	%esi
# CALL ("Lopnd", 1, false) / 

	pushl	%ebx
	pushl	%ecx
	pushl	%esi
	call	Lopnd
	addl	$4,	%esp
	popl	%ecx
	popl	%ebx
	movl	%eax,	%esi
# SEXP ("Binop", 3) / 

	movl	$944359329,	%edi
	pushl	%edi
	pushl	%esi
	pushl	%ecx
	pushl	%ebx
	pushl	$9
	call	Bsexp
	addl	$20,	%esp
	movl	%eax,	%ebx
# SLABEL ("L175") / 

L175:

# SLABEL ("L172") / 

L172:

# END / 

	movl	%ebx,	%eax
LLi__Infix_62_epilogue:

	movl	%ebp,	%esp
	popl	%ebp
	.cfi_restore	5

	.cfi_def_cfa	4, 4

	ret
	.cfi_endproc

	.set	LLi__Infix_62_SIZE,	0

	.set	LSLi__Infix_62_SIZE,	0

	.size Li__Infix_62, .-Li__Infix_62

# LABEL ("Li__Infix_6061") / 

Li__Infix_6061:

# BEGIN ("Li__Infix_6061", 2, 0, [], ["l"; "r"], [{ blab="L181"; elab="L182"; names=[]; subs=[{ blab="L184"; elab="L185"; names=[]; subs=[]; }]; }]) / 

	.type i__Infix_6061, @function

	.stabs "i__Infix_6061:F1",36,0,0,Li__Infix_6061

	.stabs "l:p1",160,0,0,8

	.stabs "r:p1",160,0,0,12

	.cfi_startproc

	.cfi_adjust_cfa_offset	4

	pushl	%ebp
	.cfi_adjust_cfa_offset	4

	movl	%esp,	%ebp
	.cfi_def_cfa_register	5

	subl	$LLi__Infix_6061_SIZE,	%esp
	movl	%esp,	%edi
	movl	$filler,	%esi
	movl	$LSLi__Infix_6061_SIZE,	%ecx
	rep movsl	
# SLABEL ("L181") / 

L181:

# SLABEL ("L184") / 

L184:

# STRING ("<=") / 

	movl	$string_10,	%ebx
	pushl	%ebx
	call	Bstring
	addl	$4,	%esp
	movl	%eax,	%ebx
# LINE (29) / 

	.stabn 68,0,29,0

	.stabn 68,0,29,.L22-Li__Infix_6061

.L22:

# LD (Arg (0)) / 

	movl	8(%ebp),	%ecx
# CALL ("Lopnd", 1, false) / 

	pushl	%ebx
	pushl	%ecx
	call	Lopnd
	addl	$4,	%esp
	popl	%ebx
	movl	%eax,	%ecx
# LD (Arg (1)) / 

	movl	12(%ebp),	%esi
# CALL ("Lopnd", 1, false) / 

	pushl	%ebx
	pushl	%ecx
	pushl	%esi
	call	Lopnd
	addl	$4,	%esp
	popl	%ecx
	popl	%ebx
	movl	%eax,	%esi
# SEXP ("Binop", 3) / 

	movl	$944359329,	%edi
	pushl	%edi
	pushl	%esi
	pushl	%ecx
	pushl	%ebx
	pushl	$9
	call	Bsexp
	addl	$20,	%esp
	movl	%eax,	%ebx
# SLABEL ("L185") / 

L185:

# SLABEL ("L182") / 

L182:

# END / 

	movl	%ebx,	%eax
LLi__Infix_6061_epilogue:

	movl	%ebp,	%esp
	popl	%ebp
	.cfi_restore	5

	.cfi_def_cfa	4, 4

	ret
	.cfi_endproc

	.set	LLi__Infix_6061_SIZE,	0

	.set	LSLi__Infix_6061_SIZE,	0

	.size Li__Infix_6061, .-Li__Infix_6061

# LABEL ("Li__Infix_60") / 

Li__Infix_60:

# BEGIN ("Li__Infix_60", 2, 0, [], ["l"; "r"], [{ blab="L191"; elab="L192"; names=[]; subs=[{ blab="L194"; elab="L195"; names=[]; subs=[]; }]; }]) / 

	.type i__Infix_60, @function

	.stabs "i__Infix_60:F1",36,0,0,Li__Infix_60

	.stabs "l:p1",160,0,0,8

	.stabs "r:p1",160,0,0,12

	.cfi_startproc

	.cfi_adjust_cfa_offset	4

	pushl	%ebp
	.cfi_adjust_cfa_offset	4

	movl	%esp,	%ebp
	.cfi_def_cfa_register	5

	subl	$LLi__Infix_60_SIZE,	%esp
	movl	%esp,	%edi
	movl	$filler,	%esi
	movl	$LSLi__Infix_60_SIZE,	%ecx
	rep movsl	
# SLABEL ("L191") / 

L191:

# SLABEL ("L194") / 

L194:

# STRING ("<") / 

	movl	$string_11,	%ebx
	pushl	%ebx
	call	Bstring
	addl	$4,	%esp
	movl	%eax,	%ebx
# LINE (28) / 

	.stabn 68,0,28,0

	.stabn 68,0,28,.L23-Li__Infix_60

.L23:

# LD (Arg (0)) / 

	movl	8(%ebp),	%ecx
# CALL ("Lopnd", 1, false) / 

	pushl	%ebx
	pushl	%ecx
	call	Lopnd
	addl	$4,	%esp
	popl	%ebx
	movl	%eax,	%ecx
# LD (Arg (1)) / 

	movl	12(%ebp),	%esi
# CALL ("Lopnd", 1, false) / 

	pushl	%ebx
	pushl	%ecx
	pushl	%esi
	call	Lopnd
	addl	$4,	%esp
	popl	%ecx
	popl	%ebx
	movl	%eax,	%esi
# SEXP ("Binop", 3) / 

	movl	$944359329,	%edi
	pushl	%edi
	pushl	%esi
	pushl	%ecx
	pushl	%ebx
	pushl	$9
	call	Bsexp
	addl	$20,	%esp
	movl	%eax,	%ebx
# SLABEL ("L195") / 

L195:

# SLABEL ("L192") / 

L192:

# END / 

	movl	%ebx,	%eax
LLi__Infix_60_epilogue:

	movl	%ebp,	%esp
	popl	%ebp
	.cfi_restore	5

	.cfi_def_cfa	4, 4

	ret
	.cfi_endproc

	.set	LLi__Infix_60_SIZE,	0

	.set	LSLi__Infix_60_SIZE,	0

	.size Li__Infix_60, .-Li__Infix_60

# LABEL ("Li__Infix_3361") / 

Li__Infix_3361:

# BEGIN ("Li__Infix_3361", 2, 0, [], ["l"; "r"], [{ blab="L201"; elab="L202"; names=[]; subs=[{ blab="L204"; elab="L205"; names=[]; subs=[]; }]; }]) / 

	.type i__Infix_3361, @function

	.stabs "i__Infix_3361:F1",36,0,0,Li__Infix_3361

	.stabs "l:p1",160,0,0,8

	.stabs "r:p1",160,0,0,12

	.cfi_startproc

	.cfi_adjust_cfa_offset	4

	pushl	%ebp
	.cfi_adjust_cfa_offset	4

	movl	%esp,	%ebp
	.cfi_def_cfa_register	5

	subl	$LLi__Infix_3361_SIZE,	%esp
	movl	%esp,	%edi
	movl	$filler,	%esi
	movl	$LSLi__Infix_3361_SIZE,	%ecx
	rep movsl	
# SLABEL ("L201") / 

L201:

# SLABEL ("L204") / 

L204:

# STRING ("!=") / 

	movl	$string_12,	%ebx
	pushl	%ebx
	call	Bstring
	addl	$4,	%esp
	movl	%eax,	%ebx
# LINE (27) / 

	.stabn 68,0,27,0

	.stabn 68,0,27,.L24-Li__Infix_3361

.L24:

# LD (Arg (0)) / 

	movl	8(%ebp),	%ecx
# CALL ("Lopnd", 1, false) / 

	pushl	%ebx
	pushl	%ecx
	call	Lopnd
	addl	$4,	%esp
	popl	%ebx
	movl	%eax,	%ecx
# LD (Arg (1)) / 

	movl	12(%ebp),	%esi
# CALL ("Lopnd", 1, false) / 

	pushl	%ebx
	pushl	%ecx
	pushl	%esi
	call	Lopnd
	addl	$4,	%esp
	popl	%ecx
	popl	%ebx
	movl	%eax,	%esi
# SEXP ("Binop", 3) / 

	movl	$944359329,	%edi
	pushl	%edi
	pushl	%esi
	pushl	%ecx
	pushl	%ebx
	pushl	$9
	call	Bsexp
	addl	$20,	%esp
	movl	%eax,	%ebx
# SLABEL ("L205") / 

L205:

# SLABEL ("L202") / 

L202:

# END / 

	movl	%ebx,	%eax
LLi__Infix_3361_epilogue:

	movl	%ebp,	%esp
	popl	%ebp
	.cfi_restore	5

	.cfi_def_cfa	4, 4

	ret
	.cfi_endproc

	.set	LLi__Infix_3361_SIZE,	0

	.set	LSLi__Infix_3361_SIZE,	0

	.size Li__Infix_3361, .-Li__Infix_3361

# LABEL ("Li__Infix_6161") / 

Li__Infix_6161:

# BEGIN ("Li__Infix_6161", 2, 0, [], ["l"; "r"], [{ blab="L211"; elab="L212"; names=[]; subs=[{ blab="L214"; elab="L215"; names=[]; subs=[]; }]; }]) / 

	.type i__Infix_6161, @function

	.stabs "i__Infix_6161:F1",36,0,0,Li__Infix_6161

	.stabs "l:p1",160,0,0,8

	.stabs "r:p1",160,0,0,12

	.cfi_startproc

	.cfi_adjust_cfa_offset	4

	pushl	%ebp
	.cfi_adjust_cfa_offset	4

	movl	%esp,	%ebp
	.cfi_def_cfa_register	5

	subl	$LLi__Infix_6161_SIZE,	%esp
	movl	%esp,	%edi
	movl	$filler,	%esi
	movl	$LSLi__Infix_6161_SIZE,	%ecx
	rep movsl	
# SLABEL ("L211") / 

L211:

# SLABEL ("L214") / 

L214:

# STRING ("==") / 

	movl	$string_13,	%ebx
	pushl	%ebx
	call	Bstring
	addl	$4,	%esp
	movl	%eax,	%ebx
# LINE (26) / 

	.stabn 68,0,26,0

	.stabn 68,0,26,.L25-Li__Infix_6161

.L25:

# LD (Arg (0)) / 

	movl	8(%ebp),	%ecx
# CALL ("Lopnd", 1, false) / 

	pushl	%ebx
	pushl	%ecx
	call	Lopnd
	addl	$4,	%esp
	popl	%ebx
	movl	%eax,	%ecx
# LD (Arg (1)) / 

	movl	12(%ebp),	%esi
# CALL ("Lopnd", 1, false) / 

	pushl	%ebx
	pushl	%ecx
	pushl	%esi
	call	Lopnd
	addl	$4,	%esp
	popl	%ecx
	popl	%ebx
	movl	%eax,	%esi
# SEXP ("Binop", 3) / 

	movl	$944359329,	%edi
	pushl	%edi
	pushl	%esi
	pushl	%ecx
	pushl	%ebx
	pushl	$9
	call	Bsexp
	addl	$20,	%esp
	movl	%eax,	%ebx
# SLABEL ("L215") / 

L215:

# SLABEL ("L212") / 

L212:

# END / 

	movl	%ebx,	%eax
LLi__Infix_6161_epilogue:

	movl	%ebp,	%esp
	popl	%ebp
	.cfi_restore	5

	.cfi_def_cfa	4, 4

	ret
	.cfi_endproc

	.set	LLi__Infix_6161_SIZE,	0

	.set	LSLi__Infix_6161_SIZE,	0

	.size Li__Infix_6161, .-Li__Infix_6161

# LABEL ("Li__Infix_37") / 

Li__Infix_37:

# BEGIN ("Li__Infix_37", 2, 0, [], ["l"; "r"], [{ blab="L221"; elab="L222"; names=[]; subs=[{ blab="L224"; elab="L225"; names=[]; subs=[]; }]; }]) / 

	.type i__Infix_37, @function

	.stabs "i__Infix_37:F1",36,0,0,Li__Infix_37

	.stabs "l:p1",160,0,0,8

	.stabs "r:p1",160,0,0,12

	.cfi_startproc

	.cfi_adjust_cfa_offset	4

	pushl	%ebp
	.cfi_adjust_cfa_offset	4

	movl	%esp,	%ebp
	.cfi_def_cfa_register	5

	subl	$LLi__Infix_37_SIZE,	%esp
	movl	%esp,	%edi
	movl	$filler,	%esi
	movl	$LSLi__Infix_37_SIZE,	%ecx
	rep movsl	
# SLABEL ("L221") / 

L221:

# SLABEL ("L224") / 

L224:

# STRING ("%") / 

	movl	$string_14,	%ebx
	pushl	%ebx
	call	Bstring
	addl	$4,	%esp
	movl	%eax,	%ebx
# LINE (25) / 

	.stabn 68,0,25,0

	.stabn 68,0,25,.L26-Li__Infix_37

.L26:

# LD (Arg (0)) / 

	movl	8(%ebp),	%ecx
# CALL ("Lopnd", 1, false) / 

	pushl	%ebx
	pushl	%ecx
	call	Lopnd
	addl	$4,	%esp
	popl	%ebx
	movl	%eax,	%ecx
# LD (Arg (1)) / 

	movl	12(%ebp),	%esi
# CALL ("Lopnd", 1, false) / 

	pushl	%ebx
	pushl	%ecx
	pushl	%esi
	call	Lopnd
	addl	$4,	%esp
	popl	%ecx
	popl	%ebx
	movl	%eax,	%esi
# SEXP ("Binop", 3) / 

	movl	$944359329,	%edi
	pushl	%edi
	pushl	%esi
	pushl	%ecx
	pushl	%ebx
	pushl	$9
	call	Bsexp
	addl	$20,	%esp
	movl	%eax,	%ebx
# SLABEL ("L225") / 

L225:

# SLABEL ("L222") / 

L222:

# END / 

	movl	%ebx,	%eax
LLi__Infix_37_epilogue:

	movl	%ebp,	%esp
	popl	%ebp
	.cfi_restore	5

	.cfi_def_cfa	4, 4

	ret
	.cfi_endproc

	.set	LLi__Infix_37_SIZE,	0

	.set	LSLi__Infix_37_SIZE,	0

	.size Li__Infix_37, .-Li__Infix_37

# LABEL ("Li__Infix_47") / 

Li__Infix_47:

# BEGIN ("Li__Infix_47", 2, 0, [], ["l"; "r"], [{ blab="L231"; elab="L232"; names=[]; subs=[{ blab="L234"; elab="L235"; names=[]; subs=[]; }]; }]) / 

	.type i__Infix_47, @function

	.stabs "i__Infix_47:F1",36,0,0,Li__Infix_47

	.stabs "l:p1",160,0,0,8

	.stabs "r:p1",160,0,0,12

	.cfi_startproc

	.cfi_adjust_cfa_offset	4

	pushl	%ebp
	.cfi_adjust_cfa_offset	4

	movl	%esp,	%ebp
	.cfi_def_cfa_register	5

	subl	$LLi__Infix_47_SIZE,	%esp
	movl	%esp,	%edi
	movl	$filler,	%esi
	movl	$LSLi__Infix_47_SIZE,	%ecx
	rep movsl	
# SLABEL ("L231") / 

L231:

# SLABEL ("L234") / 

L234:

# STRING ("/") / 

	movl	$string_15,	%ebx
	pushl	%ebx
	call	Bstring
	addl	$4,	%esp
	movl	%eax,	%ebx
# LINE (24) / 

	.stabn 68,0,24,0

	.stabn 68,0,24,.L27-Li__Infix_47

.L27:

# LD (Arg (0)) / 

	movl	8(%ebp),	%ecx
# CALL ("Lopnd", 1, false) / 

	pushl	%ebx
	pushl	%ecx
	call	Lopnd
	addl	$4,	%esp
	popl	%ebx
	movl	%eax,	%ecx
# LD (Arg (1)) / 

	movl	12(%ebp),	%esi
# CALL ("Lopnd", 1, false) / 

	pushl	%ebx
	pushl	%ecx
	pushl	%esi
	call	Lopnd
	addl	$4,	%esp
	popl	%ecx
	popl	%ebx
	movl	%eax,	%esi
# SEXP ("Binop", 3) / 

	movl	$944359329,	%edi
	pushl	%edi
	pushl	%esi
	pushl	%ecx
	pushl	%ebx
	pushl	$9
	call	Bsexp
	addl	$20,	%esp
	movl	%eax,	%ebx
# SLABEL ("L235") / 

L235:

# SLABEL ("L232") / 

L232:

# END / 

	movl	%ebx,	%eax
LLi__Infix_47_epilogue:

	movl	%ebp,	%esp
	popl	%ebp
	.cfi_restore	5

	.cfi_def_cfa	4, 4

	ret
	.cfi_endproc

	.set	LLi__Infix_47_SIZE,	0

	.set	LSLi__Infix_47_SIZE,	0

	.size Li__Infix_47, .-Li__Infix_47

# LABEL ("Li__Infix_42") / 

Li__Infix_42:

# BEGIN ("Li__Infix_42", 2, 0, [], ["l"; "r"], [{ blab="L241"; elab="L242"; names=[]; subs=[{ blab="L244"; elab="L245"; names=[]; subs=[]; }]; }]) / 

	.type i__Infix_42, @function

	.stabs "i__Infix_42:F1",36,0,0,Li__Infix_42

	.stabs "l:p1",160,0,0,8

	.stabs "r:p1",160,0,0,12

	.cfi_startproc

	.cfi_adjust_cfa_offset	4

	pushl	%ebp
	.cfi_adjust_cfa_offset	4

	movl	%esp,	%ebp
	.cfi_def_cfa_register	5

	subl	$LLi__Infix_42_SIZE,	%esp
	movl	%esp,	%edi
	movl	$filler,	%esi
	movl	$LSLi__Infix_42_SIZE,	%ecx
	rep movsl	
# SLABEL ("L241") / 

L241:

# SLABEL ("L244") / 

L244:

# STRING ("*") / 

	movl	$string_16,	%ebx
	pushl	%ebx
	call	Bstring
	addl	$4,	%esp
	movl	%eax,	%ebx
# LINE (23) / 

	.stabn 68,0,23,0

	.stabn 68,0,23,.L28-Li__Infix_42

.L28:

# LD (Arg (0)) / 

	movl	8(%ebp),	%ecx
# CALL ("Lopnd", 1, false) / 

	pushl	%ebx
	pushl	%ecx
	call	Lopnd
	addl	$4,	%esp
	popl	%ebx
	movl	%eax,	%ecx
# LD (Arg (1)) / 

	movl	12(%ebp),	%esi
# CALL ("Lopnd", 1, false) / 

	pushl	%ebx
	pushl	%ecx
	pushl	%esi
	call	Lopnd
	addl	$4,	%esp
	popl	%ecx
	popl	%ebx
	movl	%eax,	%esi
# SEXP ("Binop", 3) / 

	movl	$944359329,	%edi
	pushl	%edi
	pushl	%esi
	pushl	%ecx
	pushl	%ebx
	pushl	$9
	call	Bsexp
	addl	$20,	%esp
	movl	%eax,	%ebx
# SLABEL ("L245") / 

L245:

# SLABEL ("L242") / 

L242:

# END / 

	movl	%ebx,	%eax
LLi__Infix_42_epilogue:

	movl	%ebp,	%esp
	popl	%ebp
	.cfi_restore	5

	.cfi_def_cfa	4, 4

	ret
	.cfi_endproc

	.set	LLi__Infix_42_SIZE,	0

	.set	LSLi__Infix_42_SIZE,	0

	.size Li__Infix_42, .-Li__Infix_42

# LABEL ("Li__Infix_45") / 

Li__Infix_45:

# BEGIN ("Li__Infix_45", 2, 0, [], ["l"; "r"], [{ blab="L251"; elab="L252"; names=[]; subs=[{ blab="L254"; elab="L255"; names=[]; subs=[]; }]; }]) / 

	.type i__Infix_45, @function

	.stabs "i__Infix_45:F1",36,0,0,Li__Infix_45

	.stabs "l:p1",160,0,0,8

	.stabs "r:p1",160,0,0,12

	.cfi_startproc

	.cfi_adjust_cfa_offset	4

	pushl	%ebp
	.cfi_adjust_cfa_offset	4

	movl	%esp,	%ebp
	.cfi_def_cfa_register	5

	subl	$LLi__Infix_45_SIZE,	%esp
	movl	%esp,	%edi
	movl	$filler,	%esi
	movl	$LSLi__Infix_45_SIZE,	%ecx
	rep movsl	
# SLABEL ("L251") / 

L251:

# SLABEL ("L254") / 

L254:

# STRING ("-") / 

	movl	$string_17,	%ebx
	pushl	%ebx
	call	Bstring
	addl	$4,	%esp
	movl	%eax,	%ebx
# LINE (22) / 

	.stabn 68,0,22,0

	.stabn 68,0,22,.L29-Li__Infix_45

.L29:

# LD (Arg (0)) / 

	movl	8(%ebp),	%ecx
# CALL ("Lopnd", 1, false) / 

	pushl	%ebx
	pushl	%ecx
	call	Lopnd
	addl	$4,	%esp
	popl	%ebx
	movl	%eax,	%ecx
# LD (Arg (1)) / 

	movl	12(%ebp),	%esi
# CALL ("Lopnd", 1, false) / 

	pushl	%ebx
	pushl	%ecx
	pushl	%esi
	call	Lopnd
	addl	$4,	%esp
	popl	%ecx
	popl	%ebx
	movl	%eax,	%esi
# SEXP ("Binop", 3) / 

	movl	$944359329,	%edi
	pushl	%edi
	pushl	%esi
	pushl	%ecx
	pushl	%ebx
	pushl	$9
	call	Bsexp
	addl	$20,	%esp
	movl	%eax,	%ebx
# SLABEL ("L255") / 

L255:

# SLABEL ("L252") / 

L252:

# END / 

	movl	%ebx,	%eax
LLi__Infix_45_epilogue:

	movl	%ebp,	%esp
	popl	%ebp
	.cfi_restore	5

	.cfi_def_cfa	4, 4

	ret
	.cfi_endproc

	.set	LLi__Infix_45_SIZE,	0

	.set	LSLi__Infix_45_SIZE,	0

	.size Li__Infix_45, .-Li__Infix_45

# LABEL ("Li__Infix_43") / 

Li__Infix_43:

# BEGIN ("Li__Infix_43", 2, 0, [], ["l"; "r"], [{ blab="L261"; elab="L262"; names=[]; subs=[{ blab="L264"; elab="L265"; names=[]; subs=[]; }]; }]) / 

	.type i__Infix_43, @function

	.stabs "i__Infix_43:F1",36,0,0,Li__Infix_43

	.stabs "l:p1",160,0,0,8

	.stabs "r:p1",160,0,0,12

	.cfi_startproc

	.cfi_adjust_cfa_offset	4

	pushl	%ebp
	.cfi_adjust_cfa_offset	4

	movl	%esp,	%ebp
	.cfi_def_cfa_register	5

	subl	$LLi__Infix_43_SIZE,	%esp
	movl	%esp,	%edi
	movl	$filler,	%esi
	movl	$LSLi__Infix_43_SIZE,	%ecx
	rep movsl	
# SLABEL ("L261") / 

L261:

# SLABEL ("L264") / 

L264:

# STRING ("+") / 

	movl	$string_18,	%ebx
	pushl	%ebx
	call	Bstring
	addl	$4,	%esp
	movl	%eax,	%ebx
# LINE (21) / 

	.stabn 68,0,21,0

	.stabn 68,0,21,.L30-Li__Infix_43

.L30:

# LD (Arg (0)) / 

	movl	8(%ebp),	%ecx
# CALL ("Lopnd", 1, false) / 

	pushl	%ebx
	pushl	%ecx
	call	Lopnd
	addl	$4,	%esp
	popl	%ebx
	movl	%eax,	%ecx
# LD (Arg (1)) / 

	movl	12(%ebp),	%esi
# CALL ("Lopnd", 1, false) / 

	pushl	%ebx
	pushl	%ecx
	pushl	%esi
	call	Lopnd
	addl	$4,	%esp
	popl	%ecx
	popl	%ebx
	movl	%eax,	%esi
# SEXP ("Binop", 3) / 

	movl	$944359329,	%edi
	pushl	%edi
	pushl	%esi
	pushl	%ecx
	pushl	%ebx
	pushl	$9
	call	Bsexp
	addl	$20,	%esp
	movl	%eax,	%ebx
# SLABEL ("L265") / 

L265:

# SLABEL ("L262") / 

L262:

# END / 

	movl	%ebx,	%eax
LLi__Infix_43_epilogue:

	movl	%ebp,	%esp
	popl	%ebp
	.cfi_restore	5

	.cfi_def_cfa	4, 4

	ret
	.cfi_endproc

	.set	LLi__Infix_43_SIZE,	0

	.set	LSLi__Infix_43_SIZE,	0

	.size Li__Infix_43, .-Li__Infix_43

# LABEL ("Lopnd") / 

Lopnd:

# BEGIN ("Lopnd", 1, 0, [], ["x"], [{ blab="L271"; elab="L272"; names=[]; subs=[{ blab="L274"; elab="L275"; names=[]; subs=[{ blab="L290"; elab="L291"; names=[]; subs=[{ blab="L292"; elab="L293"; names=[]; subs=[]; }]; }; { blab="L285"; elab="L286"; names=[]; subs=[{ blab="L287"; elab="L288"; names=[]; subs=[]; }]; }; { blab="L279"; elab="L280"; names=[]; subs=[{ blab="L281"; elab="L282"; names=[]; subs=[]; }]; }]; }]; }]) / 

	.type opnd, @function

	.stabs "opnd:F1",36,0,0,Lopnd

	.stabs "x:p1",160,0,0,8

	.cfi_startproc

	.cfi_adjust_cfa_offset	4

	pushl	%ebp
	.cfi_adjust_cfa_offset	4

	movl	%esp,	%ebp
	.cfi_def_cfa_register	5

	subl	$LLopnd_SIZE,	%esp
	movl	%esp,	%edi
	movl	$filler,	%esi
	movl	$LSLopnd_SIZE,	%ecx
	rep movsl	
# SLABEL ("L271") / 

L271:

# SLABEL ("L274") / 

L274:

# LINE (14) / 

	.stabn 68,0,14,0

	.stabn 68,0,14,.L31-Lopnd

.L31:

# LD (Arg (0)) / 

	movl	8(%ebp),	%ebx
# DUP / 

	movl	%ebx,	%ecx
# SLABEL ("L279") / 

L279:

# PATT (String) / 

	pushl	%ebx
	pushl	%ecx
	call	Bstring_tag_patt
	addl	$4,	%esp
	popl	%ebx
	movl	%eax,	%ecx
# CJMP ("z", "L278") / 

	sarl	%ecx
	cmpl	$0,	%ecx
	jz	L278
# DROP / 

# SLABEL ("L281") / 

L281:

# LINE (15) / 

	.stabn 68,0,15,.L32-Lopnd

.L32:

# LD (Arg (0)) / 

	movl	8(%ebp),	%ebx
# SEXP ("Var", 1) / 

	movl	$393381,	%ecx
	pushl	%ecx
	pushl	%ebx
	pushl	$5
	call	Bsexp
	addl	$12,	%esp
	movl	%eax,	%ebx
# SLABEL ("L282") / 

L282:

# JMP ("L273") / 

	jmp	L273
# SLABEL ("L280") / 

L280:

# SLABEL ("L285") / 

L285:

# LABEL ("L278") / 

L278:

# DUP / 

	movl	%ebx,	%ecx
# PATT (UnBoxed) / 

	pushl	%ebx
	pushl	%ecx
	call	Bunboxed_patt
	addl	$4,	%esp
	popl	%ebx
	movl	%eax,	%ecx
# CJMP ("z", "L284") / 

	sarl	%ecx
	cmpl	$0,	%ecx
	jz	L284
# DROP / 

# SLABEL ("L287") / 

L287:

# LINE (16) / 

	.stabn 68,0,16,.L33-Lopnd

.L33:

# LD (Arg (0)) / 

	movl	8(%ebp),	%ebx
# SEXP ("Const", 1) / 

	movl	$981060009,	%ecx
	pushl	%ecx
	pushl	%ebx
	pushl	$5
	call	Bsexp
	addl	$12,	%esp
	movl	%eax,	%ebx
# SLABEL ("L288") / 

L288:

# JMP ("L273") / 

	jmp	L273
# SLABEL ("L286") / 

L286:

# SLABEL ("L290") / 

L290:

# LABEL ("L284") / 

L284:

# DUP / 

	movl	%ebx,	%ecx
# DROP / 

# DROP / 

# SLABEL ("L292") / 

L292:

# LINE (17) / 

	.stabn 68,0,17,.L34-Lopnd

.L34:

# LD (Arg (0)) / 

	movl	8(%ebp),	%ebx
# SLABEL ("L293") / 

L293:

# SLABEL ("L291") / 

L291:

# JMP ("L273") / 

	jmp	L273
# SLABEL ("L275") / 

L275:

# LABEL ("L273") / 

L273:

# SLABEL ("L272") / 

L272:

# END / 

	movl	%ebx,	%eax
LLopnd_epilogue:

	movl	%ebp,	%esp
	popl	%ebp
	.cfi_restore	5

	.cfi_def_cfa	4, 4

	ret
	.cfi_endproc

	.set	LLopnd_SIZE,	0

	.set	LSLopnd_SIZE,	0

	.size Lopnd, .-Lopnd

