	.file "/home/natashka/Desktop/compilers-2020/src/Expr.lama"

	.stabs "/home/natashka/Desktop/compilers-2020/src/Expr.lama",100,0,0,.Ltext

	.globl	LevalExpr

	.globl	LevalOp

	.globl	initExpr

	.data

string_12:	.string	"!!"

string_6:	.string	"!="

string_4:	.string	"%"

string_11:	.string	"&&"

string_2:	.string	"*"

string_0:	.string	"+"

string_1:	.string	"-"

string_3:	.string	"/"

string_7:	.string	"<"

string_8:	.string	"<="

string_5:	.string	"=="

string_9:	.string	">"

string_10:	.string	">="

string_13:	.string	"Expr.lama"

_init:	.int 0

	.section custom_data,"aw",@progbits

filler:	.fill	13, 4, 1

	.stabs "ops:S1",40,0,0,global_ops

global_ops:	.int	1

	.text

.Ltext:

	.stabs "data:t1=r1;0;4294967295;",128,0,0,0

# PUBLIC ("initExpr") / 

# PUBLIC ("LevalOp") / 

# PUBLIC ("LevalExpr") / 

# EXTERN ("LgetOutput") / 

# EXTERN ("LreadWorld") / 

# EXTERN ("LwriteWorld") / 

# EXTERN ("LcreateWorld") / 

# EXTERN ("Li__Infix_6045") / 

# EXTERN ("LemptyState") / 

# EXTERN ("Lfilter") / 

# EXTERN ("Lremove") / 

# EXTERN ("Lunzip") / 

# EXTERN ("Lzip") / 

# EXTERN ("LdeepFlatten") / 

# EXTERN ("Lflatten") / 

# EXTERN ("Lfind") / 

# EXTERN ("Lassoc") / 

# EXTERN ("Lreverse") / 

# EXTERN ("Li__Infix_434343") / 

# EXTERN ("Lmap") / 

# EXTERN ("Liter") / 

# EXTERN ("Lfoldr") / 

# EXTERN ("Lfoldl") / 

# EXTERN ("Lsize") / 

# EXTERN ("Lsingleton") / 

# EXTERN ("LtagHash") / 

# EXTERN ("LflatCompare") / 

# EXTERN ("LcompareTags") / 

# EXTERN ("LkindOf") / 

# EXTERN ("Ltime") / 

# EXTERN ("Lrandom") / 

# EXTERN ("LdisableGC") / 

# EXTERN ("LenableGC") / 

# EXTERN ("Ls__Infix_37") / 

# EXTERN ("Ls__Infix_47") / 

# EXTERN ("Ls__Infix_42") / 

# EXTERN ("Ls__Infix_45") / 

# EXTERN ("Ls__Infix_43") / 

# EXTERN ("Ls__Infix_62") / 

# EXTERN ("Ls__Infix_6261") / 

# EXTERN ("Ls__Infix_60") / 

# EXTERN ("Ls__Infix_6061") / 

# EXTERN ("Ls__Infix_3361") / 

# EXTERN ("Ls__Infix_6161") / 

# EXTERN ("Ls__Infix_3838") / 

# EXTERN ("Ls__Infix_3333") / 

# EXTERN ("Ls__Infix_58") / 

# EXTERN ("Li__Infix_4343") / 

# EXTERN ("Lcompare") / 

# EXTERN ("Lwrite") / 

# EXTERN ("Lread") / 

# EXTERN ("Lfailure") / 

# EXTERN ("Lfwrite") / 

# EXTERN ("Lfread") / 

# EXTERN ("Lfclose") / 

# EXTERN ("Lfopen") / 

# EXTERN ("Lfprintf") / 

# EXTERN ("Lprintf") / 

# EXTERN ("LmakeString") / 

# EXTERN ("Lsprintf") / 

# EXTERN ("LregexpMatch") / 

# EXTERN ("Lregexp") / 

# EXTERN ("Lsubstring") / 

# EXTERN ("LmatchSubString") / 

# EXTERN ("Lstringcat") / 

# EXTERN ("LreadLine") / 

# EXTERN ("Ltl") / 

# EXTERN ("Lhd") / 

# EXTERN ("Lsnd") / 

# EXTERN ("Lfst") / 

# EXTERN ("Lhash") / 

# EXTERN ("Lclone") / 

# EXTERN ("LmakeArray") / 

# EXTERN ("LstringInt") / 

# EXTERN ("global_sysargs") / 

# EXTERN ("Lsystem") / 

# EXTERN ("LgetEnv") / 

# LABEL ("initExpr") / 

initExpr:

# BEGIN ("initExpr", 0, 0, [], [], []) / 

	.type initExpr, @function

	.stabs "initExpr:F1",36,0,0,initExpr

	.cfi_startproc

	.cfi_adjust_cfa_offset	4

	movl	_init,	%eax
	test	%eax,	%eax
	jz	_continue
	ret
_continue:

	movl	$1,	_init
	pushl	%ebp
	.cfi_adjust_cfa_offset	4

	movl	%esp,	%ebp
	.cfi_def_cfa_register	5

	subl	$LinitExpr_SIZE,	%esp
	movl	%esp,	%edi
	movl	$filler,	%esi
	movl	$LSinitExpr_SIZE,	%ecx
	rep movsl	
	call	initList
	call	initState
	call	initWorld
# SLABEL ("L1") / 

L1:

# LINE (8) / 

	.stabn 68,0,8,0

	.stabn 68,0,8,.L0-initExpr

.L0:

# LDA (Global ("ops")) / 

	leal	global_ops,	%ebx
# STRING ("+") / 

	movl	$string_0,	%ecx
	pushl	%ebx
	pushl	%ecx
	call	Bstring
	addl	$4,	%esp
	popl	%ebx
	movl	%eax,	%ecx
# LINE (9) / 

	.stabn 68,0,9,.L1-initExpr

.L1:

# CLOSURE ("Ls__Infix_43", []) / 

	pushl	%ebx
	pushl	%ecx
	pushl	$Ls__Infix_43
	pushl	$1
	call	Bclosure
	addl	$8,	%esp
	movl	%eax,	%esi
	popl	%ecx
	popl	%ebx
# CALL (".array", 2, false) / 

	pushl	%ebx
	pushl	%esi
	pushl	%ecx
	pushl	$5
	call	Barray
	addl	$12,	%esp
	popl	%ebx
	movl	%eax,	%ecx
# STRING ("-") / 

	movl	$string_1,	%esi
	pushl	%ebx
	pushl	%ecx
	pushl	%esi
	call	Bstring
	addl	$4,	%esp
	popl	%ecx
	popl	%ebx
	movl	%eax,	%esi
# LINE (10) / 

	.stabn 68,0,10,.L2-initExpr

.L2:

# CLOSURE ("Ls__Infix_45", []) / 

	pushl	%ebx
	pushl	%ecx
	pushl	%esi
	pushl	$Ls__Infix_45
	pushl	$1
	call	Bclosure
	addl	$8,	%esp
	movl	%eax,	%edi
	popl	%esi
	popl	%ecx
	popl	%ebx
# CALL (".array", 2, false) / 

	pushl	%ebx
	pushl	%ecx
	pushl	%edi
	pushl	%esi
	pushl	$5
	call	Barray
	addl	$12,	%esp
	popl	%ecx
	popl	%ebx
	movl	%eax,	%esi
# STRING ("*") / 

	movl	$string_2,	%edi
	pushl	%ebx
	pushl	%ecx
	pushl	%esi
	pushl	%edi
	call	Bstring
	addl	$4,	%esp
	popl	%esi
	popl	%ecx
	popl	%ebx
	movl	%eax,	%edi
# LINE (11) / 

	.stabn 68,0,11,.L3-initExpr

.L3:

# CLOSURE ("Ls__Infix_42", []) / 

	pushl	%ebx
	pushl	%ecx
	pushl	%esi
	pushl	%edi
	pushl	$Ls__Infix_42
	pushl	$1
	call	Bclosure
	addl	$8,	%esp
	movl	%eax,	-4(%ebp)
	popl	%edi
	popl	%esi
	popl	%ecx
	popl	%ebx
# CALL (".array", 2, false) / 

	pushl	%ebx
	pushl	%ecx
	pushl	%esi
	pushl	-4(%ebp)
	pushl	%edi
	pushl	$5
	call	Barray
	addl	$12,	%esp
	popl	%esi
	popl	%ecx
	popl	%ebx
	movl	%eax,	%edi
# STRING ("/") / 

	movl	$string_3,	-4(%ebp)
	pushl	%ebx
	pushl	%ecx
	pushl	%esi
	pushl	%edi
	pushl	-4(%ebp)
	call	Bstring
	addl	$4,	%esp
	popl	%edi
	popl	%esi
	popl	%ecx
	popl	%ebx
	movl	%eax,	-4(%ebp)
# LINE (12) / 

	.stabn 68,0,12,.L4-initExpr

.L4:

# CLOSURE ("Ls__Infix_47", []) / 

	pushl	%ebx
	pushl	%ecx
	pushl	%esi
	pushl	%edi
	pushl	$Ls__Infix_47
	pushl	$1
	call	Bclosure
	addl	$8,	%esp
	movl	%eax,	-8(%ebp)
	popl	%edi
	popl	%esi
	popl	%ecx
	popl	%ebx
# CALL (".array", 2, false) / 

	pushl	%ebx
	pushl	%ecx
	pushl	%esi
	pushl	%edi
	pushl	-8(%ebp)
	pushl	-4(%ebp)
	pushl	$5
	call	Barray
	addl	$12,	%esp
	popl	%edi
	popl	%esi
	popl	%ecx
	popl	%ebx
	movl	%eax,	-4(%ebp)
# STRING ("%") / 

	movl	$string_4,	-8(%ebp)
	pushl	%ebx
	pushl	%ecx
	pushl	%esi
	pushl	%edi
	pushl	-8(%ebp)
	call	Bstring
	addl	$4,	%esp
	popl	%edi
	popl	%esi
	popl	%ecx
	popl	%ebx
	movl	%eax,	-8(%ebp)
# LINE (13) / 

	.stabn 68,0,13,.L5-initExpr

.L5:

# CLOSURE ("Ls__Infix_37", []) / 

	pushl	%ebx
	pushl	%ecx
	pushl	%esi
	pushl	%edi
	pushl	$Ls__Infix_37
	pushl	$1
	call	Bclosure
	addl	$8,	%esp
	movl	%eax,	-12(%ebp)
	popl	%edi
	popl	%esi
	popl	%ecx
	popl	%ebx
# CALL (".array", 2, false) / 

	pushl	%ebx
	pushl	%ecx
	pushl	%esi
	pushl	%edi
	pushl	-12(%ebp)
	pushl	-8(%ebp)
	pushl	$5
	call	Barray
	addl	$12,	%esp
	popl	%edi
	popl	%esi
	popl	%ecx
	popl	%ebx
	movl	%eax,	-8(%ebp)
# STRING ("==") / 

	movl	$string_5,	-12(%ebp)
	pushl	%ebx
	pushl	%ecx
	pushl	%esi
	pushl	%edi
	pushl	-12(%ebp)
	call	Bstring
	addl	$4,	%esp
	popl	%edi
	popl	%esi
	popl	%ecx
	popl	%ebx
	movl	%eax,	-12(%ebp)
# LINE (14) / 

	.stabn 68,0,14,.L6-initExpr

.L6:

# CLOSURE ("Ls__Infix_6161", []) / 

	pushl	%ebx
	pushl	%ecx
	pushl	%esi
	pushl	%edi
	pushl	$Ls__Infix_6161
	pushl	$1
	call	Bclosure
	addl	$8,	%esp
	movl	%eax,	-16(%ebp)
	popl	%edi
	popl	%esi
	popl	%ecx
	popl	%ebx
# CALL (".array", 2, false) / 

	pushl	%ebx
	pushl	%ecx
	pushl	%esi
	pushl	%edi
	pushl	-16(%ebp)
	pushl	-12(%ebp)
	pushl	$5
	call	Barray
	addl	$12,	%esp
	popl	%edi
	popl	%esi
	popl	%ecx
	popl	%ebx
	movl	%eax,	-12(%ebp)
# STRING ("!=") / 

	movl	$string_6,	-16(%ebp)
	pushl	%ebx
	pushl	%ecx
	pushl	%esi
	pushl	%edi
	pushl	-16(%ebp)
	call	Bstring
	addl	$4,	%esp
	popl	%edi
	popl	%esi
	popl	%ecx
	popl	%ebx
	movl	%eax,	-16(%ebp)
# LINE (15) / 

	.stabn 68,0,15,.L7-initExpr

.L7:

# CLOSURE ("Ls__Infix_3361", []) / 

	pushl	%ebx
	pushl	%ecx
	pushl	%esi
	pushl	%edi
	pushl	$Ls__Infix_3361
	pushl	$1
	call	Bclosure
	addl	$8,	%esp
	movl	%eax,	-20(%ebp)
	popl	%edi
	popl	%esi
	popl	%ecx
	popl	%ebx
# CALL (".array", 2, false) / 

	pushl	%ebx
	pushl	%ecx
	pushl	%esi
	pushl	%edi
	pushl	-20(%ebp)
	pushl	-16(%ebp)
	pushl	$5
	call	Barray
	addl	$12,	%esp
	popl	%edi
	popl	%esi
	popl	%ecx
	popl	%ebx
	movl	%eax,	-16(%ebp)
# STRING ("<") / 

	movl	$string_7,	-20(%ebp)
	pushl	%ebx
	pushl	%ecx
	pushl	%esi
	pushl	%edi
	pushl	-20(%ebp)
	call	Bstring
	addl	$4,	%esp
	popl	%edi
	popl	%esi
	popl	%ecx
	popl	%ebx
	movl	%eax,	-20(%ebp)
# LINE (16) / 

	.stabn 68,0,16,.L8-initExpr

.L8:

# CLOSURE ("Ls__Infix_60", []) / 

	pushl	%ebx
	pushl	%ecx
	pushl	%esi
	pushl	%edi
	pushl	$Ls__Infix_60
	pushl	$1
	call	Bclosure
	addl	$8,	%esp
	movl	%eax,	-24(%ebp)
	popl	%edi
	popl	%esi
	popl	%ecx
	popl	%ebx
# CALL (".array", 2, false) / 

	pushl	%ebx
	pushl	%ecx
	pushl	%esi
	pushl	%edi
	pushl	-24(%ebp)
	pushl	-20(%ebp)
	pushl	$5
	call	Barray
	addl	$12,	%esp
	popl	%edi
	popl	%esi
	popl	%ecx
	popl	%ebx
	movl	%eax,	-20(%ebp)
# STRING ("<=") / 

	movl	$string_8,	-24(%ebp)
	pushl	%ebx
	pushl	%ecx
	pushl	%esi
	pushl	%edi
	pushl	-24(%ebp)
	call	Bstring
	addl	$4,	%esp
	popl	%edi
	popl	%esi
	popl	%ecx
	popl	%ebx
	movl	%eax,	-24(%ebp)
# LINE (17) / 

	.stabn 68,0,17,.L9-initExpr

.L9:

# CLOSURE ("Ls__Infix_6061", []) / 

	pushl	%ebx
	pushl	%ecx
	pushl	%esi
	pushl	%edi
	pushl	$Ls__Infix_6061
	pushl	$1
	call	Bclosure
	addl	$8,	%esp
	movl	%eax,	-28(%ebp)
	popl	%edi
	popl	%esi
	popl	%ecx
	popl	%ebx
# CALL (".array", 2, false) / 

	pushl	%ebx
	pushl	%ecx
	pushl	%esi
	pushl	%edi
	pushl	-28(%ebp)
	pushl	-24(%ebp)
	pushl	$5
	call	Barray
	addl	$12,	%esp
	popl	%edi
	popl	%esi
	popl	%ecx
	popl	%ebx
	movl	%eax,	-24(%ebp)
# STRING (">") / 

	movl	$string_9,	-28(%ebp)
	pushl	%ebx
	pushl	%ecx
	pushl	%esi
	pushl	%edi
	pushl	-28(%ebp)
	call	Bstring
	addl	$4,	%esp
	popl	%edi
	popl	%esi
	popl	%ecx
	popl	%ebx
	movl	%eax,	-28(%ebp)
# LINE (18) / 

	.stabn 68,0,18,.L10-initExpr

.L10:

# CLOSURE ("Ls__Infix_62", []) / 

	pushl	%ebx
	pushl	%ecx
	pushl	%esi
	pushl	%edi
	pushl	$Ls__Infix_62
	pushl	$1
	call	Bclosure
	addl	$8,	%esp
	movl	%eax,	-32(%ebp)
	popl	%edi
	popl	%esi
	popl	%ecx
	popl	%ebx
# CALL (".array", 2, false) / 

	pushl	%ebx
	pushl	%ecx
	pushl	%esi
	pushl	%edi
	pushl	-32(%ebp)
	pushl	-28(%ebp)
	pushl	$5
	call	Barray
	addl	$12,	%esp
	popl	%edi
	popl	%esi
	popl	%ecx
	popl	%ebx
	movl	%eax,	-28(%ebp)
# STRING (">=") / 

	movl	$string_10,	-32(%ebp)
	pushl	%ebx
	pushl	%ecx
	pushl	%esi
	pushl	%edi
	pushl	-32(%ebp)
	call	Bstring
	addl	$4,	%esp
	popl	%edi
	popl	%esi
	popl	%ecx
	popl	%ebx
	movl	%eax,	-32(%ebp)
# LINE (19) / 

	.stabn 68,0,19,.L11-initExpr

.L11:

# CLOSURE ("Ls__Infix_6261", []) / 

	pushl	%ebx
	pushl	%ecx
	pushl	%esi
	pushl	%edi
	pushl	$Ls__Infix_6261
	pushl	$1
	call	Bclosure
	addl	$8,	%esp
	movl	%eax,	-36(%ebp)
	popl	%edi
	popl	%esi
	popl	%ecx
	popl	%ebx
# CALL (".array", 2, false) / 

	pushl	%ebx
	pushl	%ecx
	pushl	%esi
	pushl	%edi
	pushl	-36(%ebp)
	pushl	-32(%ebp)
	pushl	$5
	call	Barray
	addl	$12,	%esp
	popl	%edi
	popl	%esi
	popl	%ecx
	popl	%ebx
	movl	%eax,	-32(%ebp)
# STRING ("&&") / 

	movl	$string_11,	-36(%ebp)
	pushl	%ebx
	pushl	%ecx
	pushl	%esi
	pushl	%edi
	pushl	-36(%ebp)
	call	Bstring
	addl	$4,	%esp
	popl	%edi
	popl	%esi
	popl	%ecx
	popl	%ebx
	movl	%eax,	-36(%ebp)
# LINE (20) / 

	.stabn 68,0,20,.L12-initExpr

.L12:

# CLOSURE ("Ls__Infix_3838", []) / 

	pushl	%ebx
	pushl	%ecx
	pushl	%esi
	pushl	%edi
	pushl	$Ls__Infix_3838
	pushl	$1
	call	Bclosure
	addl	$8,	%esp
	movl	%eax,	-40(%ebp)
	popl	%edi
	popl	%esi
	popl	%ecx
	popl	%ebx
# CALL (".array", 2, false) / 

	pushl	%ebx
	pushl	%ecx
	pushl	%esi
	pushl	%edi
	pushl	-40(%ebp)
	pushl	-36(%ebp)
	pushl	$5
	call	Barray
	addl	$12,	%esp
	popl	%edi
	popl	%esi
	popl	%ecx
	popl	%ebx
	movl	%eax,	-36(%ebp)
# STRING ("!!") / 

	movl	$string_12,	-40(%ebp)
	pushl	%ebx
	pushl	%ecx
	pushl	%esi
	pushl	%edi
	pushl	-40(%ebp)
	call	Bstring
	addl	$4,	%esp
	popl	%edi
	popl	%esi
	popl	%ecx
	popl	%ebx
	movl	%eax,	-40(%ebp)
# LINE (21) / 

	.stabn 68,0,21,.L13-initExpr

.L13:

# CLOSURE ("Ls__Infix_3333", []) / 

	pushl	%ebx
	pushl	%ecx
	pushl	%esi
	pushl	%edi
	pushl	$Ls__Infix_3333
	pushl	$1
	call	Bclosure
	addl	$8,	%esp
	movl	%eax,	-44(%ebp)
	popl	%edi
	popl	%esi
	popl	%ecx
	popl	%ebx
# CALL (".array", 2, false) / 

	pushl	%ebx
	pushl	%ecx
	pushl	%esi
	pushl	%edi
	pushl	-44(%ebp)
	pushl	-40(%ebp)
	pushl	$5
	call	Barray
	addl	$12,	%esp
	popl	%edi
	popl	%esi
	popl	%ecx
	popl	%ebx
	movl	%eax,	-40(%ebp)
# CONST (0) / 

	movl	$1,	-44(%ebp)
# SEXP ("cons", 2) / 

	movl	$1697575,	-48(%ebp)
	pushl	%ebx
	pushl	%ecx
	pushl	%esi
	pushl	%edi
	pushl	-48(%ebp)
	pushl	-44(%ebp)
	pushl	-40(%ebp)
	pushl	$7
	call	Bsexp
	addl	$16,	%esp
	popl	%edi
	popl	%esi
	popl	%ecx
	popl	%ebx
	movl	%eax,	-40(%ebp)
# SEXP ("cons", 2) / 

	movl	$1697575,	-44(%ebp)
	pushl	%ebx
	pushl	%ecx
	pushl	%esi
	pushl	%edi
	pushl	-44(%ebp)
	pushl	-40(%ebp)
	pushl	-36(%ebp)
	pushl	$7
	call	Bsexp
	addl	$16,	%esp
	popl	%edi
	popl	%esi
	popl	%ecx
	popl	%ebx
	movl	%eax,	-36(%ebp)
# SEXP ("cons", 2) / 

	movl	$1697575,	-40(%ebp)
	pushl	%ebx
	pushl	%ecx
	pushl	%esi
	pushl	%edi
	pushl	-40(%ebp)
	pushl	-36(%ebp)
	pushl	-32(%ebp)
	pushl	$7
	call	Bsexp
	addl	$16,	%esp
	popl	%edi
	popl	%esi
	popl	%ecx
	popl	%ebx
	movl	%eax,	-32(%ebp)
# SEXP ("cons", 2) / 

	movl	$1697575,	-36(%ebp)
	pushl	%ebx
	pushl	%ecx
	pushl	%esi
	pushl	%edi
	pushl	-36(%ebp)
	pushl	-32(%ebp)
	pushl	-28(%ebp)
	pushl	$7
	call	Bsexp
	addl	$16,	%esp
	popl	%edi
	popl	%esi
	popl	%ecx
	popl	%ebx
	movl	%eax,	-28(%ebp)
# SEXP ("cons", 2) / 

	movl	$1697575,	-32(%ebp)
	pushl	%ebx
	pushl	%ecx
	pushl	%esi
	pushl	%edi
	pushl	-32(%ebp)
	pushl	-28(%ebp)
	pushl	-24(%ebp)
	pushl	$7
	call	Bsexp
	addl	$16,	%esp
	popl	%edi
	popl	%esi
	popl	%ecx
	popl	%ebx
	movl	%eax,	-24(%ebp)
# SEXP ("cons", 2) / 

	movl	$1697575,	-28(%ebp)
	pushl	%ebx
	pushl	%ecx
	pushl	%esi
	pushl	%edi
	pushl	-28(%ebp)
	pushl	-24(%ebp)
	pushl	-20(%ebp)
	pushl	$7
	call	Bsexp
	addl	$16,	%esp
	popl	%edi
	popl	%esi
	popl	%ecx
	popl	%ebx
	movl	%eax,	-20(%ebp)
# SEXP ("cons", 2) / 

	movl	$1697575,	-24(%ebp)
	pushl	%ebx
	pushl	%ecx
	pushl	%esi
	pushl	%edi
	pushl	-24(%ebp)
	pushl	-20(%ebp)
	pushl	-16(%ebp)
	pushl	$7
	call	Bsexp
	addl	$16,	%esp
	popl	%edi
	popl	%esi
	popl	%ecx
	popl	%ebx
	movl	%eax,	-16(%ebp)
# SEXP ("cons", 2) / 

	movl	$1697575,	-20(%ebp)
	pushl	%ebx
	pushl	%ecx
	pushl	%esi
	pushl	%edi
	pushl	-20(%ebp)
	pushl	-16(%ebp)
	pushl	-12(%ebp)
	pushl	$7
	call	Bsexp
	addl	$16,	%esp
	popl	%edi
	popl	%esi
	popl	%ecx
	popl	%ebx
	movl	%eax,	-12(%ebp)
# SEXP ("cons", 2) / 

	movl	$1697575,	-16(%ebp)
	pushl	%ebx
	pushl	%ecx
	pushl	%esi
	pushl	%edi
	pushl	-16(%ebp)
	pushl	-12(%ebp)
	pushl	-8(%ebp)
	pushl	$7
	call	Bsexp
	addl	$16,	%esp
	popl	%edi
	popl	%esi
	popl	%ecx
	popl	%ebx
	movl	%eax,	-8(%ebp)
# SEXP ("cons", 2) / 

	movl	$1697575,	-12(%ebp)
	pushl	%ebx
	pushl	%ecx
	pushl	%esi
	pushl	%edi
	pushl	-12(%ebp)
	pushl	-8(%ebp)
	pushl	-4(%ebp)
	pushl	$7
	call	Bsexp
	addl	$16,	%esp
	popl	%edi
	popl	%esi
	popl	%ecx
	popl	%ebx
	movl	%eax,	-4(%ebp)
# SEXP ("cons", 2) / 

	movl	$1697575,	-8(%ebp)
	pushl	%ebx
	pushl	%ecx
	pushl	%esi
	pushl	-8(%ebp)
	pushl	-4(%ebp)
	pushl	%edi
	pushl	$7
	call	Bsexp
	addl	$16,	%esp
	popl	%esi
	popl	%ecx
	popl	%ebx
	movl	%eax,	%edi
# SEXP ("cons", 2) / 

	movl	$1697575,	-4(%ebp)
	pushl	%ebx
	pushl	%ecx
	pushl	-4(%ebp)
	pushl	%edi
	pushl	%esi
	pushl	$7
	call	Bsexp
	addl	$16,	%esp
	popl	%ecx
	popl	%ebx
	movl	%eax,	%esi
# SEXP ("cons", 2) / 

	movl	$1697575,	%edi
	pushl	%ebx
	pushl	%edi
	pushl	%esi
	pushl	%ecx
	pushl	$7
	call	Bsexp
	addl	$16,	%esp
	popl	%ebx
	movl	%eax,	%ecx
# STI / 

	movl	%ecx,	%eax
	movl	%eax,	(%ebx)
	movl	%eax,	%ebx
# DROP / 

# CONST (0) / 

	movl	$1,	%ebx
# SLABEL ("L2") / 

L2:

# END / 

	movl	%ebx,	%eax
LinitExpr_epilogue:

	movl	%ebp,	%esp
	popl	%ebp
	.cfi_restore	5

	.cfi_def_cfa	4, 4

	ret
	.cfi_endproc

	.set	LinitExpr_SIZE,	48

	.set	LSinitExpr_SIZE,	12

	.size initExpr, .-initExpr

# LABEL ("LevalExpr") / 

LevalExpr:

# BEGIN ("LevalExpr", 2, 1, [], ["input"; "expr"], [{ blab="L60"; elab="L61"; names=[]; subs=[{ blab="L63"; elab="L64"; names=[]; subs=[{ blab="L74"; elab="L75"; names=[("c", 0)]; subs=[{ blab="L76"; elab="L77"; names=[]; subs=[]; }]; }]; }]; }]) / 

	.type evalExpr, @function

	.stabs "evalExpr:F1",36,0,0,LevalExpr

	.stabs "input:p1",160,0,0,8

	.stabs "expr:p1",160,0,0,12

	.stabs "c:1",128,0,0,-4

	.stabn 192,0,0,L74-LevalExpr

	.stabn 224,0,0,L75-LevalExpr

	.cfi_startproc

	.cfi_adjust_cfa_offset	4

	pushl	%ebp
	.cfi_adjust_cfa_offset	4

	movl	%esp,	%ebp
	.cfi_def_cfa_register	5

	subl	$LLevalExpr_SIZE,	%esp
	movl	%esp,	%edi
	movl	$filler,	%esi
	movl	$LSLevalExpr_SIZE,	%ecx
	rep movsl	
# SLABEL ("L60") / 

L60:

# SLABEL ("L63") / 

L63:

# LINE (105) / 

	.stabn 68,0,105,0

	.stabn 68,0,105,.L14-LevalExpr

.L14:

# CLOSURE ("LemptyState", []) / 

	pushl	$LemptyState
	pushl	$1
	call	Bclosure
	addl	$8,	%esp
	movl	%eax,	%ebx
# LD (Arg (0)) / 

	movl	8(%ebp),	%ecx
# CALL ("LcreateWorld", 1, false) / 

	pushl	%ebx
	pushl	%ecx
	call	LcreateWorld
	addl	$4,	%esp
	popl	%ebx
	movl	%eax,	%ecx
# CALL (".array", 2, false) / 

	pushl	%ecx
	pushl	%ebx
	pushl	$5
	call	Barray
	addl	$12,	%esp
	movl	%eax,	%ebx
# LD (Arg (1)) / 

	movl	12(%ebp),	%ecx
# CALL ("Leval", 2, false) / 

	pushl	%ecx
	pushl	%ebx
	call	Leval
	addl	$8,	%esp
	movl	%eax,	%ebx
# DUP / 

	movl	%ebx,	%ecx
# SLABEL ("L74") / 

L74:

# DUP / 

	movl	%ecx,	%esi
# ARRAY (2) / 

	movl	$5,	%edi
	pushl	%ebx
	pushl	%ecx
	pushl	%edi
	pushl	%esi
	call	Barray_patt
	addl	$8,	%esp
	popl	%ecx
	popl	%ebx
	movl	%eax,	%esi
# CJMP ("nz", "L72") / 

	sarl	%esi
	cmpl	$0,	%esi
	jnz	L72
# LABEL ("L73") / 

L73:

# DROP / 

# JMP ("L65") / 

	jmp	L65
# LABEL ("L72") / 

L72:

# DUP / 

	movl	%ecx,	%esi
# CONST (0) / 

	movl	$1,	%edi
# CALL (".elem", 2, false) / 

	pushl	%ebx
	pushl	%ecx
	pushl	%edi
	pushl	%esi
	call	Belem
	addl	$8,	%esp
	popl	%ecx
	popl	%ebx
	movl	%eax,	%esi
# DROP / 

# DUP / 

	movl	%ecx,	%esi
# CONST (1) / 

	movl	$3,	%edi
# CALL (".elem", 2, false) / 

	pushl	%ebx
	pushl	%ecx
	pushl	%edi
	pushl	%esi
	call	Belem
	addl	$8,	%esp
	popl	%ecx
	popl	%ebx
	movl	%eax,	%esi
# DROP / 

# DROP / 

# DUP / 

	movl	%ebx,	%ecx
# CONST (0) / 

	movl	$1,	%esi
# CALL (".elem", 2, false) / 

	pushl	%ebx
	pushl	%esi
	pushl	%ecx
	call	Belem
	addl	$8,	%esp
	popl	%ebx
	movl	%eax,	%ecx
# ST (Local (0)) / 

	movl	%ecx,	-4(%ebp)
# DROP / 

# DROP / 

# SLABEL ("L76") / 

L76:

# LINE (106) / 

	.stabn 68,0,106,.L15-LevalExpr

.L15:

# LD (Local (0)) / 

	movl	-4(%ebp),	%ebx
# CALL ("Lsnd", 1, false) / 

	pushl	%ebx
	call	Lsnd
	addl	$4,	%esp
	movl	%eax,	%ebx
# CALL ("LgetOutput", 1, true) / 

	pushl	%ebx
	call	LgetOutput
	addl	$4,	%esp
	movl	%eax,	%ebx
# SLABEL ("L77") / 

L77:

# SLABEL ("L75") / 

L75:

# JMP ("L62") / 

	jmp	L62
# LABEL ("L65") / 

L65:

# FAIL ((105, 8), true) / 

	pushl	$17
	pushl	$211
	pushl	$string_13
	pushl	%ebx
	call	Bmatch_failure
	addl	$12,	%esp
# JMP ("L62") / 

	jmp	L62
# SLABEL ("L64") / 

L64:

# LABEL ("L62") / 

L62:

# SLABEL ("L61") / 

L61:

# END / 

	movl	%ebx,	%eax
LLevalExpr_epilogue:

	movl	%ebp,	%esp
	popl	%ebp
	.cfi_restore	5

	.cfi_def_cfa	4, 4

	ret
	.cfi_endproc

	.set	LLevalExpr_SIZE,	4

	.set	LSLevalExpr_SIZE,	1

	.size LevalExpr, .-LevalExpr

# LABEL ("Leval") / 

Leval:

# BEGIN ("Leval", 2, 10, [], ["__tmp2"; "expr"], [{ blab="L80"; elab="L81"; names=[]; subs=[{ blab="L87"; elab="L88"; names=[("c", 2); ("s", 1); ("w", 0)]; subs=[{ blab="L89"; elab="L90"; names=[]; subs=[{ blab="L366"; elab="L367"; names=[("e", 3)]; subs=[{ blab="L368"; elab="L369"; names=[]; subs=[]; }]; }; { blab="L333"; elab="L334"; names=[("st", 4); ("e", 3)]; subs=[{ blab="L335"; elab="L336"; names=[]; subs=[{ blab="L347"; elab="L348"; names=[("c", 6); ("v", 5)]; subs=[{ blab="L349"; elab="L350"; names=[]; subs=[{ blab="L358"; elab="L359"; names=[]; subs=[]; }; { blab="L353"; elab="L354"; names=[]; subs=[]; }]; }]; }]; }]; }; { blab="L299"; elab="L300"; names=[("e", 4); ("st", 3)]; subs=[{ blab="L301"; elab="L302"; names=[]; subs=[{ blab="L309"; elab="L310"; names=[("c", 6); ("v", 5)]; subs=[{ blab="L311"; elab="L312"; names=[]; subs=[{ blab="L325"; elab="L326"; names=[]; subs=[]; }; { blab="L315"; elab="L316"; names=[]; subs=[]; }]; }]; }]; }]; }; { blab="L274"; elab="L275"; names=[("e", 5); ("s1", 4); ("s2", 3)]; subs=[{ blab="L276"; elab="L277"; names=[]; subs=[{ blab="L284"; elab="L285"; names=[("c", 7); ("v", 6)]; subs=[{ blab="L286"; elab="L287"; names=[]; subs=[{ blab="L294"; elab="L295"; names=[]; subs=[]; }; { blab="L292"; elab="L293"; names=[]; subs=[]; }]; }]; }]; }]; }; { blab="L261"; elab="L262"; names=[("s1", 4); ("s2", 3)]; subs=[{ blab="L263"; elab="L264"; names=[]; subs=[]; }]; }; { blab="L231"; elab="L232"; names=[("expr", 3)]; subs=[{ blab="L233"; elab="L234"; names=[]; subs=[{ blab="L245"; elab="L246"; names=[("s", 7); ("i", 6); ("o", 5); ("v", 4)]; subs=[{ blab="L247"; elab="L248"; names=[]; subs=[]; }]; }]; }]; }; { blab="L203"; elab="L204"; names=[("x", 3)]; subs=[{ blab="L205"; elab="L206"; names=[]; subs=[{ blab="L213"; elab="L214"; names=[("z", 6); ("it", 5); ("o", 4)]; subs=[{ blab="L215"; elab="L216"; names=[]; subs=[]; }]; }]; }]; }; { blab="L166"; elab="L167"; names=[("l", 4); ("r", 3)]; subs=[{ blab="L168"; elab="L169"; names=[]; subs=[{ blab="L188"; elab="L189"; names=[("c", 9); ("s", 8); ("w", 7); ("x", 6); ("v", 5)]; subs=[{ blab="L190"; elab="L191"; names=[]; subs=[]; }]; }]; }]; }; { blab="L156"; elab="L157"; names=[]; subs=[{ blab="L158"; elab="L159"; names=[]; subs=[]; }]; }; { blab="L126"; elab="L127"; names=[("op", 5); ("l", 4); ("r", 3)]; subs=[{ blab="L128"; elab="L129"; names=[]; subs=[{ blab="L144"; elab="L145"; names=[("c", 8); ("v", 7); ("w", 6)]; subs=[{ blab="L146"; elab="L147"; names=[]; subs=[]; }]; }]; }]; }; { blab="L116"; elab="L117"; names=[("x", 3)]; subs=[{ blab="L118"; elab="L119"; names=[]; subs=[]; }]; }; { blab="L105"; elab="L106"; names=[("x", 3)]; subs=[{ blab="L107"; elab="L108"; names=[]; subs=[]; }]; }; { blab="L96"; elab="L97"; names=[("z", 3)]; subs=[{ blab="L98"; elab="L99"; names=[]; subs=[]; }]; }]; }]; }]; }]) / 

	.type eval, @function

	.stabs "eval:F1",36,0,0,Leval

	.stabs "__tmp2:p1",160,0,0,8

	.stabs "expr:p1",160,0,0,12

	.stabs "c:1",128,0,0,-12

	.stabs "s:1",128,0,0,-8

	.stabs "w:1",128,0,0,-4

	.stabn 192,0,0,L87-Leval

	.stabs "e:1",128,0,0,-16

	.stabn 192,0,0,L366-Leval

	.stabn 224,0,0,L367-Leval

	.stabs "st:1",128,0,0,-20

	.stabs "e:1",128,0,0,-16

	.stabn 192,0,0,L333-Leval

	.stabs "c:1",128,0,0,-28

	.stabs "v:1",128,0,0,-24

	.stabn 192,0,0,L347-Leval

	.stabn 224,0,0,L348-Leval

	.stabn 224,0,0,L334-Leval

	.stabs "e:1",128,0,0,-20

	.stabs "st:1",128,0,0,-16

	.stabn 192,0,0,L299-Leval

	.stabs "c:1",128,0,0,-28

	.stabs "v:1",128,0,0,-24

	.stabn 192,0,0,L309-Leval

	.stabn 224,0,0,L310-Leval

	.stabn 224,0,0,L300-Leval

	.stabs "e:1",128,0,0,-24

	.stabs "s1:1",128,0,0,-20

	.stabs "s2:1",128,0,0,-16

	.stabn 192,0,0,L274-Leval

	.stabs "c:1",128,0,0,-32

	.stabs "v:1",128,0,0,-28

	.stabn 192,0,0,L284-Leval

	.stabn 224,0,0,L285-Leval

	.stabn 224,0,0,L275-Leval

	.stabs "s1:1",128,0,0,-20

	.stabs "s2:1",128,0,0,-16

	.stabn 192,0,0,L261-Leval

	.stabn 224,0,0,L262-Leval

	.stabs "expr:1",128,0,0,-16

	.stabn 192,0,0,L231-Leval

	.stabs "s:1",128,0,0,-32

	.stabs "i:1",128,0,0,-28

	.stabs "o:1",128,0,0,-24

	.stabs "v:1",128,0,0,-20

	.stabn 192,0,0,L245-Leval

	.stabn 224,0,0,L246-Leval

	.stabn 224,0,0,L232-Leval

	.stabs "x:1",128,0,0,-16

	.stabn 192,0,0,L203-Leval

	.stabs "z:1",128,0,0,-28

	.stabs "it:1",128,0,0,-24

	.stabs "o:1",128,0,0,-20

	.stabn 192,0,0,L213-Leval

	.stabn 224,0,0,L214-Leval

	.stabn 224,0,0,L204-Leval

	.stabs "l:1",128,0,0,-20

	.stabs "r:1",128,0,0,-16

	.stabn 192,0,0,L166-Leval

	.stabs "c:1",128,0,0,-40

	.stabs "s:1",128,0,0,-36

	.stabs "w:1",128,0,0,-32

	.stabs "x:1",128,0,0,-28

	.stabs "v:1",128,0,0,-24

	.stabn 192,0,0,L188-Leval

	.stabn 224,0,0,L189-Leval

	.stabn 224,0,0,L167-Leval

	.stabs "op:1",128,0,0,-24

	.stabs "l:1",128,0,0,-20

	.stabs "r:1",128,0,0,-16

	.stabn 192,0,0,L126-Leval

	.stabs "c:1",128,0,0,-36

	.stabs "v:1",128,0,0,-32

	.stabs "w:1",128,0,0,-28

	.stabn 192,0,0,L144-Leval

	.stabn 224,0,0,L145-Leval

	.stabn 224,0,0,L127-Leval

	.stabs "x:1",128,0,0,-16

	.stabn 192,0,0,L116-Leval

	.stabn 224,0,0,L117-Leval

	.stabs "x:1",128,0,0,-16

	.stabn 192,0,0,L105-Leval

	.stabn 224,0,0,L106-Leval

	.stabs "z:1",128,0,0,-16

	.stabn 192,0,0,L96-Leval

	.stabn 224,0,0,L97-Leval

	.stabn 224,0,0,L88-Leval

	.cfi_startproc

	.cfi_adjust_cfa_offset	4

	pushl	%ebp
	.cfi_adjust_cfa_offset	4

	movl	%esp,	%ebp
	.cfi_def_cfa_register	5

	subl	$LLeval_SIZE,	%esp
	movl	%esp,	%edi
	movl	$filler,	%esi
	movl	$LSLeval_SIZE,	%ecx
	rep movsl	
# SLABEL ("L80") / 

L80:

# LD (Arg (0)) / 

	movl	8(%ebp),	%ebx
# DUP / 

	movl	%ebx,	%ecx
# SLABEL ("L87") / 

L87:

# DUP / 

	movl	%ecx,	%esi
# ARRAY (2) / 

	movl	$5,	%edi
	pushl	%ebx
	pushl	%ecx
	pushl	%edi
	pushl	%esi
	call	Barray_patt
	addl	$8,	%esp
	popl	%ecx
	popl	%ebx
	movl	%eax,	%esi
# CJMP ("nz", "L85") / 

	sarl	%esi
	cmpl	$0,	%esi
	jnz	L85
# LABEL ("L86") / 

L86:

# DROP / 

# JMP ("L83") / 

	jmp	L83
# LABEL ("L85") / 

L85:

# DUP / 

	movl	%ecx,	%esi
# CONST (0) / 

	movl	$1,	%edi
# CALL (".elem", 2, false) / 

	pushl	%ebx
	pushl	%ecx
	pushl	%edi
	pushl	%esi
	call	Belem
	addl	$8,	%esp
	popl	%ecx
	popl	%ebx
	movl	%eax,	%esi
# DROP / 

# DUP / 

	movl	%ecx,	%esi
# CONST (1) / 

	movl	$3,	%edi
# CALL (".elem", 2, false) / 

	pushl	%ebx
	pushl	%ecx
	pushl	%edi
	pushl	%esi
	call	Belem
	addl	$8,	%esp
	popl	%ecx
	popl	%ebx
	movl	%eax,	%esi
# DROP / 

# DROP / 

# DUP / 

	movl	%ebx,	%ecx
# ST (Local (2)) / 

	movl	%ecx,	-12(%ebp)
# DROP / 

# DUP / 

	movl	%ebx,	%ecx
# CONST (0) / 

	movl	$1,	%esi
# CALL (".elem", 2, false) / 

	pushl	%ebx
	pushl	%esi
	pushl	%ecx
	call	Belem
	addl	$8,	%esp
	popl	%ebx
	movl	%eax,	%ecx
# ST (Local (1)) / 

	movl	%ecx,	-8(%ebp)
# DROP / 

# DUP / 

	movl	%ebx,	%ecx
# CONST (1) / 

	movl	$3,	%esi
# CALL (".elem", 2, false) / 

	pushl	%ebx
	pushl	%esi
	pushl	%ecx
	call	Belem
	addl	$8,	%esp
	popl	%ebx
	movl	%eax,	%ecx
# ST (Local (0)) / 

	movl	%ecx,	-4(%ebp)
# DROP / 

# DROP / 

# SLABEL ("L89") / 

L89:

# LINE (67) / 

	.stabn 68,0,67,0

	.stabn 68,0,67,.L16-Leval

.L16:

# LD (Arg (1)) / 

	movl	12(%ebp),	%ebx
# DUP / 

	movl	%ebx,	%ecx
# SLABEL ("L96") / 

L96:

# DUP / 

	movl	%ecx,	%esi
# TAG ("Const", 1) / 

	movl	$981060009,	%edi
	movl	$3,	-44(%ebp)
	pushl	%ebx
	pushl	%ecx
	pushl	-44(%ebp)
	pushl	%edi
	pushl	%esi
	call	Btag
	addl	$12,	%esp
	popl	%ecx
	popl	%ebx
	movl	%eax,	%esi
# CJMP ("nz", "L94") / 

	sarl	%esi
	cmpl	$0,	%esi
	jnz	L94
# LABEL ("L95") / 

L95:

# DROP / 

# JMP ("L93") / 

	jmp	L93
# LABEL ("L94") / 

L94:

# DUP / 

	movl	%ecx,	%esi
# CONST (0) / 

	movl	$1,	%edi
# CALL (".elem", 2, false) / 

	pushl	%ebx
	pushl	%ecx
	pushl	%edi
	pushl	%esi
	call	Belem
	addl	$8,	%esp
	popl	%ecx
	popl	%ebx
	movl	%eax,	%esi
# DROP / 

# DROP / 

# DUP / 

	movl	%ebx,	%ecx
# CONST (0) / 

	movl	$1,	%esi
# CALL (".elem", 2, false) / 

	pushl	%ebx
	pushl	%esi
	pushl	%ecx
	call	Belem
	addl	$8,	%esp
	popl	%ebx
	movl	%eax,	%ecx
# ST (Local (3)) / 

	movl	%ecx,	-16(%ebp)
# DROP / 

# DROP / 

# SLABEL ("L98") / 

L98:

# LINE (68) / 

	.stabn 68,0,68,.L17-Leval

.L17:

# LD (Local (2)) / 

	movl	-12(%ebp),	%ebx
# LD (Local (3)) / 

	movl	-16(%ebp),	%ecx
# CALL (".array", 2, true) / 

	pushl	%ecx
	pushl	%ebx
	pushl	$5
	call	Barray
	addl	$12,	%esp
	movl	%eax,	%ebx
# SLABEL ("L99") / 

L99:

# JMP ("L82") / 

	jmp	L82
# SLABEL ("L97") / 

L97:

# SLABEL ("L105") / 

L105:

# LABEL ("L93") / 

L93:

# DUP / 

	movl	%ebx,	%ecx
# DUP / 

	movl	%ecx,	%esi
# TAG ("Var", 1) / 

	movl	$393381,	%edi
	movl	$3,	-44(%ebp)
	pushl	%ebx
	pushl	%ecx
	pushl	-44(%ebp)
	pushl	%edi
	pushl	%esi
	call	Btag
	addl	$12,	%esp
	popl	%ecx
	popl	%ebx
	movl	%eax,	%esi
# CJMP ("nz", "L103") / 

	sarl	%esi
	cmpl	$0,	%esi
	jnz	L103
# LABEL ("L104") / 

L104:

# DROP / 

# JMP ("L102") / 

	jmp	L102
# LABEL ("L103") / 

L103:

# DUP / 

	movl	%ecx,	%esi
# CONST (0) / 

	movl	$1,	%edi
# CALL (".elem", 2, false) / 

	pushl	%ebx
	pushl	%ecx
	pushl	%edi
	pushl	%esi
	call	Belem
	addl	$8,	%esp
	popl	%ecx
	popl	%ebx
	movl	%eax,	%esi
# DROP / 

# DROP / 

# DUP / 

	movl	%ebx,	%ecx
# CONST (0) / 

	movl	$1,	%esi
# CALL (".elem", 2, false) / 

	pushl	%ebx
	pushl	%esi
	pushl	%ecx
	call	Belem
	addl	$8,	%esp
	popl	%ebx
	movl	%eax,	%ecx
# ST (Local (3)) / 

	movl	%ecx,	-16(%ebp)
# DROP / 

# DROP / 

# SLABEL ("L107") / 

L107:

# LINE (69) / 

	.stabn 68,0,69,.L18-Leval

.L18:

# LD (Local (2)) / 

	movl	-12(%ebp),	%ebx
# LD (Local (1)) / 

	movl	-8(%ebp),	%ecx
# LD (Local (3)) / 

	movl	-16(%ebp),	%esi
# CALLC (1, false) / 

	pushl	%ebx
	pushl	%ecx
	pushl	%esi
	movl	%ecx,	%edx
	call	*(%ecx)
	addl	$4,	%esp
	popl	%ecx
	popl	%ebx
	movl	%eax,	%ecx
# CALL (".array", 2, true) / 

	pushl	%ecx
	pushl	%ebx
	pushl	$5
	call	Barray
	addl	$12,	%esp
	movl	%eax,	%ebx
# SLABEL ("L108") / 

L108:

# JMP ("L82") / 

	jmp	L82
# SLABEL ("L106") / 

L106:

# SLABEL ("L116") / 

L116:

# LABEL ("L102") / 

L102:

# DUP / 

	movl	%ebx,	%ecx
# DUP / 

	movl	%ecx,	%esi
# TAG ("Ref", 1) / 

	movl	$361101,	%edi
	movl	$3,	-44(%ebp)
	pushl	%ebx
	pushl	%ecx
	pushl	-44(%ebp)
	pushl	%edi
	pushl	%esi
	call	Btag
	addl	$12,	%esp
	popl	%ecx
	popl	%ebx
	movl	%eax,	%esi
# CJMP ("nz", "L114") / 

	sarl	%esi
	cmpl	$0,	%esi
	jnz	L114
# LABEL ("L115") / 

L115:

# DROP / 

# JMP ("L113") / 

	jmp	L113
# LABEL ("L114") / 

L114:

# DUP / 

	movl	%ecx,	%esi
# CONST (0) / 

	movl	$1,	%edi
# CALL (".elem", 2, false) / 

	pushl	%ebx
	pushl	%ecx
	pushl	%edi
	pushl	%esi
	call	Belem
	addl	$8,	%esp
	popl	%ecx
	popl	%ebx
	movl	%eax,	%esi
# DROP / 

# DROP / 

# DUP / 

	movl	%ebx,	%ecx
# CONST (0) / 

	movl	$1,	%esi
# CALL (".elem", 2, false) / 

	pushl	%ebx
	pushl	%esi
	pushl	%ecx
	call	Belem
	addl	$8,	%esp
	popl	%ebx
	movl	%eax,	%ecx
# ST (Local (3)) / 

	movl	%ecx,	-16(%ebp)
# DROP / 

# DROP / 

# SLABEL ("L118") / 

L118:

# LINE (70) / 

	.stabn 68,0,70,.L19-Leval

.L19:

# LD (Local (2)) / 

	movl	-12(%ebp),	%ebx
# LD (Local (3)) / 

	movl	-16(%ebp),	%ecx
# SEXP ("Ref", 1) / 

	movl	$361101,	%esi
	pushl	%ebx
	pushl	%esi
	pushl	%ecx
	pushl	$5
	call	Bsexp
	addl	$12,	%esp
	popl	%ebx
	movl	%eax,	%ecx
# CALL (".array", 2, true) / 

	pushl	%ecx
	pushl	%ebx
	pushl	$5
	call	Barray
	addl	$12,	%esp
	movl	%eax,	%ebx
# SLABEL ("L119") / 

L119:

# JMP ("L82") / 

	jmp	L82
# SLABEL ("L117") / 

L117:

# SLABEL ("L126") / 

L126:

# LABEL ("L113") / 

L113:

# DUP / 

	movl	%ebx,	%ecx
# DUP / 

	movl	%ecx,	%esi
# TAG ("Binop", 3) / 

	movl	$944359329,	%edi
	movl	$7,	-44(%ebp)
	pushl	%ebx
	pushl	%ecx
	pushl	-44(%ebp)
	pushl	%edi
	pushl	%esi
	call	Btag
	addl	$12,	%esp
	popl	%ecx
	popl	%ebx
	movl	%eax,	%esi
# CJMP ("nz", "L124") / 

	sarl	%esi
	cmpl	$0,	%esi
	jnz	L124
# LABEL ("L125") / 

L125:

# DROP / 

# JMP ("L123") / 

	jmp	L123
# LABEL ("L124") / 

L124:

# DUP / 

	movl	%ecx,	%esi
# CONST (0) / 

	movl	$1,	%edi
# CALL (".elem", 2, false) / 

	pushl	%ebx
	pushl	%ecx
	pushl	%edi
	pushl	%esi
	call	Belem
	addl	$8,	%esp
	popl	%ecx
	popl	%ebx
	movl	%eax,	%esi
# DROP / 

# DUP / 

	movl	%ecx,	%esi
# CONST (1) / 

	movl	$3,	%edi
# CALL (".elem", 2, false) / 

	pushl	%ebx
	pushl	%ecx
	pushl	%edi
	pushl	%esi
	call	Belem
	addl	$8,	%esp
	popl	%ecx
	popl	%ebx
	movl	%eax,	%esi
# DROP / 

# DUP / 

	movl	%ecx,	%esi
# CONST (2) / 

	movl	$5,	%edi
# CALL (".elem", 2, false) / 

	pushl	%ebx
	pushl	%ecx
	pushl	%edi
	pushl	%esi
	call	Belem
	addl	$8,	%esp
	popl	%ecx
	popl	%ebx
	movl	%eax,	%esi
# DROP / 

# DROP / 

# DUP / 

	movl	%ebx,	%ecx
# CONST (0) / 

	movl	$1,	%esi
# CALL (".elem", 2, false) / 

	pushl	%ebx
	pushl	%esi
	pushl	%ecx
	call	Belem
	addl	$8,	%esp
	popl	%ebx
	movl	%eax,	%ecx
# ST (Local (5)) / 

	movl	%ecx,	-24(%ebp)
# DROP / 

# DUP / 

	movl	%ebx,	%ecx
# CONST (1) / 

	movl	$3,	%esi
# CALL (".elem", 2, false) / 

	pushl	%ebx
	pushl	%esi
	pushl	%ecx
	call	Belem
	addl	$8,	%esp
	popl	%ebx
	movl	%eax,	%ecx
# ST (Local (4)) / 

	movl	%ecx,	-20(%ebp)
# DROP / 

# DUP / 

	movl	%ebx,	%ecx
# CONST (2) / 

	movl	$5,	%esi
# CALL (".elem", 2, false) / 

	pushl	%ebx
	pushl	%esi
	pushl	%ecx
	call	Belem
	addl	$8,	%esp
	popl	%ebx
	movl	%eax,	%ecx
# ST (Local (3)) / 

	movl	%ecx,	-16(%ebp)
# DROP / 

# DROP / 

# SLABEL ("L128") / 

L128:

# LINE (72) / 

	.stabn 68,0,72,.L20-Leval

.L20:

# LD (Local (2)) / 

	movl	-12(%ebp),	%ebx
# LD (Local (4)) / 

	movl	-20(%ebp),	%ecx
# LD (Local (3)) / 

	movl	-16(%ebp),	%esi
# CONST (0) / 

	movl	$1,	%edi
# SEXP ("cons", 2) / 

	movl	$1697575,	-44(%ebp)
	pushl	%ebx
	pushl	%ecx
	pushl	-44(%ebp)
	pushl	%edi
	pushl	%esi
	pushl	$7
	call	Bsexp
	addl	$16,	%esp
	popl	%ecx
	popl	%ebx
	movl	%eax,	%esi
# SEXP ("cons", 2) / 

	movl	$1697575,	%edi
	pushl	%ebx
	pushl	%edi
	pushl	%esi
	pushl	%ecx
	pushl	$7
	call	Bsexp
	addl	$16,	%esp
	popl	%ebx
	movl	%eax,	%ecx
# CALL ("LevalList", 2, false) / 

	pushl	%ecx
	pushl	%ebx
	call	LevalList
	addl	$8,	%esp
	movl	%eax,	%ebx
# DUP / 

	movl	%ebx,	%ecx
# SLABEL ("L144") / 

L144:

# DUP / 

	movl	%ecx,	%esi
# ARRAY (2) / 

	movl	$5,	%edi
	pushl	%ebx
	pushl	%ecx
	pushl	%edi
	pushl	%esi
	call	Barray_patt
	addl	$8,	%esp
	popl	%ecx
	popl	%ebx
	movl	%eax,	%esi
# CJMP ("nz", "L138") / 

	sarl	%esi
	cmpl	$0,	%esi
	jnz	L138
# LABEL ("L139") / 

L139:

# DROP / 

# JMP ("L130") / 

	jmp	L130
# LABEL ("L138") / 

L138:

# DUP / 

	movl	%ecx,	%esi
# CONST (0) / 

	movl	$1,	%edi
# CALL (".elem", 2, false) / 

	pushl	%ebx
	pushl	%ecx
	pushl	%edi
	pushl	%esi
	call	Belem
	addl	$8,	%esp
	popl	%ecx
	popl	%ebx
	movl	%eax,	%esi
# DROP / 

# DUP / 

	movl	%ecx,	%esi
# CONST (1) / 

	movl	$3,	%edi
# CALL (".elem", 2, false) / 

	pushl	%ebx
	pushl	%ecx
	pushl	%edi
	pushl	%esi
	call	Belem
	addl	$8,	%esp
	popl	%ecx
	popl	%ebx
	movl	%eax,	%esi
# DUP / 

	movl	%esi,	%edi
# TAG ("cons", 2) / 

	movl	$1697575,	-44(%ebp)
	movl	$5,	-48(%ebp)
	pushl	%ebx
	pushl	%ecx
	pushl	%esi
	pushl	-48(%ebp)
	pushl	-44(%ebp)
	pushl	%edi
	call	Btag
	addl	$12,	%esp
	popl	%esi
	popl	%ecx
	popl	%ebx
	movl	%eax,	%edi
# CJMP ("nz", "L140") / 

	sarl	%edi
	cmpl	$0,	%edi
	jnz	L140
# LABEL ("L141") / 

L141:

# DROP / 

# JMP ("L139") / 

	jmp	L139
# LABEL ("L140") / 

L140:

# DUP / 

	movl	%esi,	%edi
# CONST (0) / 

	movl	$1,	-44(%ebp)
# CALL (".elem", 2, false) / 

	pushl	%ebx
	pushl	%ecx
	pushl	%esi
	pushl	-44(%ebp)
	pushl	%edi
	call	Belem
	addl	$8,	%esp
	popl	%esi
	popl	%ecx
	popl	%ebx
	movl	%eax,	%edi
# DROP / 

# DUP / 

	movl	%esi,	%edi
# CONST (1) / 

	movl	$3,	-44(%ebp)
# CALL (".elem", 2, false) / 

	pushl	%ebx
	pushl	%ecx
	pushl	%esi
	pushl	-44(%ebp)
	pushl	%edi
	call	Belem
	addl	$8,	%esp
	popl	%esi
	popl	%ecx
	popl	%ebx
	movl	%eax,	%edi
# DUP / 

	movl	%edi,	-44(%ebp)
# TAG ("cons", 2) / 

	movl	$1697575,	-48(%ebp)
	movl	$5,	-52(%ebp)
	pushl	%ebx
	pushl	%ecx
	pushl	%esi
	pushl	%edi
	pushl	-52(%ebp)
	pushl	-48(%ebp)
	pushl	-44(%ebp)
	call	Btag
	addl	$12,	%esp
	popl	%edi
	popl	%esi
	popl	%ecx
	popl	%ebx
	movl	%eax,	-44(%ebp)
# CJMP ("nz", "L142") / 

	sarl	-44(%ebp)
	cmpl	$0,	-44(%ebp)
	jnz	L142
# LABEL ("L143") / 

L143:

# DROP / 

# JMP ("L141") / 

	jmp	L141
# LABEL ("L142") / 

L142:

# DUP / 

	movl	%edi,	-44(%ebp)
# CONST (0) / 

	movl	$1,	-48(%ebp)
# CALL (".elem", 2, false) / 

	pushl	%ebx
	pushl	%ecx
	pushl	%esi
	pushl	%edi
	pushl	-48(%ebp)
	pushl	-44(%ebp)
	call	Belem
	addl	$8,	%esp
	popl	%edi
	popl	%esi
	popl	%ecx
	popl	%ebx
	movl	%eax,	-44(%ebp)
# DROP / 

# DUP / 

	movl	%edi,	-44(%ebp)
# CONST (1) / 

	movl	$3,	-48(%ebp)
# CALL (".elem", 2, false) / 

	pushl	%ebx
	pushl	%ecx
	pushl	%esi
	pushl	%edi
	pushl	-48(%ebp)
	pushl	-44(%ebp)
	call	Belem
	addl	$8,	%esp
	popl	%edi
	popl	%esi
	popl	%ecx
	popl	%ebx
	movl	%eax,	-44(%ebp)
# CONST (0) / 

	movl	$1,	-48(%ebp)
# BINOP ("==") / 

	xorl	%eax,	%eax
	movl	-48(%ebp),	%edx
	cmpl	%edx,	-44(%ebp)
	sete	%al
	sall	%eax
	orl	$0x0001,	%eax
	movl	%eax,	-44(%ebp)
# CJMP ("z", "L143") / 

	sarl	-44(%ebp)
	cmpl	$0,	-44(%ebp)
	jz	L143
# DROP / 

# DROP / 

# DROP / 

# DUP / 

	movl	%ebx,	%ecx
# CONST (0) / 

	movl	$1,	%esi
# CALL (".elem", 2, false) / 

	pushl	%ebx
	pushl	%esi
	pushl	%ecx
	call	Belem
	addl	$8,	%esp
	popl	%ebx
	movl	%eax,	%ecx
# ST (Local (8)) / 

	movl	%ecx,	-36(%ebp)
# DROP / 

# DUP / 

	movl	%ebx,	%ecx
# CONST (1) / 

	movl	$3,	%esi
# CALL (".elem", 2, false) / 

	pushl	%ebx
	pushl	%esi
	pushl	%ecx
	call	Belem
	addl	$8,	%esp
	popl	%ebx
	movl	%eax,	%ecx
# CONST (0) / 

	movl	$1,	%esi
# CALL (".elem", 2, false) / 

	pushl	%ebx
	pushl	%esi
	pushl	%ecx
	call	Belem
	addl	$8,	%esp
	popl	%ebx
	movl	%eax,	%ecx
# ST (Local (7)) / 

	movl	%ecx,	-32(%ebp)
# DROP / 

# DUP / 

	movl	%ebx,	%ecx
# CONST (1) / 

	movl	$3,	%esi
# CALL (".elem", 2, false) / 

	pushl	%ebx
	pushl	%esi
	pushl	%ecx
	call	Belem
	addl	$8,	%esp
	popl	%ebx
	movl	%eax,	%ecx
# CONST (1) / 

	movl	$3,	%esi
# CALL (".elem", 2, false) / 

	pushl	%ebx
	pushl	%esi
	pushl	%ecx
	call	Belem
	addl	$8,	%esp
	popl	%ebx
	movl	%eax,	%ecx
# CONST (0) / 

	movl	$1,	%esi
# CALL (".elem", 2, false) / 

	pushl	%ebx
	pushl	%esi
	pushl	%ecx
	call	Belem
	addl	$8,	%esp
	popl	%ebx
	movl	%eax,	%ecx
# ST (Local (6)) / 

	movl	%ecx,	-28(%ebp)
# DROP / 

# DROP / 

# SLABEL ("L146") / 

L146:

# LINE (73) / 

	.stabn 68,0,73,.L21-Leval

.L21:

# LD (Local (8)) / 

	movl	-36(%ebp),	%ebx
# LD (Local (5)) / 

	movl	-24(%ebp),	%ecx
# LD (Local (7)) / 

	movl	-32(%ebp),	%esi
# LD (Local (6)) / 

	movl	-28(%ebp),	%edi
# CALL ("LevalOp", 3, false) / 

	pushl	%ebx
	pushl	%edi
	pushl	%esi
	pushl	%ecx
	call	LevalOp
	addl	$12,	%esp
	popl	%ebx
	movl	%eax,	%ecx
# CALL (".array", 2, true) / 

	pushl	%ecx
	pushl	%ebx
	pushl	$5
	call	Barray
	addl	$12,	%esp
	movl	%eax,	%ebx
# SLABEL ("L147") / 

L147:

# SLABEL ("L145") / 

L145:

# JMP ("L82") / 

	jmp	L82
# LABEL ("L130") / 

L130:

# FAIL ((72, 10), true) / 

	pushl	$21
	pushl	$145
	pushl	$string_13
	pushl	%ebx
	call	Bmatch_failure
	addl	$12,	%esp
# JMP ("L82") / 

	jmp	L82
# SLABEL ("L129") / 

L129:

# JMP ("L82") / 

	jmp	L82
# SLABEL ("L127") / 

L127:

# SLABEL ("L156") / 

L156:

# LABEL ("L123") / 

L123:

# DUP / 

	movl	%ebx,	%ecx
# DUP / 

	movl	%ecx,	%esi
# TAG ("Skip", 0) / 

	movl	$23684257,	%edi
	movl	$1,	-44(%ebp)
	pushl	%ebx
	pushl	%ecx
	pushl	-44(%ebp)
	pushl	%edi
	pushl	%esi
	call	Btag
	addl	$12,	%esp
	popl	%ecx
	popl	%ebx
	movl	%eax,	%esi
# CJMP ("nz", "L154") / 

	sarl	%esi
	cmpl	$0,	%esi
	jnz	L154
# LABEL ("L155") / 

L155:

# DROP / 

# JMP ("L153") / 

	jmp	L153
# LABEL ("L154") / 

L154:

# DROP / 

# DROP / 

# SLABEL ("L158") / 

L158:

# LINE (75) / 

	.stabn 68,0,75,.L22-Leval

.L22:

# LD (Local (2)) / 

	movl	-12(%ebp),	%ebx
# SEXP ("None", 0) / 

	movl	$21096203,	%ecx
	pushl	%ebx
	pushl	%ecx
	pushl	$3
	call	Bsexp
	addl	$8,	%esp
	popl	%ebx
	movl	%eax,	%ecx
# CALL (".array", 2, true) / 

	pushl	%ecx
	pushl	%ebx
	pushl	$5
	call	Barray
	addl	$12,	%esp
	movl	%eax,	%ebx
# SLABEL ("L159") / 

L159:

# JMP ("L82") / 

	jmp	L82
# SLABEL ("L157") / 

L157:

# SLABEL ("L166") / 

L166:

# LABEL ("L153") / 

L153:

# DUP / 

	movl	%ebx,	%ecx
# DUP / 

	movl	%ecx,	%esi
# TAG ("Assn", 2) / 

	movl	$14313885,	%edi
	movl	$5,	-44(%ebp)
	pushl	%ebx
	pushl	%ecx
	pushl	-44(%ebp)
	pushl	%edi
	pushl	%esi
	call	Btag
	addl	$12,	%esp
	popl	%ecx
	popl	%ebx
	movl	%eax,	%esi
# CJMP ("nz", "L164") / 

	sarl	%esi
	cmpl	$0,	%esi
	jnz	L164
# LABEL ("L165") / 

L165:

# DROP / 

# JMP ("L163") / 

	jmp	L163
# LABEL ("L164") / 

L164:

# DUP / 

	movl	%ecx,	%esi
# CONST (0) / 

	movl	$1,	%edi
# CALL (".elem", 2, false) / 

	pushl	%ebx
	pushl	%ecx
	pushl	%edi
	pushl	%esi
	call	Belem
	addl	$8,	%esp
	popl	%ecx
	popl	%ebx
	movl	%eax,	%esi
# DROP / 

# DUP / 

	movl	%ecx,	%esi
# CONST (1) / 

	movl	$3,	%edi
# CALL (".elem", 2, false) / 

	pushl	%ebx
	pushl	%ecx
	pushl	%edi
	pushl	%esi
	call	Belem
	addl	$8,	%esp
	popl	%ecx
	popl	%ebx
	movl	%eax,	%esi
# DROP / 

# DROP / 

# DUP / 

	movl	%ebx,	%ecx
# CONST (0) / 

	movl	$1,	%esi
# CALL (".elem", 2, false) / 

	pushl	%ebx
	pushl	%esi
	pushl	%ecx
	call	Belem
	addl	$8,	%esp
	popl	%ebx
	movl	%eax,	%ecx
# ST (Local (4)) / 

	movl	%ecx,	-20(%ebp)
# DROP / 

# DUP / 

	movl	%ebx,	%ecx
# CONST (1) / 

	movl	$3,	%esi
# CALL (".elem", 2, false) / 

	pushl	%ebx
	pushl	%esi
	pushl	%ecx
	call	Belem
	addl	$8,	%esp
	popl	%ebx
	movl	%eax,	%ecx
# ST (Local (3)) / 

	movl	%ecx,	-16(%ebp)
# DROP / 

# DROP / 

# SLABEL ("L168") / 

L168:

# LINE (77) / 

	.stabn 68,0,77,.L23-Leval

.L23:

# LD (Local (2)) / 

	movl	-12(%ebp),	%ebx
# LD (Local (4)) / 

	movl	-20(%ebp),	%ecx
# LD (Local (3)) / 

	movl	-16(%ebp),	%esi
# CONST (0) / 

	movl	$1,	%edi
# SEXP ("cons", 2) / 

	movl	$1697575,	-44(%ebp)
	pushl	%ebx
	pushl	%ecx
	pushl	-44(%ebp)
	pushl	%edi
	pushl	%esi
	pushl	$7
	call	Bsexp
	addl	$16,	%esp
	popl	%ecx
	popl	%ebx
	movl	%eax,	%esi
# SEXP ("cons", 2) / 

	movl	$1697575,	%edi
	pushl	%ebx
	pushl	%edi
	pushl	%esi
	pushl	%ecx
	pushl	$7
	call	Bsexp
	addl	$16,	%esp
	popl	%ebx
	movl	%eax,	%ecx
# CALL ("LevalList", 2, false) / 

	pushl	%ecx
	pushl	%ebx
	call	LevalList
	addl	$8,	%esp
	movl	%eax,	%ebx
# DUP / 

	movl	%ebx,	%ecx
# SLABEL ("L188") / 

L188:

# DUP / 

	movl	%ecx,	%esi
# ARRAY (2) / 

	movl	$5,	%edi
	pushl	%ebx
	pushl	%ecx
	pushl	%edi
	pushl	%esi
	call	Barray_patt
	addl	$8,	%esp
	popl	%ecx
	popl	%ebx
	movl	%eax,	%esi
# CJMP ("nz", "L178") / 

	sarl	%esi
	cmpl	$0,	%esi
	jnz	L178
# LABEL ("L179") / 

L179:

# DROP / 

# JMP ("L170") / 

	jmp	L170
# LABEL ("L178") / 

L178:

# DUP / 

	movl	%ecx,	%esi
# CONST (0) / 

	movl	$1,	%edi
# CALL (".elem", 2, false) / 

	pushl	%ebx
	pushl	%ecx
	pushl	%edi
	pushl	%esi
	call	Belem
	addl	$8,	%esp
	popl	%ecx
	popl	%ebx
	movl	%eax,	%esi
# DUP / 

	movl	%esi,	%edi
# ARRAY (2) / 

	movl	$5,	-44(%ebp)
	pushl	%ebx
	pushl	%ecx
	pushl	%esi
	pushl	-44(%ebp)
	pushl	%edi
	call	Barray_patt
	addl	$8,	%esp
	popl	%esi
	popl	%ecx
	popl	%ebx
	movl	%eax,	%edi
# CJMP ("nz", "L180") / 

	sarl	%edi
	cmpl	$0,	%edi
	jnz	L180
# LABEL ("L181") / 

L181:

# DROP / 

# JMP ("L179") / 

	jmp	L179
# LABEL ("L180") / 

L180:

# DUP / 

	movl	%esi,	%edi
# CONST (0) / 

	movl	$1,	-44(%ebp)
# CALL (".elem", 2, false) / 

	pushl	%ebx
	pushl	%ecx
	pushl	%esi
	pushl	-44(%ebp)
	pushl	%edi
	call	Belem
	addl	$8,	%esp
	popl	%esi
	popl	%ecx
	popl	%ebx
	movl	%eax,	%edi
# DROP / 

# DUP / 

	movl	%esi,	%edi
# CONST (1) / 

	movl	$3,	-44(%ebp)
# CALL (".elem", 2, false) / 

	pushl	%ebx
	pushl	%ecx
	pushl	%esi
	pushl	-44(%ebp)
	pushl	%edi
	call	Belem
	addl	$8,	%esp
	popl	%esi
	popl	%ecx
	popl	%ebx
	movl	%eax,	%edi
# DROP / 

# DROP / 

# DUP / 

	movl	%ecx,	%esi
# CONST (1) / 

	movl	$3,	%edi
# CALL (".elem", 2, false) / 

	pushl	%ebx
	pushl	%ecx
	pushl	%edi
	pushl	%esi
	call	Belem
	addl	$8,	%esp
	popl	%ecx
	popl	%ebx
	movl	%eax,	%esi
# DUP / 

	movl	%esi,	%edi
# TAG ("cons", 2) / 

	movl	$1697575,	-44(%ebp)
	movl	$5,	-48(%ebp)
	pushl	%ebx
	pushl	%ecx
	pushl	%esi
	pushl	-48(%ebp)
	pushl	-44(%ebp)
	pushl	%edi
	call	Btag
	addl	$12,	%esp
	popl	%esi
	popl	%ecx
	popl	%ebx
	movl	%eax,	%edi
# CJMP ("nz", "L182") / 

	sarl	%edi
	cmpl	$0,	%edi
	jnz	L182
# LABEL ("L183") / 

L183:

# DROP / 

# JMP ("L179") / 

	jmp	L179
# LABEL ("L182") / 

L182:

# DUP / 

	movl	%esi,	%edi
# CONST (0) / 

	movl	$1,	-44(%ebp)
# CALL (".elem", 2, false) / 

	pushl	%ebx
	pushl	%ecx
	pushl	%esi
	pushl	-44(%ebp)
	pushl	%edi
	call	Belem
	addl	$8,	%esp
	popl	%esi
	popl	%ecx
	popl	%ebx
	movl	%eax,	%edi
# DUP / 

	movl	%edi,	-44(%ebp)
# TAG ("Ref", 1) / 

	movl	$361101,	-48(%ebp)
	movl	$3,	-52(%ebp)
	pushl	%ebx
	pushl	%ecx
	pushl	%esi
	pushl	%edi
	pushl	-52(%ebp)
	pushl	-48(%ebp)
	pushl	-44(%ebp)
	call	Btag
	addl	$12,	%esp
	popl	%edi
	popl	%esi
	popl	%ecx
	popl	%ebx
	movl	%eax,	-44(%ebp)
# CJMP ("nz", "L184") / 

	sarl	-44(%ebp)
	cmpl	$0,	-44(%ebp)
	jnz	L184
# LABEL ("L185") / 

L185:

# DROP / 

# JMP ("L183") / 

	jmp	L183
# LABEL ("L184") / 

L184:

# DUP / 

	movl	%edi,	-44(%ebp)
# CONST (0) / 

	movl	$1,	-48(%ebp)
# CALL (".elem", 2, false) / 

	pushl	%ebx
	pushl	%ecx
	pushl	%esi
	pushl	%edi
	pushl	-48(%ebp)
	pushl	-44(%ebp)
	call	Belem
	addl	$8,	%esp
	popl	%edi
	popl	%esi
	popl	%ecx
	popl	%ebx
	movl	%eax,	-44(%ebp)
# DROP / 

# DROP / 

# DUP / 

	movl	%esi,	%edi
# CONST (1) / 

	movl	$3,	-44(%ebp)
# CALL (".elem", 2, false) / 

	pushl	%ebx
	pushl	%ecx
	pushl	%esi
	pushl	-44(%ebp)
	pushl	%edi
	call	Belem
	addl	$8,	%esp
	popl	%esi
	popl	%ecx
	popl	%ebx
	movl	%eax,	%edi
# DUP / 

	movl	%edi,	-44(%ebp)
# TAG ("cons", 2) / 

	movl	$1697575,	-48(%ebp)
	movl	$5,	-52(%ebp)
	pushl	%ebx
	pushl	%ecx
	pushl	%esi
	pushl	%edi
	pushl	-52(%ebp)
	pushl	-48(%ebp)
	pushl	-44(%ebp)
	call	Btag
	addl	$12,	%esp
	popl	%edi
	popl	%esi
	popl	%ecx
	popl	%ebx
	movl	%eax,	-44(%ebp)
# CJMP ("nz", "L186") / 

	sarl	-44(%ebp)
	cmpl	$0,	-44(%ebp)
	jnz	L186
# LABEL ("L187") / 

L187:

# DROP / 

# JMP ("L183") / 

	jmp	L183
# LABEL ("L186") / 

L186:

# DUP / 

	movl	%edi,	-44(%ebp)
# CONST (0) / 

	movl	$1,	-48(%ebp)
# CALL (".elem", 2, false) / 

	pushl	%ebx
	pushl	%ecx
	pushl	%esi
	pushl	%edi
	pushl	-48(%ebp)
	pushl	-44(%ebp)
	call	Belem
	addl	$8,	%esp
	popl	%edi
	popl	%esi
	popl	%ecx
	popl	%ebx
	movl	%eax,	-44(%ebp)
# DROP / 

# DUP / 

	movl	%edi,	-44(%ebp)
# CONST (1) / 

	movl	$3,	-48(%ebp)
# CALL (".elem", 2, false) / 

	pushl	%ebx
	pushl	%ecx
	pushl	%esi
	pushl	%edi
	pushl	-48(%ebp)
	pushl	-44(%ebp)
	call	Belem
	addl	$8,	%esp
	popl	%edi
	popl	%esi
	popl	%ecx
	popl	%ebx
	movl	%eax,	-44(%ebp)
# CONST (0) / 

	movl	$1,	-48(%ebp)
# BINOP ("==") / 

	xorl	%eax,	%eax
	movl	-48(%ebp),	%edx
	cmpl	%edx,	-44(%ebp)
	sete	%al
	sall	%eax
	orl	$0x0001,	%eax
	movl	%eax,	-44(%ebp)
# CJMP ("z", "L187") / 

	sarl	-44(%ebp)
	cmpl	$0,	-44(%ebp)
	jz	L187
# DROP / 

# DROP / 

# DROP / 

# DUP / 

	movl	%ebx,	%ecx
# CONST (0) / 

	movl	$1,	%esi
# CALL (".elem", 2, false) / 

	pushl	%ebx
	pushl	%esi
	pushl	%ecx
	call	Belem
	addl	$8,	%esp
	popl	%ebx
	movl	%eax,	%ecx
# ST (Local (9)) / 

	movl	%ecx,	-40(%ebp)
# DROP / 

# DUP / 

	movl	%ebx,	%ecx
# CONST (0) / 

	movl	$1,	%esi
# CALL (".elem", 2, false) / 

	pushl	%ebx
	pushl	%esi
	pushl	%ecx
	call	Belem
	addl	$8,	%esp
	popl	%ebx
	movl	%eax,	%ecx
# CONST (0) / 

	movl	$1,	%esi
# CALL (".elem", 2, false) / 

	pushl	%ebx
	pushl	%esi
	pushl	%ecx
	call	Belem
	addl	$8,	%esp
	popl	%ebx
	movl	%eax,	%ecx
# ST (Local (8)) / 

	movl	%ecx,	-36(%ebp)
# DROP / 

# DUP / 

	movl	%ebx,	%ecx
# CONST (0) / 

	movl	$1,	%esi
# CALL (".elem", 2, false) / 

	pushl	%ebx
	pushl	%esi
	pushl	%ecx
	call	Belem
	addl	$8,	%esp
	popl	%ebx
	movl	%eax,	%ecx
# CONST (1) / 

	movl	$3,	%esi
# CALL (".elem", 2, false) / 

	pushl	%ebx
	pushl	%esi
	pushl	%ecx
	call	Belem
	addl	$8,	%esp
	popl	%ebx
	movl	%eax,	%ecx
# ST (Local (7)) / 

	movl	%ecx,	-32(%ebp)
# DROP / 

# DUP / 

	movl	%ebx,	%ecx
# CONST (1) / 

	movl	$3,	%esi
# CALL (".elem", 2, false) / 

	pushl	%ebx
	pushl	%esi
	pushl	%ecx
	call	Belem
	addl	$8,	%esp
	popl	%ebx
	movl	%eax,	%ecx
# CONST (0) / 

	movl	$1,	%esi
# CALL (".elem", 2, false) / 

	pushl	%ebx
	pushl	%esi
	pushl	%ecx
	call	Belem
	addl	$8,	%esp
	popl	%ebx
	movl	%eax,	%ecx
# CONST (0) / 

	movl	$1,	%esi
# CALL (".elem", 2, false) / 

	pushl	%ebx
	pushl	%esi
	pushl	%ecx
	call	Belem
	addl	$8,	%esp
	popl	%ebx
	movl	%eax,	%ecx
# ST (Local (6)) / 

	movl	%ecx,	-28(%ebp)
# DROP / 

# DUP / 

	movl	%ebx,	%ecx
# CONST (1) / 

	movl	$3,	%esi
# CALL (".elem", 2, false) / 

	pushl	%ebx
	pushl	%esi
	pushl	%ecx
	call	Belem
	addl	$8,	%esp
	popl	%ebx
	movl	%eax,	%ecx
# CONST (1) / 

	movl	$3,	%esi
# CALL (".elem", 2, false) / 

	pushl	%ebx
	pushl	%esi
	pushl	%ecx
	call	Belem
	addl	$8,	%esp
	popl	%ebx
	movl	%eax,	%ecx
# CONST (0) / 

	movl	$1,	%esi
# CALL (".elem", 2, false) / 

	pushl	%ebx
	pushl	%esi
	pushl	%ecx
	call	Belem
	addl	$8,	%esp
	popl	%ebx
	movl	%eax,	%ecx
# ST (Local (5)) / 

	movl	%ecx,	-24(%ebp)
# DROP / 

# DROP / 

# SLABEL ("L190") / 

L190:

# LINE (78) / 

	.stabn 68,0,78,.L24-Leval

.L24:

# LD (Local (8)) / 

	movl	-36(%ebp),	%ebx
# LD (Local (6)) / 

	movl	-28(%ebp),	%ecx
# LD (Local (5)) / 

	movl	-24(%ebp),	%esi
# CALL (".array", 2, false) / 

	pushl	%ebx
	pushl	%esi
	pushl	%ecx
	pushl	$5
	call	Barray
	addl	$12,	%esp
	popl	%ebx
	movl	%eax,	%ecx
# CALL ("Li__Infix_6045", 2, false) / 

	pushl	%ecx
	pushl	%ebx
	call	Li__Infix_6045
	addl	$8,	%esp
	movl	%eax,	%ebx
# LD (Local (7)) / 

	movl	-32(%ebp),	%ecx
# CALL (".array", 2, false) / 

	pushl	%ecx
	pushl	%ebx
	pushl	$5
	call	Barray
	addl	$12,	%esp
	movl	%eax,	%ebx
# LD (Local (5)) / 

	movl	-24(%ebp),	%ecx
# CALL (".array", 2, true) / 

	pushl	%ecx
	pushl	%ebx
	pushl	$5
	call	Barray
	addl	$12,	%esp
	movl	%eax,	%ebx
# SLABEL ("L191") / 

L191:

# SLABEL ("L189") / 

L189:

# JMP ("L82") / 

	jmp	L82
# LABEL ("L170") / 

L170:

# FAIL ((77, 10), true) / 

	pushl	$21
	pushl	$155
	pushl	$string_13
	pushl	%ebx
	call	Bmatch_failure
	addl	$12,	%esp
# JMP ("L82") / 

	jmp	L82
# SLABEL ("L169") / 

L169:

# JMP ("L82") / 

	jmp	L82
# SLABEL ("L167") / 

L167:

# SLABEL ("L203") / 

L203:

# LABEL ("L163") / 

L163:

# DUP / 

	movl	%ebx,	%ecx
# DUP / 

	movl	%ecx,	%esi
# TAG ("Read", 1) / 

	movl	$23109769,	%edi
	movl	$3,	-44(%ebp)
	pushl	%ebx
	pushl	%ecx
	pushl	-44(%ebp)
	pushl	%edi
	pushl	%esi
	call	Btag
	addl	$12,	%esp
	popl	%ecx
	popl	%ebx
	movl	%eax,	%esi
# CJMP ("nz", "L201") / 

	sarl	%esi
	cmpl	$0,	%esi
	jnz	L201
# LABEL ("L202") / 

L202:

# DROP / 

# JMP ("L200") / 

	jmp	L200
# LABEL ("L201") / 

L201:

# DUP / 

	movl	%ecx,	%esi
# CONST (0) / 

	movl	$1,	%edi
# CALL (".elem", 2, false) / 

	pushl	%ebx
	pushl	%ecx
	pushl	%edi
	pushl	%esi
	call	Belem
	addl	$8,	%esp
	popl	%ecx
	popl	%ebx
	movl	%eax,	%esi
# DROP / 

# DROP / 

# DUP / 

	movl	%ebx,	%ecx
# CONST (0) / 

	movl	$1,	%esi
# CALL (".elem", 2, false) / 

	pushl	%ebx
	pushl	%esi
	pushl	%ecx
	call	Belem
	addl	$8,	%esp
	popl	%ebx
	movl	%eax,	%ecx
# ST (Local (3)) / 

	movl	%ecx,	-16(%ebp)
# DROP / 

# DROP / 

# SLABEL ("L205") / 

L205:

# LINE (80) / 

	.stabn 68,0,80,.L25-Leval

.L25:

# LD (Local (0)) / 

	movl	-4(%ebp),	%ebx
# DUP / 

	movl	%ebx,	%ecx
# SLABEL ("L213") / 

L213:

# DUP / 

	movl	%ecx,	%esi
# ARRAY (2) / 

	movl	$5,	%edi
	pushl	%ebx
	pushl	%ecx
	pushl	%edi
	pushl	%esi
	call	Barray_patt
	addl	$8,	%esp
	popl	%ecx
	popl	%ebx
	movl	%eax,	%esi
# CJMP ("nz", "L209") / 

	sarl	%esi
	cmpl	$0,	%esi
	jnz	L209
# LABEL ("L210") / 

L210:

# DROP / 

# JMP ("L207") / 

	jmp	L207
# LABEL ("L209") / 

L209:

# DUP / 

	movl	%ecx,	%esi
# CONST (0) / 

	movl	$1,	%edi
# CALL (".elem", 2, false) / 

	pushl	%ebx
	pushl	%ecx
	pushl	%edi
	pushl	%esi
	call	Belem
	addl	$8,	%esp
	popl	%ecx
	popl	%ebx
	movl	%eax,	%esi
# DUP / 

	movl	%esi,	%edi
# TAG ("cons", 2) / 

	movl	$1697575,	-44(%ebp)
	movl	$5,	-48(%ebp)
	pushl	%ebx
	pushl	%ecx
	pushl	%esi
	pushl	-48(%ebp)
	pushl	-44(%ebp)
	pushl	%edi
	call	Btag
	addl	$12,	%esp
	popl	%esi
	popl	%ecx
	popl	%ebx
	movl	%eax,	%edi
# CJMP ("nz", "L211") / 

	sarl	%edi
	cmpl	$0,	%edi
	jnz	L211
# LABEL ("L212") / 

L212:

# DROP / 

# JMP ("L210") / 

	jmp	L210
# LABEL ("L211") / 

L211:

# DUP / 

	movl	%esi,	%edi
# CONST (0) / 

	movl	$1,	-44(%ebp)
# CALL (".elem", 2, false) / 

	pushl	%ebx
	pushl	%ecx
	pushl	%esi
	pushl	-44(%ebp)
	pushl	%edi
	call	Belem
	addl	$8,	%esp
	popl	%esi
	popl	%ecx
	popl	%ebx
	movl	%eax,	%edi
# DROP / 

# DUP / 

	movl	%esi,	%edi
# CONST (1) / 

	movl	$3,	-44(%ebp)
# CALL (".elem", 2, false) / 

	pushl	%ebx
	pushl	%ecx
	pushl	%esi
	pushl	-44(%ebp)
	pushl	%edi
	call	Belem
	addl	$8,	%esp
	popl	%esi
	popl	%ecx
	popl	%ebx
	movl	%eax,	%edi
# DROP / 

# DROP / 

# DUP / 

	movl	%ecx,	%esi
# CONST (1) / 

	movl	$3,	%edi
# CALL (".elem", 2, false) / 

	pushl	%ebx
	pushl	%ecx
	pushl	%edi
	pushl	%esi
	call	Belem
	addl	$8,	%esp
	popl	%ecx
	popl	%ebx
	movl	%eax,	%esi
# DROP / 

# DROP / 

# DUP / 

	movl	%ebx,	%ecx
# CONST (0) / 

	movl	$1,	%esi
# CALL (".elem", 2, false) / 

	pushl	%ebx
	pushl	%esi
	pushl	%ecx
	call	Belem
	addl	$8,	%esp
	popl	%ebx
	movl	%eax,	%ecx
# CONST (0) / 

	movl	$1,	%esi
# CALL (".elem", 2, false) / 

	pushl	%ebx
	pushl	%esi
	pushl	%ecx
	call	Belem
	addl	$8,	%esp
	popl	%ebx
	movl	%eax,	%ecx
# ST (Local (6)) / 

	movl	%ecx,	-28(%ebp)
# DROP / 

# DUP / 

	movl	%ebx,	%ecx
# CONST (0) / 

	movl	$1,	%esi
# CALL (".elem", 2, false) / 

	pushl	%ebx
	pushl	%esi
	pushl	%ecx
	call	Belem
	addl	$8,	%esp
	popl	%ebx
	movl	%eax,	%ecx
# CONST (1) / 

	movl	$3,	%esi
# CALL (".elem", 2, false) / 

	pushl	%ebx
	pushl	%esi
	pushl	%ecx
	call	Belem
	addl	$8,	%esp
	popl	%ebx
	movl	%eax,	%ecx
# ST (Local (5)) / 

	movl	%ecx,	-24(%ebp)
# DROP / 

# DUP / 

	movl	%ebx,	%ecx
# CONST (1) / 

	movl	$3,	%esi
# CALL (".elem", 2, false) / 

	pushl	%ebx
	pushl	%esi
	pushl	%ecx
	call	Belem
	addl	$8,	%esp
	popl	%ebx
	movl	%eax,	%ecx
# ST (Local (4)) / 

	movl	%ecx,	-20(%ebp)
# DROP / 

# DROP / 

# SLABEL ("L215") / 

L215:

# LD (Local (1)) / 

	movl	-8(%ebp),	%ebx
# LD (Local (3)) / 

	movl	-16(%ebp),	%ecx
# LD (Local (6)) / 

	movl	-28(%ebp),	%esi
# CALL (".array", 2, false) / 

	pushl	%ebx
	pushl	%esi
	pushl	%ecx
	pushl	$5
	call	Barray
	addl	$12,	%esp
	popl	%ebx
	movl	%eax,	%ecx
# CALL ("Li__Infix_6045", 2, false) / 

	pushl	%ecx
	pushl	%ebx
	call	Li__Infix_6045
	addl	$8,	%esp
	movl	%eax,	%ebx
# LD (Local (5)) / 

	movl	-24(%ebp),	%ecx
# LD (Local (4)) / 

	movl	-20(%ebp),	%esi
# CALL (".array", 2, false) / 

	pushl	%ebx
	pushl	%esi
	pushl	%ecx
	pushl	$5
	call	Barray
	addl	$12,	%esp
	popl	%ebx
	movl	%eax,	%ecx
# CALL (".array", 2, false) / 

	pushl	%ecx
	pushl	%ebx
	pushl	$5
	call	Barray
	addl	$12,	%esp
	movl	%eax,	%ebx
# SEXP ("None", 0) / 

	movl	$21096203,	%ecx
	pushl	%ebx
	pushl	%ecx
	pushl	$3
	call	Bsexp
	addl	$8,	%esp
	popl	%ebx
	movl	%eax,	%ecx
# CALL (".array", 2, true) / 

	pushl	%ecx
	pushl	%ebx
	pushl	$5
	call	Barray
	addl	$12,	%esp
	movl	%eax,	%ebx
# SLABEL ("L216") / 

L216:

# SLABEL ("L214") / 

L214:

# JMP ("L82") / 

	jmp	L82
# LABEL ("L207") / 

L207:

# FAIL ((80, 31), true) / 

	pushl	$63
	pushl	$161
	pushl	$string_13
	pushl	%ebx
	call	Bmatch_failure
	addl	$12,	%esp
# JMP ("L82") / 

	jmp	L82
# SLABEL ("L206") / 

L206:

# JMP ("L82") / 

	jmp	L82
# SLABEL ("L204") / 

L204:

# SLABEL ("L231") / 

L231:

# LABEL ("L200") / 

L200:

# DUP / 

	movl	%ebx,	%ecx
# DUP / 

	movl	%ecx,	%esi
# TAG ("Write", 1) / 

	movl	$1653680651,	%edi
	movl	$3,	-44(%ebp)
	pushl	%ebx
	pushl	%ecx
	pushl	-44(%ebp)
	pushl	%edi
	pushl	%esi
	call	Btag
	addl	$12,	%esp
	popl	%ecx
	popl	%ebx
	movl	%eax,	%esi
# CJMP ("nz", "L229") / 

	sarl	%esi
	cmpl	$0,	%esi
	jnz	L229
# LABEL ("L230") / 

L230:

# DROP / 

# JMP ("L228") / 

	jmp	L228
# LABEL ("L229") / 

L229:

# DUP / 

	movl	%ecx,	%esi
# CONST (0) / 

	movl	$1,	%edi
# CALL (".elem", 2, false) / 

	pushl	%ebx
	pushl	%ecx
	pushl	%edi
	pushl	%esi
	call	Belem
	addl	$8,	%esp
	popl	%ecx
	popl	%ebx
	movl	%eax,	%esi
# DROP / 

# DROP / 

# DUP / 

	movl	%ebx,	%ecx
# CONST (0) / 

	movl	$1,	%esi
# CALL (".elem", 2, false) / 

	pushl	%ebx
	pushl	%esi
	pushl	%ecx
	call	Belem
	addl	$8,	%esp
	popl	%ebx
	movl	%eax,	%ecx
# ST (Local (3)) / 

	movl	%ecx,	-16(%ebp)
# DROP / 

# DROP / 

# SLABEL ("L233") / 

L233:

# LINE (82) / 

	.stabn 68,0,82,.L26-Leval

.L26:

# LD (Local (2)) / 

	movl	-12(%ebp),	%ebx
# LD (Local (3)) / 

	movl	-16(%ebp),	%ecx
# CALL ("Leval", 2, false) / 

	pushl	%ecx
	pushl	%ebx
	call	Leval
	addl	$8,	%esp
	movl	%eax,	%ebx
# DUP / 

	movl	%ebx,	%ecx
# SLABEL ("L245") / 

L245:

# DUP / 

	movl	%ecx,	%esi
# ARRAY (2) / 

	movl	$5,	%edi
	pushl	%ebx
	pushl	%ecx
	pushl	%edi
	pushl	%esi
	call	Barray_patt
	addl	$8,	%esp
	popl	%ecx
	popl	%ebx
	movl	%eax,	%esi
# CJMP ("nz", "L239") / 

	sarl	%esi
	cmpl	$0,	%esi
	jnz	L239
# LABEL ("L240") / 

L240:

# DROP / 

# JMP ("L235") / 

	jmp	L235
# LABEL ("L239") / 

L239:

# DUP / 

	movl	%ecx,	%esi
# CONST (0) / 

	movl	$1,	%edi
# CALL (".elem", 2, false) / 

	pushl	%ebx
	pushl	%ecx
	pushl	%edi
	pushl	%esi
	call	Belem
	addl	$8,	%esp
	popl	%ecx
	popl	%ebx
	movl	%eax,	%esi
# DUP / 

	movl	%esi,	%edi
# ARRAY (2) / 

	movl	$5,	-44(%ebp)
	pushl	%ebx
	pushl	%ecx
	pushl	%esi
	pushl	-44(%ebp)
	pushl	%edi
	call	Barray_patt
	addl	$8,	%esp
	popl	%esi
	popl	%ecx
	popl	%ebx
	movl	%eax,	%edi
# CJMP ("nz", "L241") / 

	sarl	%edi
	cmpl	$0,	%edi
	jnz	L241
# LABEL ("L242") / 

L242:

# DROP / 

# JMP ("L240") / 

	jmp	L240
# LABEL ("L241") / 

L241:

# DUP / 

	movl	%esi,	%edi
# CONST (0) / 

	movl	$1,	-44(%ebp)
# CALL (".elem", 2, false) / 

	pushl	%ebx
	pushl	%ecx
	pushl	%esi
	pushl	-44(%ebp)
	pushl	%edi
	call	Belem
	addl	$8,	%esp
	popl	%esi
	popl	%ecx
	popl	%ebx
	movl	%eax,	%edi
# DROP / 

# DUP / 

	movl	%esi,	%edi
# CONST (1) / 

	movl	$3,	-44(%ebp)
# CALL (".elem", 2, false) / 

	pushl	%ebx
	pushl	%ecx
	pushl	%esi
	pushl	-44(%ebp)
	pushl	%edi
	call	Belem
	addl	$8,	%esp
	popl	%esi
	popl	%ecx
	popl	%ebx
	movl	%eax,	%edi
# DUP / 

	movl	%edi,	-44(%ebp)
# ARRAY (2) / 

	movl	$5,	-48(%ebp)
	pushl	%ebx
	pushl	%ecx
	pushl	%esi
	pushl	%edi
	pushl	-48(%ebp)
	pushl	-44(%ebp)
	call	Barray_patt
	addl	$8,	%esp
	popl	%edi
	popl	%esi
	popl	%ecx
	popl	%ebx
	movl	%eax,	-44(%ebp)
# CJMP ("nz", "L243") / 

	sarl	-44(%ebp)
	cmpl	$0,	-44(%ebp)
	jnz	L243
# LABEL ("L244") / 

L244:

# DROP / 

# JMP ("L242") / 

	jmp	L242
# LABEL ("L243") / 

L243:

# DUP / 

	movl	%edi,	-44(%ebp)
# CONST (0) / 

	movl	$1,	-48(%ebp)
# CALL (".elem", 2, false) / 

	pushl	%ebx
	pushl	%ecx
	pushl	%esi
	pushl	%edi
	pushl	-48(%ebp)
	pushl	-44(%ebp)
	call	Belem
	addl	$8,	%esp
	popl	%edi
	popl	%esi
	popl	%ecx
	popl	%ebx
	movl	%eax,	-44(%ebp)
# DROP / 

# DUP / 

	movl	%edi,	-44(%ebp)
# CONST (1) / 

	movl	$3,	-48(%ebp)
# CALL (".elem", 2, false) / 

	pushl	%ebx
	pushl	%ecx
	pushl	%esi
	pushl	%edi
	pushl	-48(%ebp)
	pushl	-44(%ebp)
	call	Belem
	addl	$8,	%esp
	popl	%edi
	popl	%esi
	popl	%ecx
	popl	%ebx
	movl	%eax,	-44(%ebp)
# DROP / 

# DROP / 

# DROP / 

# DUP / 

	movl	%ecx,	%esi
# CONST (1) / 

	movl	$3,	%edi
# CALL (".elem", 2, false) / 

	pushl	%ebx
	pushl	%ecx
	pushl	%edi
	pushl	%esi
	call	Belem
	addl	$8,	%esp
	popl	%ecx
	popl	%ebx
	movl	%eax,	%esi
# DROP / 

# DROP / 

# DUP / 

	movl	%ebx,	%ecx
# CONST (0) / 

	movl	$1,	%esi
# CALL (".elem", 2, false) / 

	pushl	%ebx
	pushl	%esi
	pushl	%ecx
	call	Belem
	addl	$8,	%esp
	popl	%ebx
	movl	%eax,	%ecx
# CONST (0) / 

	movl	$1,	%esi
# CALL (".elem", 2, false) / 

	pushl	%ebx
	pushl	%esi
	pushl	%ecx
	call	Belem
	addl	$8,	%esp
	popl	%ebx
	movl	%eax,	%ecx
# ST (Local (7)) / 

	movl	%ecx,	-32(%ebp)
# DROP / 

# DUP / 

	movl	%ebx,	%ecx
# CONST (0) / 

	movl	$1,	%esi
# CALL (".elem", 2, false) / 

	pushl	%ebx
	pushl	%esi
	pushl	%ecx
	call	Belem
	addl	$8,	%esp
	popl	%ebx
	movl	%eax,	%ecx
# CONST (1) / 

	movl	$3,	%esi
# CALL (".elem", 2, false) / 

	pushl	%ebx
	pushl	%esi
	pushl	%ecx
	call	Belem
	addl	$8,	%esp
	popl	%ebx
	movl	%eax,	%ecx
# CONST (0) / 

	movl	$1,	%esi
# CALL (".elem", 2, false) / 

	pushl	%ebx
	pushl	%esi
	pushl	%ecx
	call	Belem
	addl	$8,	%esp
	popl	%ebx
	movl	%eax,	%ecx
# ST (Local (6)) / 

	movl	%ecx,	-28(%ebp)
# DROP / 

# DUP / 

	movl	%ebx,	%ecx
# CONST (0) / 

	movl	$1,	%esi
# CALL (".elem", 2, false) / 

	pushl	%ebx
	pushl	%esi
	pushl	%ecx
	call	Belem
	addl	$8,	%esp
	popl	%ebx
	movl	%eax,	%ecx
# CONST (1) / 

	movl	$3,	%esi
# CALL (".elem", 2, false) / 

	pushl	%ebx
	pushl	%esi
	pushl	%ecx
	call	Belem
	addl	$8,	%esp
	popl	%ebx
	movl	%eax,	%ecx
# CONST (1) / 

	movl	$3,	%esi
# CALL (".elem", 2, false) / 

	pushl	%ebx
	pushl	%esi
	pushl	%ecx
	call	Belem
	addl	$8,	%esp
	popl	%ebx
	movl	%eax,	%ecx
# ST (Local (5)) / 

	movl	%ecx,	-24(%ebp)
# DROP / 

# DUP / 

	movl	%ebx,	%ecx
# CONST (1) / 

	movl	$3,	%esi
# CALL (".elem", 2, false) / 

	pushl	%ebx
	pushl	%esi
	pushl	%ecx
	call	Belem
	addl	$8,	%esp
	popl	%ebx
	movl	%eax,	%ecx
# ST (Local (4)) / 

	movl	%ecx,	-20(%ebp)
# DROP / 

# DROP / 

# SLABEL ("L247") / 

L247:

# LINE (83) / 

	.stabn 68,0,83,.L27-Leval

.L27:

# LD (Local (7)) / 

	movl	-32(%ebp),	%ebx
# LD (Local (6)) / 

	movl	-28(%ebp),	%ecx
# LD (Local (4)) / 

	movl	-20(%ebp),	%esi
# LD (Local (5)) / 

	movl	-24(%ebp),	%edi
# SEXP ("cons", 2) / 

	movl	$1697575,	-44(%ebp)
	pushl	%ebx
	pushl	%ecx
	pushl	-44(%ebp)
	pushl	%edi
	pushl	%esi
	pushl	$7
	call	Bsexp
	addl	$16,	%esp
	popl	%ecx
	popl	%ebx
	movl	%eax,	%esi
# CALL (".array", 2, false) / 

	pushl	%ebx
	pushl	%esi
	pushl	%ecx
	pushl	$5
	call	Barray
	addl	$12,	%esp
	popl	%ebx
	movl	%eax,	%ecx
# CALL (".array", 2, false) / 

	pushl	%ecx
	pushl	%ebx
	pushl	$5
	call	Barray
	addl	$12,	%esp
	movl	%eax,	%ebx
# SEXP ("None", 0) / 

	movl	$21096203,	%ecx
	pushl	%ebx
	pushl	%ecx
	pushl	$3
	call	Bsexp
	addl	$8,	%esp
	popl	%ebx
	movl	%eax,	%ecx
# CALL (".array", 2, true) / 

	pushl	%ecx
	pushl	%ebx
	pushl	$5
	call	Barray
	addl	$12,	%esp
	movl	%eax,	%ebx
# SLABEL ("L248") / 

L248:

# SLABEL ("L246") / 

L246:

# JMP ("L82") / 

	jmp	L82
# LABEL ("L235") / 

L235:

# FAIL ((82, 10), true) / 

	pushl	$21
	pushl	$165
	pushl	$string_13
	pushl	%ebx
	call	Bmatch_failure
	addl	$12,	%esp
# JMP ("L82") / 

	jmp	L82
# SLABEL ("L234") / 

L234:

# JMP ("L82") / 

	jmp	L82
# SLABEL ("L232") / 

L232:

# SLABEL ("L261") / 

L261:

# LABEL ("L228") / 

L228:

# DUP / 

	movl	%ebx,	%ecx
# DUP / 

	movl	%ecx,	%esi
# TAG ("Seq", 2) / 

	movl	$369315,	%edi
	movl	$5,	-44(%ebp)
	pushl	%ebx
	pushl	%ecx
	pushl	-44(%ebp)
	pushl	%edi
	pushl	%esi
	call	Btag
	addl	$12,	%esp
	popl	%ecx
	popl	%ebx
	movl	%eax,	%esi
# CJMP ("nz", "L259") / 

	sarl	%esi
	cmpl	$0,	%esi
	jnz	L259
# LABEL ("L260") / 

L260:

# DROP / 

# JMP ("L258") / 

	jmp	L258
# LABEL ("L259") / 

L259:

# DUP / 

	movl	%ecx,	%esi
# CONST (0) / 

	movl	$1,	%edi
# CALL (".elem", 2, false) / 

	pushl	%ebx
	pushl	%ecx
	pushl	%edi
	pushl	%esi
	call	Belem
	addl	$8,	%esp
	popl	%ecx
	popl	%ebx
	movl	%eax,	%esi
# DROP / 

# DUP / 

	movl	%ecx,	%esi
# CONST (1) / 

	movl	$3,	%edi
# CALL (".elem", 2, false) / 

	pushl	%ebx
	pushl	%ecx
	pushl	%edi
	pushl	%esi
	call	Belem
	addl	$8,	%esp
	popl	%ecx
	popl	%ebx
	movl	%eax,	%esi
# DROP / 

# DROP / 

# DUP / 

	movl	%ebx,	%ecx
# CONST (0) / 

	movl	$1,	%esi
# CALL (".elem", 2, false) / 

	pushl	%ebx
	pushl	%esi
	pushl	%ecx
	call	Belem
	addl	$8,	%esp
	popl	%ebx
	movl	%eax,	%ecx
# ST (Local (4)) / 

	movl	%ecx,	-20(%ebp)
# DROP / 

# DUP / 

	movl	%ebx,	%ecx
# CONST (1) / 

	movl	$3,	%esi
# CALL (".elem", 2, false) / 

	pushl	%ebx
	pushl	%esi
	pushl	%ecx
	call	Belem
	addl	$8,	%esp
	popl	%ebx
	movl	%eax,	%ecx
# ST (Local (3)) / 

	movl	%ecx,	-16(%ebp)
# DROP / 

# DROP / 

# SLABEL ("L263") / 

L263:

# LINE (85) / 

	.stabn 68,0,85,.L28-Leval

.L28:

# LD (Local (2)) / 

	movl	-12(%ebp),	%ebx
# LD (Local (4)) / 

	movl	-20(%ebp),	%ecx
# CALL ("Leval", 2, false) / 

	pushl	%ecx
	pushl	%ebx
	call	Leval
	addl	$8,	%esp
	movl	%eax,	%ebx
# CONST (0) / 

	movl	$1,	%ecx
# CALL (".elem", 2, false) / 

	pushl	%ecx
	pushl	%ebx
	call	Belem
	addl	$8,	%esp
	movl	%eax,	%ebx
# LD (Local (3)) / 

	movl	-16(%ebp),	%ecx
# CALL ("Leval", 2, true) / 

	movl	%ebx,	8(%ebp)
	movl	%ecx,	12(%ebp)
	movl	%ebp,	%esp
	popl	%ebp
	jmp	Leval
# SLABEL ("L264") / 

L264:

# JMP ("L82") / 

	jmp	L82
# SLABEL ("L262") / 

L262:

# SLABEL ("L274") / 

L274:

# LABEL ("L258") / 

L258:

# DUP / 

	movl	%ebx,	%ecx
# DUP / 

	movl	%ecx,	%esi
# TAG ("If", 3) / 

	movl	$4493,	%edi
	movl	$7,	-44(%ebp)
	pushl	%ebx
	pushl	%ecx
	pushl	-44(%ebp)
	pushl	%edi
	pushl	%esi
	call	Btag
	addl	$12,	%esp
	popl	%ecx
	popl	%ebx
	movl	%eax,	%esi
# CJMP ("nz", "L272") / 

	sarl	%esi
	cmpl	$0,	%esi
	jnz	L272
# LABEL ("L273") / 

L273:

# DROP / 

# JMP ("L271") / 

	jmp	L271
# LABEL ("L272") / 

L272:

# DUP / 

	movl	%ecx,	%esi
# CONST (0) / 

	movl	$1,	%edi
# CALL (".elem", 2, false) / 

	pushl	%ebx
	pushl	%ecx
	pushl	%edi
	pushl	%esi
	call	Belem
	addl	$8,	%esp
	popl	%ecx
	popl	%ebx
	movl	%eax,	%esi
# DROP / 

# DUP / 

	movl	%ecx,	%esi
# CONST (1) / 

	movl	$3,	%edi
# CALL (".elem", 2, false) / 

	pushl	%ebx
	pushl	%ecx
	pushl	%edi
	pushl	%esi
	call	Belem
	addl	$8,	%esp
	popl	%ecx
	popl	%ebx
	movl	%eax,	%esi
# DROP / 

# DUP / 

	movl	%ecx,	%esi
# CONST (2) / 

	movl	$5,	%edi
# CALL (".elem", 2, false) / 

	pushl	%ebx
	pushl	%ecx
	pushl	%edi
	pushl	%esi
	call	Belem
	addl	$8,	%esp
	popl	%ecx
	popl	%ebx
	movl	%eax,	%esi
# DROP / 

# DROP / 

# DUP / 

	movl	%ebx,	%ecx
# CONST (0) / 

	movl	$1,	%esi
# CALL (".elem", 2, false) / 

	pushl	%ebx
	pushl	%esi
	pushl	%ecx
	call	Belem
	addl	$8,	%esp
	popl	%ebx
	movl	%eax,	%ecx
# ST (Local (5)) / 

	movl	%ecx,	-24(%ebp)
# DROP / 

# DUP / 

	movl	%ebx,	%ecx
# CONST (1) / 

	movl	$3,	%esi
# CALL (".elem", 2, false) / 

	pushl	%ebx
	pushl	%esi
	pushl	%ecx
	call	Belem
	addl	$8,	%esp
	popl	%ebx
	movl	%eax,	%ecx
# ST (Local (4)) / 

	movl	%ecx,	-20(%ebp)
# DROP / 

# DUP / 

	movl	%ebx,	%ecx
# CONST (2) / 

	movl	$5,	%esi
# CALL (".elem", 2, false) / 

	pushl	%ebx
	pushl	%esi
	pushl	%ecx
	call	Belem
	addl	$8,	%esp
	popl	%ebx
	movl	%eax,	%ecx
# ST (Local (3)) / 

	movl	%ecx,	-16(%ebp)
# DROP / 

# DROP / 

# SLABEL ("L276") / 

L276:

# LINE (87) / 

	.stabn 68,0,87,.L29-Leval

.L29:

# LD (Local (2)) / 

	movl	-12(%ebp),	%ebx
# LD (Local (5)) / 

	movl	-24(%ebp),	%ecx
# CALL ("Leval", 2, false) / 

	pushl	%ecx
	pushl	%ebx
	call	Leval
	addl	$8,	%esp
	movl	%eax,	%ebx
# DUP / 

	movl	%ebx,	%ecx
# SLABEL ("L284") / 

L284:

# DUP / 

	movl	%ecx,	%esi
# ARRAY (2) / 

	movl	$5,	%edi
	pushl	%ebx
	pushl	%ecx
	pushl	%edi
	pushl	%esi
	call	Barray_patt
	addl	$8,	%esp
	popl	%ecx
	popl	%ebx
	movl	%eax,	%esi
# CJMP ("nz", "L282") / 

	sarl	%esi
	cmpl	$0,	%esi
	jnz	L282
# LABEL ("L283") / 

L283:

# DROP / 

# JMP ("L278") / 

	jmp	L278
# LABEL ("L282") / 

L282:

# DUP / 

	movl	%ecx,	%esi
# CONST (0) / 

	movl	$1,	%edi
# CALL (".elem", 2, false) / 

	pushl	%ebx
	pushl	%ecx
	pushl	%edi
	pushl	%esi
	call	Belem
	addl	$8,	%esp
	popl	%ecx
	popl	%ebx
	movl	%eax,	%esi
# DROP / 

# DUP / 

	movl	%ecx,	%esi
# CONST (1) / 

	movl	$3,	%edi
# CALL (".elem", 2, false) / 

	pushl	%ebx
	pushl	%ecx
	pushl	%edi
	pushl	%esi
	call	Belem
	addl	$8,	%esp
	popl	%ecx
	popl	%ebx
	movl	%eax,	%esi
# DROP / 

# DROP / 

# DUP / 

	movl	%ebx,	%ecx
# CONST (0) / 

	movl	$1,	%esi
# CALL (".elem", 2, false) / 

	pushl	%ebx
	pushl	%esi
	pushl	%ecx
	call	Belem
	addl	$8,	%esp
	popl	%ebx
	movl	%eax,	%ecx
# ST (Local (7)) / 

	movl	%ecx,	-32(%ebp)
# DROP / 

# DUP / 

	movl	%ebx,	%ecx
# CONST (1) / 

	movl	$3,	%esi
# CALL (".elem", 2, false) / 

	pushl	%ebx
	pushl	%esi
	pushl	%ecx
	call	Belem
	addl	$8,	%esp
	popl	%ebx
	movl	%eax,	%ecx
# ST (Local (6)) / 

	movl	%ecx,	-28(%ebp)
# DROP / 

# DROP / 

# SLABEL ("L286") / 

L286:

# LINE (88) / 

	.stabn 68,0,88,.L30-Leval

.L30:

# LD (Local (7)) / 

	movl	-32(%ebp),	%ebx
# LD (Local (6)) / 

	movl	-28(%ebp),	%ecx
# CJMP ("z", "L291") / 

	sarl	%ecx
	cmpl	$0,	%ecx
	jz	L291
# SLABEL ("L292") / 

L292:

# LD (Local (4)) / 

	movl	-20(%ebp),	%ecx
# SLABEL ("L293") / 

L293:

# JMP ("L288") / 

	jmp	L288
# LABEL ("L291") / 

L291:

# SLABEL ("L294") / 

L294:

# LD (Local (3)) / 

	movl	-16(%ebp),	%ecx
# SLABEL ("L295") / 

L295:

# JMP ("L288") / 

	jmp	L288
# LABEL ("L288") / 

L288:

# CALL ("Leval", 2, true) / 

	movl	%ebx,	8(%ebp)
	movl	%ecx,	12(%ebp)
	movl	%ebp,	%esp
	popl	%ebp
	jmp	Leval
# SLABEL ("L287") / 

L287:

# SLABEL ("L285") / 

L285:

# JMP ("L82") / 

	jmp	L82
# LABEL ("L278") / 

L278:

# FAIL ((87, 10), true) / 

	pushl	$21
	pushl	$175
	pushl	$string_13
	pushl	%ebx
	call	Bmatch_failure
	addl	$12,	%esp
# JMP ("L82") / 

	jmp	L82
# SLABEL ("L277") / 

L277:

# JMP ("L82") / 

	jmp	L82
# SLABEL ("L275") / 

L275:

# SLABEL ("L299") / 

L299:

# LABEL ("L271") / 

L271:

# DUP / 

	movl	%ebx,	%ecx
# DUP / 

	movl	%ecx,	%esi
# TAG ("While", 2) / 

	movl	$1648436747,	%edi
	movl	$5,	-44(%ebp)
	pushl	%ebx
	pushl	%ecx
	pushl	-44(%ebp)
	pushl	%edi
	pushl	%esi
	call	Btag
	addl	$12,	%esp
	popl	%ecx
	popl	%ebx
	movl	%eax,	%esi
# CJMP ("nz", "L297") / 

	sarl	%esi
	cmpl	$0,	%esi
	jnz	L297
# LABEL ("L298") / 

L298:

# DROP / 

# JMP ("L296") / 

	jmp	L296
# LABEL ("L297") / 

L297:

# DUP / 

	movl	%ecx,	%esi
# CONST (0) / 

	movl	$1,	%edi
# CALL (".elem", 2, false) / 

	pushl	%ebx
	pushl	%ecx
	pushl	%edi
	pushl	%esi
	call	Belem
	addl	$8,	%esp
	popl	%ecx
	popl	%ebx
	movl	%eax,	%esi
# DROP / 

# DUP / 

	movl	%ecx,	%esi
# CONST (1) / 

	movl	$3,	%edi
# CALL (".elem", 2, false) / 

	pushl	%ebx
	pushl	%ecx
	pushl	%edi
	pushl	%esi
	call	Belem
	addl	$8,	%esp
	popl	%ecx
	popl	%ebx
	movl	%eax,	%esi
# DROP / 

# DROP / 

# DUP / 

	movl	%ebx,	%ecx
# CONST (0) / 

	movl	$1,	%esi
# CALL (".elem", 2, false) / 

	pushl	%ebx
	pushl	%esi
	pushl	%ecx
	call	Belem
	addl	$8,	%esp
	popl	%ebx
	movl	%eax,	%ecx
# ST (Local (4)) / 

	movl	%ecx,	-20(%ebp)
# DROP / 

# DUP / 

	movl	%ebx,	%ecx
# CONST (1) / 

	movl	$3,	%esi
# CALL (".elem", 2, false) / 

	pushl	%ebx
	pushl	%esi
	pushl	%ecx
	call	Belem
	addl	$8,	%esp
	popl	%ebx
	movl	%eax,	%ecx
# ST (Local (3)) / 

	movl	%ecx,	-16(%ebp)
# DROP / 

# DROP / 

# SLABEL ("L301") / 

L301:

# LINE (91) / 

	.stabn 68,0,91,.L31-Leval

.L31:

# LD (Local (2)) / 

	movl	-12(%ebp),	%ebx
# LD (Local (4)) / 

	movl	-20(%ebp),	%ecx
# CALL ("Leval", 2, false) / 

	pushl	%ecx
	pushl	%ebx
	call	Leval
	addl	$8,	%esp
	movl	%eax,	%ebx
# DUP / 

	movl	%ebx,	%ecx
# SLABEL ("L309") / 

L309:

# DUP / 

	movl	%ecx,	%esi
# ARRAY (2) / 

	movl	$5,	%edi
	pushl	%ebx
	pushl	%ecx
	pushl	%edi
	pushl	%esi
	call	Barray_patt
	addl	$8,	%esp
	popl	%ecx
	popl	%ebx
	movl	%eax,	%esi
# CJMP ("nz", "L307") / 

	sarl	%esi
	cmpl	$0,	%esi
	jnz	L307
# LABEL ("L308") / 

L308:

# DROP / 

# JMP ("L303") / 

	jmp	L303
# LABEL ("L307") / 

L307:

# DUP / 

	movl	%ecx,	%esi
# CONST (0) / 

	movl	$1,	%edi
# CALL (".elem", 2, false) / 

	pushl	%ebx
	pushl	%ecx
	pushl	%edi
	pushl	%esi
	call	Belem
	addl	$8,	%esp
	popl	%ecx
	popl	%ebx
	movl	%eax,	%esi
# DROP / 

# DUP / 

	movl	%ecx,	%esi
# CONST (1) / 

	movl	$3,	%edi
# CALL (".elem", 2, false) / 

	pushl	%ebx
	pushl	%ecx
	pushl	%edi
	pushl	%esi
	call	Belem
	addl	$8,	%esp
	popl	%ecx
	popl	%ebx
	movl	%eax,	%esi
# DROP / 

# DROP / 

# DUP / 

	movl	%ebx,	%ecx
# CONST (0) / 

	movl	$1,	%esi
# CALL (".elem", 2, false) / 

	pushl	%ebx
	pushl	%esi
	pushl	%ecx
	call	Belem
	addl	$8,	%esp
	popl	%ebx
	movl	%eax,	%ecx
# ST (Local (6)) / 

	movl	%ecx,	-28(%ebp)
# DROP / 

# DUP / 

	movl	%ebx,	%ecx
# CONST (1) / 

	movl	$3,	%esi
# CALL (".elem", 2, false) / 

	pushl	%ebx
	pushl	%esi
	pushl	%ecx
	call	Belem
	addl	$8,	%esp
	popl	%ebx
	movl	%eax,	%ecx
# ST (Local (5)) / 

	movl	%ecx,	-24(%ebp)
# DROP / 

# DROP / 

# SLABEL ("L311") / 

L311:

# LINE (92) / 

	.stabn 68,0,92,.L32-Leval

.L32:

# LD (Local (5)) / 

	movl	-24(%ebp),	%ebx
# CJMP ("z", "L314") / 

	sarl	%ebx
	cmpl	$0,	%ebx
	jz	L314
# SLABEL ("L315") / 

L315:

# LD (Local (6)) / 

	movl	-28(%ebp),	%ebx
# LD (Local (3)) / 

	movl	-16(%ebp),	%ecx
# CALL ("Leval", 2, false) / 

	pushl	%ecx
	pushl	%ebx
	call	Leval
	addl	$8,	%esp
	movl	%eax,	%ebx
# CONST (0) / 

	movl	$1,	%ecx
# CALL (".elem", 2, false) / 

	pushl	%ecx
	pushl	%ebx
	call	Belem
	addl	$8,	%esp
	movl	%eax,	%ebx
# LD (Local (4)) / 

	movl	-20(%ebp),	%ecx
# LD (Local (3)) / 

	movl	-16(%ebp),	%esi
# SEXP ("While", 2) / 

	movl	$1648436747,	%edi
	pushl	%ebx
	pushl	%edi
	pushl	%esi
	pushl	%ecx
	pushl	$7
	call	Bsexp
	addl	$16,	%esp
	popl	%ebx
	movl	%eax,	%ecx
# CALL ("Leval", 2, true) / 

	movl	%ebx,	8(%ebp)
	movl	%ecx,	12(%ebp)
	movl	%ebp,	%esp
	popl	%ebp
	jmp	Leval
# SLABEL ("L316") / 

L316:

# JMP ("L82") / 

	jmp	L82
# LABEL ("L314") / 

L314:

# SLABEL ("L325") / 

L325:

# LD (Local (6)) / 

	movl	-28(%ebp),	%ebx
# SEXP ("None", 0) / 

	movl	$21096203,	%ecx
	pushl	%ebx
	pushl	%ecx
	pushl	$3
	call	Bsexp
	addl	$8,	%esp
	popl	%ebx
	movl	%eax,	%ecx
# CALL (".array", 2, true) / 

	pushl	%ecx
	pushl	%ebx
	pushl	$5
	call	Barray
	addl	$12,	%esp
	movl	%eax,	%ebx
# SLABEL ("L326") / 

L326:

# JMP ("L82") / 

	jmp	L82
# SLABEL ("L312") / 

L312:

# SLABEL ("L310") / 

L310:

# JMP ("L82") / 

	jmp	L82
# LABEL ("L303") / 

L303:

# FAIL ((91, 10), true) / 

	pushl	$21
	pushl	$183
	pushl	$string_13
	pushl	%ebx
	call	Bmatch_failure
	addl	$12,	%esp
# JMP ("L82") / 

	jmp	L82
# SLABEL ("L302") / 

L302:

# JMP ("L82") / 

	jmp	L82
# SLABEL ("L300") / 

L300:

# SLABEL ("L333") / 

L333:

# LABEL ("L296") / 

L296:

# DUP / 

	movl	%ebx,	%ecx
# DUP / 

	movl	%ecx,	%esi
# TAG ("Repeat", 2) / 

	movl	$1479148163,	%edi
	movl	$5,	-44(%ebp)
	pushl	%ebx
	pushl	%ecx
	pushl	-44(%ebp)
	pushl	%edi
	pushl	%esi
	call	Btag
	addl	$12,	%esp
	popl	%ecx
	popl	%ebx
	movl	%eax,	%esi
# CJMP ("nz", "L331") / 

	sarl	%esi
	cmpl	$0,	%esi
	jnz	L331
# LABEL ("L332") / 

L332:

# DROP / 

# JMP ("L330") / 

	jmp	L330
# LABEL ("L331") / 

L331:

# DUP / 

	movl	%ecx,	%esi
# CONST (0) / 

	movl	$1,	%edi
# CALL (".elem", 2, false) / 

	pushl	%ebx
	pushl	%ecx
	pushl	%edi
	pushl	%esi
	call	Belem
	addl	$8,	%esp
	popl	%ecx
	popl	%ebx
	movl	%eax,	%esi
# DROP / 

# DUP / 

	movl	%ecx,	%esi
# CONST (1) / 

	movl	$3,	%edi
# CALL (".elem", 2, false) / 

	pushl	%ebx
	pushl	%ecx
	pushl	%edi
	pushl	%esi
	call	Belem
	addl	$8,	%esp
	popl	%ecx
	popl	%ebx
	movl	%eax,	%esi
# DROP / 

# DROP / 

# DUP / 

	movl	%ebx,	%ecx
# CONST (0) / 

	movl	$1,	%esi
# CALL (".elem", 2, false) / 

	pushl	%ebx
	pushl	%esi
	pushl	%ecx
	call	Belem
	addl	$8,	%esp
	popl	%ebx
	movl	%eax,	%ecx
# ST (Local (4)) / 

	movl	%ecx,	-20(%ebp)
# DROP / 

# DUP / 

	movl	%ebx,	%ecx
# CONST (1) / 

	movl	$3,	%esi
# CALL (".elem", 2, false) / 

	pushl	%ebx
	pushl	%esi
	pushl	%ecx
	call	Belem
	addl	$8,	%esp
	popl	%ebx
	movl	%eax,	%ecx
# ST (Local (3)) / 

	movl	%ecx,	-16(%ebp)
# DROP / 

# DROP / 

# SLABEL ("L335") / 

L335:

# LINE (95) / 

	.stabn 68,0,95,.L33-Leval

.L33:

# LD (Local (2)) / 

	movl	-12(%ebp),	%ebx
# LD (Local (4)) / 

	movl	-20(%ebp),	%ecx
# CALL ("Leval", 2, false) / 

	pushl	%ecx
	pushl	%ebx
	call	Leval
	addl	$8,	%esp
	movl	%eax,	%ebx
# CONST (0) / 

	movl	$1,	%ecx
# CALL (".elem", 2, false) / 

	pushl	%ecx
	pushl	%ebx
	call	Belem
	addl	$8,	%esp
	movl	%eax,	%ebx
# LD (Local (3)) / 

	movl	-16(%ebp),	%ecx
# CALL ("Leval", 2, false) / 

	pushl	%ecx
	pushl	%ebx
	call	Leval
	addl	$8,	%esp
	movl	%eax,	%ebx
# DUP / 

	movl	%ebx,	%ecx
# SLABEL ("L347") / 

L347:

# DUP / 

	movl	%ecx,	%esi
# ARRAY (2) / 

	movl	$5,	%edi
	pushl	%ebx
	pushl	%ecx
	pushl	%edi
	pushl	%esi
	call	Barray_patt
	addl	$8,	%esp
	popl	%ecx
	popl	%ebx
	movl	%eax,	%esi
# CJMP ("nz", "L345") / 

	sarl	%esi
	cmpl	$0,	%esi
	jnz	L345
# LABEL ("L346") / 

L346:

# DROP / 

# JMP ("L337") / 

	jmp	L337
# LABEL ("L345") / 

L345:

# DUP / 

	movl	%ecx,	%esi
# CONST (0) / 

	movl	$1,	%edi
# CALL (".elem", 2, false) / 

	pushl	%ebx
	pushl	%ecx
	pushl	%edi
	pushl	%esi
	call	Belem
	addl	$8,	%esp
	popl	%ecx
	popl	%ebx
	movl	%eax,	%esi
# DROP / 

# DUP / 

	movl	%ecx,	%esi
# CONST (1) / 

	movl	$3,	%edi
# CALL (".elem", 2, false) / 

	pushl	%ebx
	pushl	%ecx
	pushl	%edi
	pushl	%esi
	call	Belem
	addl	$8,	%esp
	popl	%ecx
	popl	%ebx
	movl	%eax,	%esi
# DROP / 

# DROP / 

# DUP / 

	movl	%ebx,	%ecx
# CONST (0) / 

	movl	$1,	%esi
# CALL (".elem", 2, false) / 

	pushl	%ebx
	pushl	%esi
	pushl	%ecx
	call	Belem
	addl	$8,	%esp
	popl	%ebx
	movl	%eax,	%ecx
# ST (Local (6)) / 

	movl	%ecx,	-28(%ebp)
# DROP / 

# DUP / 

	movl	%ebx,	%ecx
# CONST (1) / 

	movl	$3,	%esi
# CALL (".elem", 2, false) / 

	pushl	%ebx
	pushl	%esi
	pushl	%ecx
	call	Belem
	addl	$8,	%esp
	popl	%ebx
	movl	%eax,	%ecx
# ST (Local (5)) / 

	movl	%ecx,	-24(%ebp)
# DROP / 

# DROP / 

# SLABEL ("L349") / 

L349:

# LINE (96) / 

	.stabn 68,0,96,.L34-Leval

.L34:

# LD (Local (5)) / 

	movl	-24(%ebp),	%ebx
# CJMP ("z", "L352") / 

	sarl	%ebx
	cmpl	$0,	%ebx
	jz	L352
# SLABEL ("L353") / 

L353:

# LD (Local (6)) / 

	movl	-28(%ebp),	%ebx
# SEXP ("None", 0) / 

	movl	$21096203,	%ecx
	pushl	%ebx
	pushl	%ecx
	pushl	$3
	call	Bsexp
	addl	$8,	%esp
	popl	%ebx
	movl	%eax,	%ecx
# CALL (".array", 2, true) / 

	pushl	%ecx
	pushl	%ebx
	pushl	$5
	call	Barray
	addl	$12,	%esp
	movl	%eax,	%ebx
# SLABEL ("L354") / 

L354:

# JMP ("L82") / 

	jmp	L82
# LABEL ("L352") / 

L352:

# SLABEL ("L358") / 

L358:

# LD (Local (6)) / 

	movl	-28(%ebp),	%ebx
# LD (Local (4)) / 

	movl	-20(%ebp),	%ecx
# LD (Local (3)) / 

	movl	-16(%ebp),	%esi
# SEXP ("Repeat", 2) / 

	movl	$1479148163,	%edi
	pushl	%ebx
	pushl	%edi
	pushl	%esi
	pushl	%ecx
	pushl	$7
	call	Bsexp
	addl	$16,	%esp
	popl	%ebx
	movl	%eax,	%ecx
# CALL ("Leval", 2, true) / 

	movl	%ebx,	8(%ebp)
	movl	%ecx,	12(%ebp)
	movl	%ebp,	%esp
	popl	%ebp
	jmp	Leval
# SLABEL ("L359") / 

L359:

# JMP ("L82") / 

	jmp	L82
# SLABEL ("L350") / 

L350:

# SLABEL ("L348") / 

L348:

# JMP ("L82") / 

	jmp	L82
# LABEL ("L337") / 

L337:

# FAIL ((95, 10), true) / 

	pushl	$21
	pushl	$191
	pushl	$string_13
	pushl	%ebx
	call	Bmatch_failure
	addl	$12,	%esp
# JMP ("L82") / 

	jmp	L82
# SLABEL ("L336") / 

L336:

# JMP ("L82") / 

	jmp	L82
# SLABEL ("L334") / 

L334:

# SLABEL ("L366") / 

L366:

# LABEL ("L330") / 

L330:

# DUP / 

	movl	%ebx,	%ecx
# DUP / 

	movl	%ecx,	%esi
# TAG ("Ignor", 1) / 

	movl	$1178191781,	%edi
	movl	$3,	-44(%ebp)
	pushl	%ebx
	pushl	%ecx
	pushl	-44(%ebp)
	pushl	%edi
	pushl	%esi
	call	Btag
	addl	$12,	%esp
	popl	%ecx
	popl	%ebx
	movl	%eax,	%esi
# CJMP ("nz", "L364") / 

	sarl	%esi
	cmpl	$0,	%esi
	jnz	L364
# LABEL ("L365") / 

L365:

# DROP / 

# JMP ("L91") / 

	jmp	L91
# LABEL ("L364") / 

L364:

# DUP / 

	movl	%ecx,	%esi
# CONST (0) / 

	movl	$1,	%edi
# CALL (".elem", 2, false) / 

	pushl	%ebx
	pushl	%ecx
	pushl	%edi
	pushl	%esi
	call	Belem
	addl	$8,	%esp
	popl	%ecx
	popl	%ebx
	movl	%eax,	%esi
# DROP / 

# DROP / 

# DUP / 

	movl	%ebx,	%ecx
# CONST (0) / 

	movl	$1,	%esi
# CALL (".elem", 2, false) / 

	pushl	%ebx
	pushl	%esi
	pushl	%ecx
	call	Belem
	addl	$8,	%esp
	popl	%ebx
	movl	%eax,	%ecx
# ST (Local (3)) / 

	movl	%ecx,	-16(%ebp)
# DROP / 

# DROP / 

# SLABEL ("L368") / 

L368:

# LINE (98) / 

	.stabn 68,0,98,.L35-Leval

.L35:

# LD (Local (2)) / 

	movl	-12(%ebp),	%ebx
# LD (Local (3)) / 

	movl	-16(%ebp),	%ecx
# CALL ("Leval", 2, false) / 

	pushl	%ecx
	pushl	%ebx
	call	Leval
	addl	$8,	%esp
	movl	%eax,	%ebx
# CONST (0) / 

	movl	$1,	%ecx
# CALL (".elem", 2, false) / 

	pushl	%ecx
	pushl	%ebx
	call	Belem
	addl	$8,	%esp
	movl	%eax,	%ebx
# SEXP ("None", 0) / 

	movl	$21096203,	%ecx
	pushl	%ebx
	pushl	%ecx
	pushl	$3
	call	Bsexp
	addl	$8,	%esp
	popl	%ebx
	movl	%eax,	%ecx
# CALL (".array", 2, true) / 

	pushl	%ecx
	pushl	%ebx
	pushl	$5
	call	Barray
	addl	$12,	%esp
	movl	%eax,	%ebx
# SLABEL ("L369") / 

L369:

# SLABEL ("L367") / 

L367:

# JMP ("L82") / 

	jmp	L82
# LABEL ("L91") / 

L91:

# FAIL ((67, 8), true) / 

	pushl	$17
	pushl	$135
	pushl	$string_13
	pushl	%ebx
	call	Bmatch_failure
	addl	$12,	%esp
# JMP ("L82") / 

	jmp	L82
# SLABEL ("L90") / 

L90:

# SLABEL ("L88") / 

L88:

# JMP ("L82") / 

	jmp	L82
# LABEL ("L83") / 

L83:

# FAIL ((66, 27), true) / 

	pushl	$55
	pushl	$133
	pushl	$string_13
	pushl	%ebx
	call	Bmatch_failure
	addl	$12,	%esp
# JMP ("L82") / 

	jmp	L82
# LABEL ("L82") / 

L82:

# SLABEL ("L81") / 

L81:

# END / 

	movl	%ebx,	%eax
LLeval_epilogue:

	movl	%ebp,	%esp
	popl	%ebp
	.cfi_restore	5

	.cfi_def_cfa	4, 4

	ret
	.cfi_endproc

	.set	LLeval_SIZE,	52

	.set	LSLeval_SIZE,	13

	.size Leval, .-Leval

# LABEL ("LevalList") / 

LevalList:

# BEGIN ("LevalList", 2, 2, [], ["c"; "exprs"], [{ blab="L377"; elab="L378"; names=[]; subs=[{ blab="L380"; elab="L381"; names=[]; subs=[{ blab="L391"; elab="L392"; names=[("c", 1); ("vals", 0)]; subs=[{ blab="L393"; elab="L394"; names=[]; subs=[]; }]; }]; }]; }]) / 

	.type evalList, @function

	.stabs "evalList:F1",36,0,0,LevalList

	.stabs "c:p1",160,0,0,8

	.stabs "exprs:p1",160,0,0,12

	.stabs "c:1",128,0,0,-8

	.stabs "vals:1",128,0,0,-4

	.stabn 192,0,0,L391-LevalList

	.stabn 224,0,0,L392-LevalList

	.cfi_startproc

	.cfi_adjust_cfa_offset	4

	pushl	%ebp
	.cfi_adjust_cfa_offset	4

	movl	%esp,	%ebp
	.cfi_def_cfa_register	5

	subl	$LLevalList_SIZE,	%esp
	movl	%esp,	%edi
	movl	$filler,	%esi
	movl	$LSLevalList_SIZE,	%ecx
	rep movsl	
# SLABEL ("L377") / 

L377:

# SLABEL ("L380") / 

L380:

# LINE (55) / 

	.stabn 68,0,55,0

	.stabn 68,0,55,.L36-LevalList

.L36:

# CLOSURE ("Llambda_0_56", []) / 

	pushl	$Llambda_0_56
	pushl	$1
	call	Bclosure
	addl	$8,	%esp
	movl	%eax,	%ebx
# LINE (60) / 

	.stabn 68,0,60,.L37-LevalList

.L37:

# LD (Arg (0)) / 

	movl	8(%ebp),	%ecx
# CONST (0) / 

	movl	$1,	%esi
# CALL (".array", 2, false) / 

	pushl	%ebx
	pushl	%esi
	pushl	%ecx
	pushl	$5
	call	Barray
	addl	$12,	%esp
	popl	%ebx
	movl	%eax,	%ecx
# LINE (61) / 

	.stabn 68,0,61,.L38-LevalList

.L38:

# LD (Arg (1)) / 

	movl	12(%ebp),	%esi
# CALL ("Lfoldl", 3, false) / 

	pushl	%esi
	pushl	%ecx
	pushl	%ebx
	call	Lfoldl
	addl	$12,	%esp
	movl	%eax,	%ebx
# DUP / 

	movl	%ebx,	%ecx
# SLABEL ("L391") / 

L391:

# DUP / 

	movl	%ecx,	%esi
# ARRAY (2) / 

	movl	$5,	%edi
	pushl	%ebx
	pushl	%ecx
	pushl	%edi
	pushl	%esi
	call	Barray_patt
	addl	$8,	%esp
	popl	%ecx
	popl	%ebx
	movl	%eax,	%esi
# CJMP ("nz", "L389") / 

	sarl	%esi
	cmpl	$0,	%esi
	jnz	L389
# LABEL ("L390") / 

L390:

# DROP / 

# JMP ("L382") / 

	jmp	L382
# LABEL ("L389") / 

L389:

# DUP / 

	movl	%ecx,	%esi
# CONST (0) / 

	movl	$1,	%edi
# CALL (".elem", 2, false) / 

	pushl	%ebx
	pushl	%ecx
	pushl	%edi
	pushl	%esi
	call	Belem
	addl	$8,	%esp
	popl	%ecx
	popl	%ebx
	movl	%eax,	%esi
# DROP / 

# DUP / 

	movl	%ecx,	%esi
# CONST (1) / 

	movl	$3,	%edi
# CALL (".elem", 2, false) / 

	pushl	%ebx
	pushl	%ecx
	pushl	%edi
	pushl	%esi
	call	Belem
	addl	$8,	%esp
	popl	%ecx
	popl	%ebx
	movl	%eax,	%esi
# DROP / 

# DROP / 

# DUP / 

	movl	%ebx,	%ecx
# CONST (0) / 

	movl	$1,	%esi
# CALL (".elem", 2, false) / 

	pushl	%ebx
	pushl	%esi
	pushl	%ecx
	call	Belem
	addl	$8,	%esp
	popl	%ebx
	movl	%eax,	%ecx
# ST (Local (1)) / 

	movl	%ecx,	-8(%ebp)
# DROP / 

# DUP / 

	movl	%ebx,	%ecx
# CONST (1) / 

	movl	$3,	%esi
# CALL (".elem", 2, false) / 

	pushl	%ebx
	pushl	%esi
	pushl	%ecx
	call	Belem
	addl	$8,	%esp
	popl	%ebx
	movl	%eax,	%ecx
# ST (Local (0)) / 

	movl	%ecx,	-4(%ebp)
# DROP / 

# DROP / 

# SLABEL ("L393") / 

L393:

# LINE (62) / 

	.stabn 68,0,62,.L39-LevalList

.L39:

# LD (Local (1)) / 

	movl	-8(%ebp),	%ebx
# LD (Local (0)) / 

	movl	-4(%ebp),	%ecx
# CALL ("Lreverse", 1, false) / 

	pushl	%ebx
	pushl	%ecx
	call	Lreverse
	addl	$4,	%esp
	popl	%ebx
	movl	%eax,	%ecx
# CALL (".array", 2, true) / 

	pushl	%ecx
	pushl	%ebx
	pushl	$5
	call	Barray
	addl	$12,	%esp
	movl	%eax,	%ebx
# SLABEL ("L394") / 

L394:

# SLABEL ("L392") / 

L392:

# JMP ("L379") / 

	jmp	L379
# LABEL ("L382") / 

L382:

# FAIL ((55, 8), true) / 

	pushl	$17
	pushl	$111
	pushl	$string_13
	pushl	%ebx
	call	Bmatch_failure
	addl	$12,	%esp
# JMP ("L379") / 

	jmp	L379
# SLABEL ("L381") / 

L381:

# LABEL ("L379") / 

L379:

# SLABEL ("L378") / 

L378:

# END / 

	movl	%ebx,	%eax
LLevalList_epilogue:

	movl	%ebp,	%esp
	popl	%ebp
	.cfi_restore	5

	.cfi_def_cfa	4, 4

	ret
	.cfi_endproc

	.set	LLevalList_SIZE,	8

	.set	LSLevalList_SIZE,	2

	.size LevalList, .-LevalList

# LABEL ("Llambda_0_56") / 

Llambda_0_56:

# BEGIN ("Llambda_0_56", 2, 4, [], ["__tmp0"; "e"], [{ blab="L398"; elab="L399"; names=[]; subs=[{ blab="L405"; elab="L406"; names=[("c", 1); ("vals", 0)]; subs=[{ blab="L407"; elab="L408"; names=[]; subs=[{ blab="L415"; elab="L416"; names=[("c", 3); ("val", 2)]; subs=[{ blab="L417"; elab="L418"; names=[]; subs=[]; }]; }]; }]; }]; }]) / 

	.type lambda_0_56, @function

	.stabs "lambda_0_56:F1",36,0,0,Llambda_0_56

	.stabs "__tmp0:p1",160,0,0,8

	.stabs "e:p1",160,0,0,12

	.stabs "c:1",128,0,0,-8

	.stabs "vals:1",128,0,0,-4

	.stabn 192,0,0,L405-Llambda_0_56

	.stabs "c:1",128,0,0,-16

	.stabs "val:1",128,0,0,-12

	.stabn 192,0,0,L415-Llambda_0_56

	.stabn 224,0,0,L416-Llambda_0_56

	.stabn 224,0,0,L406-Llambda_0_56

	.cfi_startproc

	.cfi_adjust_cfa_offset	4

	pushl	%ebp
	.cfi_adjust_cfa_offset	4

	movl	%esp,	%ebp
	.cfi_def_cfa_register	5

	subl	$LLlambda_0_56_SIZE,	%esp
	movl	%esp,	%edi
	movl	$filler,	%esi
	movl	$LSLlambda_0_56_SIZE,	%ecx
	rep movsl	
# SLABEL ("L398") / 

L398:

# LD (Arg (0)) / 

	movl	8(%ebp),	%ebx
# DUP / 

	movl	%ebx,	%ecx
# SLABEL ("L405") / 

L405:

# DUP / 

	movl	%ecx,	%esi
# ARRAY (2) / 

	movl	$5,	%edi
	pushl	%ebx
	pushl	%ecx
	pushl	%edi
	pushl	%esi
	call	Barray_patt
	addl	$8,	%esp
	popl	%ecx
	popl	%ebx
	movl	%eax,	%esi
# CJMP ("nz", "L403") / 

	sarl	%esi
	cmpl	$0,	%esi
	jnz	L403
# LABEL ("L404") / 

L404:

# DROP / 

# JMP ("L401") / 

	jmp	L401
# LABEL ("L403") / 

L403:

# DUP / 

	movl	%ecx,	%esi
# CONST (0) / 

	movl	$1,	%edi
# CALL (".elem", 2, false) / 

	pushl	%ebx
	pushl	%ecx
	pushl	%edi
	pushl	%esi
	call	Belem
	addl	$8,	%esp
	popl	%ecx
	popl	%ebx
	movl	%eax,	%esi
# DROP / 

# DUP / 

	movl	%ecx,	%esi
# CONST (1) / 

	movl	$3,	%edi
# CALL (".elem", 2, false) / 

	pushl	%ebx
	pushl	%ecx
	pushl	%edi
	pushl	%esi
	call	Belem
	addl	$8,	%esp
	popl	%ecx
	popl	%ebx
	movl	%eax,	%esi
# DROP / 

# DROP / 

# DUP / 

	movl	%ebx,	%ecx
# CONST (0) / 

	movl	$1,	%esi
# CALL (".elem", 2, false) / 

	pushl	%ebx
	pushl	%esi
	pushl	%ecx
	call	Belem
	addl	$8,	%esp
	popl	%ebx
	movl	%eax,	%ecx
# ST (Local (1)) / 

	movl	%ecx,	-8(%ebp)
# DROP / 

# DUP / 

	movl	%ebx,	%ecx
# CONST (1) / 

	movl	$3,	%esi
# CALL (".elem", 2, false) / 

	pushl	%ebx
	pushl	%esi
	pushl	%ecx
	call	Belem
	addl	$8,	%esp
	popl	%ebx
	movl	%eax,	%ecx
# ST (Local (0)) / 

	movl	%ecx,	-4(%ebp)
# DROP / 

# DROP / 

# SLABEL ("L407") / 

L407:

# LINE (56) / 

	.stabn 68,0,56,0

	.stabn 68,0,56,.L40-Llambda_0_56

.L40:

# LD (Local (1)) / 

	movl	-8(%ebp),	%ebx
# LD (Arg (1)) / 

	movl	12(%ebp),	%ecx
# CALL ("Leval", 2, false) / 

	pushl	%ecx
	pushl	%ebx
	call	Leval
	addl	$8,	%esp
	movl	%eax,	%ebx
# DUP / 

	movl	%ebx,	%ecx
# SLABEL ("L415") / 

L415:

# DUP / 

	movl	%ecx,	%esi
# ARRAY (2) / 

	movl	$5,	%edi
	pushl	%ebx
	pushl	%ecx
	pushl	%edi
	pushl	%esi
	call	Barray_patt
	addl	$8,	%esp
	popl	%ecx
	popl	%ebx
	movl	%eax,	%esi
# CJMP ("nz", "L413") / 

	sarl	%esi
	cmpl	$0,	%esi
	jnz	L413
# LABEL ("L414") / 

L414:

# DROP / 

# JMP ("L409") / 

	jmp	L409
# LABEL ("L413") / 

L413:

# DUP / 

	movl	%ecx,	%esi
# CONST (0) / 

	movl	$1,	%edi
# CALL (".elem", 2, false) / 

	pushl	%ebx
	pushl	%ecx
	pushl	%edi
	pushl	%esi
	call	Belem
	addl	$8,	%esp
	popl	%ecx
	popl	%ebx
	movl	%eax,	%esi
# DROP / 

# DUP / 

	movl	%ecx,	%esi
# CONST (1) / 

	movl	$3,	%edi
# CALL (".elem", 2, false) / 

	pushl	%ebx
	pushl	%ecx
	pushl	%edi
	pushl	%esi
	call	Belem
	addl	$8,	%esp
	popl	%ecx
	popl	%ebx
	movl	%eax,	%esi
# DROP / 

# DROP / 

# DUP / 

	movl	%ebx,	%ecx
# CONST (0) / 

	movl	$1,	%esi
# CALL (".elem", 2, false) / 

	pushl	%ebx
	pushl	%esi
	pushl	%ecx
	call	Belem
	addl	$8,	%esp
	popl	%ebx
	movl	%eax,	%ecx
# ST (Local (3)) / 

	movl	%ecx,	-16(%ebp)
# DROP / 

# DUP / 

	movl	%ebx,	%ecx
# CONST (1) / 

	movl	$3,	%esi
# CALL (".elem", 2, false) / 

	pushl	%ebx
	pushl	%esi
	pushl	%ecx
	call	Belem
	addl	$8,	%esp
	popl	%ebx
	movl	%eax,	%ecx
# ST (Local (2)) / 

	movl	%ecx,	-12(%ebp)
# DROP / 

# DROP / 

# SLABEL ("L417") / 

L417:

# LINE (57) / 

	.stabn 68,0,57,.L41-Llambda_0_56

.L41:

# LD (Local (3)) / 

	movl	-16(%ebp),	%ebx
# LD (Local (2)) / 

	movl	-12(%ebp),	%ecx
# LD (Local (0)) / 

	movl	-4(%ebp),	%esi
# SEXP ("cons", 2) / 

	movl	$1697575,	%edi
	pushl	%ebx
	pushl	%edi
	pushl	%esi
	pushl	%ecx
	pushl	$7
	call	Bsexp
	addl	$16,	%esp
	popl	%ebx
	movl	%eax,	%ecx
# CALL (".array", 2, true) / 

	pushl	%ecx
	pushl	%ebx
	pushl	$5
	call	Barray
	addl	$12,	%esp
	movl	%eax,	%ebx
# SLABEL ("L418") / 

L418:

# SLABEL ("L416") / 

L416:

# JMP ("L400") / 

	jmp	L400
# LABEL ("L409") / 

L409:

# FAIL ((56, 22), true) / 

	pushl	$45
	pushl	$113
	pushl	$string_13
	pushl	%ebx
	call	Bmatch_failure
	addl	$12,	%esp
# JMP ("L400") / 

	jmp	L400
# SLABEL ("L408") / 

L408:

# SLABEL ("L406") / 

L406:

# JMP ("L400") / 

	jmp	L400
# LABEL ("L401") / 

L401:

# FAIL ((55, 15), true) / 

	pushl	$31
	pushl	$111
	pushl	$string_13
	pushl	%ebx
	call	Bmatch_failure
	addl	$12,	%esp
# JMP ("L400") / 

	jmp	L400
# LABEL ("L400") / 

L400:

# SLABEL ("L399") / 

L399:

# END / 

	movl	%ebx,	%eax
LLlambda_0_56_epilogue:

	movl	%ebp,	%esp
	popl	%ebp
	.cfi_restore	5

	.cfi_def_cfa	4, 4

	ret
	.cfi_endproc

	.set	LLlambda_0_56_SIZE,	16

	.set	LSLlambda_0_56_SIZE,	4

	.size Llambda_0_56, .-Llambda_0_56

# LABEL ("LevalOp") / 

LevalOp:

# BEGIN ("LevalOp", 3, 1, [], ["op"; "l"; "r"], [{ blab="L423"; elab="L424"; names=[]; subs=[{ blab="L426"; elab="L427"; names=[]; subs=[{ blab="L434"; elab="L435"; names=[("f", 0)]; subs=[{ blab="L436"; elab="L437"; names=[]; subs=[]; }]; }]; }]; }]) / 

	.type evalOp, @function

	.stabs "evalOp:F1",36,0,0,LevalOp

	.stabs "op:p1",160,0,0,8

	.stabs "l:p1",160,0,0,12

	.stabs "r:p1",160,0,0,16

	.stabs "f:1",128,0,0,-4

	.stabn 192,0,0,L434-LevalOp

	.stabn 224,0,0,L435-LevalOp

	.cfi_startproc

	.cfi_adjust_cfa_offset	4

	pushl	%ebp
	.cfi_adjust_cfa_offset	4

	movl	%esp,	%ebp
	.cfi_def_cfa_register	5

	subl	$LLevalOp_SIZE,	%esp
	movl	%esp,	%edi
	movl	$filler,	%esi
	movl	$LSLevalOp_SIZE,	%ecx
	rep movsl	
# SLABEL ("L423") / 

L423:

# SLABEL ("L426") / 

L426:

# LINE (27) / 

	.stabn 68,0,27,0

	.stabn 68,0,27,.L42-LevalOp

.L42:

# LD (Global ("ops")) / 

	movl	global_ops,	%ebx
# LD (Arg (0)) / 

	movl	8(%ebp),	%ecx
# CALL ("Lassoc", 2, false) / 

	pushl	%ecx
	pushl	%ebx
	call	Lassoc
	addl	$8,	%esp
	movl	%eax,	%ebx
# DUP / 

	movl	%ebx,	%ecx
# SLABEL ("L434") / 

L434:

# DUP / 

	movl	%ecx,	%esi
# TAG ("Some", 1) / 

	movl	$23717515,	%edi
	movl	$3,	-8(%ebp)
	pushl	%ebx
	pushl	%ecx
	pushl	-8(%ebp)
	pushl	%edi
	pushl	%esi
	call	Btag
	addl	$12,	%esp
	popl	%ecx
	popl	%ebx
	movl	%eax,	%esi
# CJMP ("nz", "L432") / 

	sarl	%esi
	cmpl	$0,	%esi
	jnz	L432
# LABEL ("L433") / 

L433:

# DROP / 

# JMP ("L428") / 

	jmp	L428
# LABEL ("L432") / 

L432:

# DUP / 

	movl	%ecx,	%esi
# CONST (0) / 

	movl	$1,	%edi
# CALL (".elem", 2, false) / 

	pushl	%ebx
	pushl	%ecx
	pushl	%edi
	pushl	%esi
	call	Belem
	addl	$8,	%esp
	popl	%ecx
	popl	%ebx
	movl	%eax,	%esi
# DROP / 

# DROP / 

# DUP / 

	movl	%ebx,	%ecx
# CONST (0) / 

	movl	$1,	%esi
# CALL (".elem", 2, false) / 

	pushl	%ebx
	pushl	%esi
	pushl	%ecx
	call	Belem
	addl	$8,	%esp
	popl	%ebx
	movl	%eax,	%ecx
# ST (Local (0)) / 

	movl	%ecx,	-4(%ebp)
# DROP / 

# DROP / 

# SLABEL ("L436") / 

L436:

# LD (Local (0)) / 

	movl	-4(%ebp),	%ebx
# LD (Arg (1)) / 

	movl	12(%ebp),	%ecx
# LD (Arg (2)) / 

	movl	16(%ebp),	%esi
# CALLC (2, true) / 

	pushl	%ebx
	pushl	%esi
	pushl	%ecx
	movl	%ebx,	%edx
	call	*(%ebx)
	addl	$8,	%esp
	popl	%ebx
	movl	%eax,	%ebx
# SLABEL ("L437") / 

L437:

# SLABEL ("L435") / 

L435:

# JMP ("L425") / 

	jmp	L425
# LABEL ("L428") / 

L428:

# FAIL ((27, 8), true) / 

	pushl	$17
	pushl	$55
	pushl	$string_13
	pushl	%ebx
	call	Bmatch_failure
	addl	$12,	%esp
# JMP ("L425") / 

	jmp	L425
# SLABEL ("L427") / 

L427:

# LABEL ("L425") / 

L425:

# SLABEL ("L424") / 

L424:

# END / 

	movl	%ebx,	%eax
LLevalOp_epilogue:

	movl	%ebp,	%esp
	popl	%ebp
	.cfi_restore	5

	.cfi_def_cfa	4, 4

	ret
	.cfi_endproc

	.set	LLevalOp_SIZE,	8

	.set	LSLevalOp_SIZE,	2

	.size LevalOp, .-LevalOp

