	.file "/compilers-2020/src/Parser.lama"

	.stabs "/compilers-2020/src/Parser.lama",100,0,0,.Ltext

	.globl	global_parse

	.globl	initParser

	.data

string_2:	.string	"!!"

string_5:	.string	"!="

string_14:	.string	"%"

string_21:	.string	"%s at %d:%d\n"

string_3:	.string	"&&"

string_15:	.string	"("

string_16:	.string	")"

string_12:	.string	"*"

string_10:	.string	"+"

string_17:	.string	","

string_11:	.string	"-"

string_13:	.string	"/"

string_1:	.string	":="

string_0:	.string	";"

string_6:	.string	"<"

string_8:	.string	"<="

string_4:	.string	"=="

string_7:	.string	">"

string_9:	.string	">="

string_20:	.string	"Parser.lama"

string_19:	.string	"reference expected"

string_18:	.string	"value expected"

_init:	.int 0

	.section custom_data,"aw",@progbits

filler:	.fill	9, 4, 1

	.stabs "basic:S1",40,0,0,global_basic

global_basic:	.int	1

	.stabs "else_exp:S1",40,0,0,global_else_exp

global_else_exp:	.int	1

	.stabs "exp:S1",40,0,0,global_exp

global_exp:	.int	1

	.stabs "parse:S1",40,0,0,global_parse

global_parse:	.int	1

	.stabs "primary:S1",40,0,0,global_primary

global_primary:	.int	1

	.text

.Ltext:

	.stabs "data:t1=r1;0;4294967295;",128,0,0,0

# PUBLIC ("initParser") / 

# PUBLIC ("global_parse") / 

# EXTERN ("LhashOf") / 

# EXTERN ("LremoveHashTab") / 

# EXTERN ("LfindHashTab") / 

# EXTERN ("LaddHashTab") / 

# EXTERN ("LemptyHashTab") / 

# EXTERN ("LlookupMemo") / 

# EXTERN ("LemptyMemo") / 

# EXTERN ("LemptyCustomMemo") / 

# EXTERN ("LfoldSet") / 

# EXTERN ("LmapSet") / 

# EXTERN ("LiterSet") / 

# EXTERN ("LlistSet") / 

# EXTERN ("Ldiff") / 

# EXTERN ("Lunion") / 

# EXTERN ("Lelements") / 

# EXTERN ("LremoveSet") / 

# EXTERN ("LmemSet") / 

# EXTERN ("LaddSet") / 

# EXTERN ("LemptySet") / 

# EXTERN ("LfoldMap") / 

# EXTERN ("LmapMap") / 

# EXTERN ("LiterMap") / 

# EXTERN ("LlistMap") / 

# EXTERN ("Lbindings") / 

# EXTERN ("LremoveMap") / 

# EXTERN ("LfindMap") / 

# EXTERN ("LaddMap") / 

# EXTERN ("LemptyMap") / 

# EXTERN ("LcompareOf") / 

# EXTERN ("LinternalOf") / 

# EXTERN ("LvalidateColl") / 

# EXTERN ("Li__Infix_585861") / 

# EXTERN ("Lderef") / 

# EXTERN ("Lref") / 

# EXTERN ("LinitMatcher") / 

# EXTERN ("LgetCol") / 

# EXTERN ("LgetLine") / 

# EXTERN ("LmatchRegexp") / 

# EXTERN ("LmatchString") / 

# EXTERN ("LendOfMatcher") / 

# EXTERN ("LshowMatcher") / 

# EXTERN ("LcreateRegexp") / 

# EXTERN ("Lfix") / 

# EXTERN ("Li__Infix_35") / 

# EXTERN ("Li__Infix_36") / 

# EXTERN ("Lid") / 

# EXTERN ("Lfilter") / 

# EXTERN ("Lremove") / 

# EXTERN ("Lunzip") / 

# EXTERN ("Lzip") / 

# EXTERN ("LdeepFlatten") / 

# EXTERN ("Lflatten") / 

# EXTERN ("Lfind") / 

# EXTERN ("Lassoc") / 

# EXTERN ("Lreverse") / 

# EXTERN ("Li__Infix_434343") / 

# EXTERN ("Lmap") / 

# EXTERN ("Liter") / 

# EXTERN ("Lfoldr") / 

# EXTERN ("Lfoldl") / 

# EXTERN ("Lsize") / 

# EXTERN ("Lsingleton") / 

# EXTERN ("global_lident") / 

# EXTERN ("global_end") / 

# EXTERN ("global_pos") / 

# EXTERN ("global_decimal") / 

# EXTERN ("global_kFor") / 

# EXTERN ("global_kUntil") / 

# EXTERN ("global_kRepeat") / 

# EXTERN ("global_kOd") / 

# EXTERN ("global_kDo") / 

# EXTERN ("global_kWhile") / 

# EXTERN ("global_kFi") / 

# EXTERN ("global_kElif") / 

# EXTERN ("global_kElse") / 

# EXTERN ("global_kThen") / 

# EXTERN ("global_kIf") / 

# EXTERN ("global_kSkip") / 

# EXTERN ("global_kWrite") / 

# EXTERN ("global_kRead") / 

# EXTERN ("Ls") / 

# EXTERN ("global_rFor") / 

# EXTERN ("global_rUntil") / 

# EXTERN ("global_rRepeat") / 

# EXTERN ("global_rOd") / 

# EXTERN ("global_rDo") / 

# EXTERN ("global_rWhile") / 

# EXTERN ("global_rFi") / 

# EXTERN ("global_rElif") / 

# EXTERN ("global_rElse") / 

# EXTERN ("global_rThen") / 

# EXTERN ("global_rIf") / 

# EXTERN ("global_rSkip") / 

# EXTERN ("global_rWrite") / 

# EXTERN ("global_rRead") / 

# EXTERN ("global_rLident") / 

# EXTERN ("global_rDecimal") / 

# EXTERN ("global_rWhiteSpace") / 

# EXTERN ("LgetLoc") / 

# EXTERN ("Llocated") / 

# EXTERN ("Lexpr") / 

# EXTERN ("Lright") / 

# EXTERN ("Lleft") / 

# EXTERN ("LparseString") / 

# EXTERN ("Lparse") / 

# EXTERN ("LshowStream") / 

# EXTERN ("Lobserve") / 

# EXTERN ("Llist0") / 

# EXTERN ("Llist") / 

# EXTERN ("Llist0By") / 

# EXTERN ("LlistBy") / 

# EXTERN ("Lrep") / 

# EXTERN ("Lrep0") / 

# EXTERN ("Lopt") / 

# EXTERN ("Lbypass") / 

# EXTERN ("Llift") / 

# EXTERN ("Li__Infix_64") / 

# EXTERN ("Li__Infix_12462") / 

# EXTERN ("Li__Infix_124") / 

# EXTERN ("Lseq") / 

# EXTERN ("Lalt") / 

# EXTERN ("Lempty") / 

# EXTERN ("Leof") / 

# EXTERN ("Lloc") / 

# EXTERN ("Ltoken") / 

# EXTERN ("Lmemo") / 

# EXTERN ("LinitOstap") / 

# EXTERN ("LlogOn") / 

# EXTERN ("LtagHash") / 

# EXTERN ("LflatCompare") / 

# EXTERN ("LcompareTags") / 

# EXTERN ("LkindOf") / 

# EXTERN ("Ltime") / 

# EXTERN ("Lrandom") / 

# EXTERN ("LdisableGC") / 

# EXTERN ("LenableGC") / 

# EXTERN ("Ls__Infix_37") / 

# EXTERN ("Ls__Infix_47") / 

# EXTERN ("Ls__Infix_42") / 

# EXTERN ("Ls__Infix_45") / 

# EXTERN ("Ls__Infix_43") / 

# EXTERN ("Ls__Infix_62") / 

# EXTERN ("Ls__Infix_6261") / 

# EXTERN ("Ls__Infix_60") / 

# EXTERN ("Ls__Infix_6061") / 

# EXTERN ("Ls__Infix_3361") / 

# EXTERN ("Ls__Infix_6161") / 

# EXTERN ("Ls__Infix_3838") / 

# EXTERN ("Ls__Infix_3333") / 

# EXTERN ("Ls__Infix_58") / 

# EXTERN ("Li__Infix_4343") / 

# EXTERN ("Lcompare") / 

# EXTERN ("Lwrite") / 

# EXTERN ("Lread") / 

# EXTERN ("Lfailure") / 

# EXTERN ("Lfwrite") / 

# EXTERN ("Lfread") / 

# EXTERN ("Lfclose") / 

# EXTERN ("Lfopen") / 

# EXTERN ("Lfprintf") / 

# EXTERN ("Lprintf") / 

# EXTERN ("LmakeString") / 

# EXTERN ("Lsprintf") / 

# EXTERN ("LregexpMatch") / 

# EXTERN ("Lregexp") / 

# EXTERN ("Lsubstring") / 

# EXTERN ("LmatchSubString") / 

# EXTERN ("Lstringcat") / 

# EXTERN ("LreadLine") / 

# EXTERN ("Ltl") / 

# EXTERN ("Lhd") / 

# EXTERN ("Lsnd") / 

# EXTERN ("Lfst") / 

# EXTERN ("Lhash") / 

# EXTERN ("Lclone") / 

# EXTERN ("LmakeArray") / 

# EXTERN ("LstringInt") / 

# EXTERN ("global_sysargs") / 

# EXTERN ("Lsystem") / 

# EXTERN ("LgetEnv") / 

# EXTERN ("Lexpr") / 

# EXTERN ("Lright") / 

# EXTERN ("Lleft") / 

# EXTERN ("LparseString") / 

# EXTERN ("Lparse") / 

# EXTERN ("LshowStream") / 

# EXTERN ("Lobserve") / 

# EXTERN ("Llist0") / 

# EXTERN ("Llist") / 

# EXTERN ("Llist0By") / 

# EXTERN ("LlistBy") / 

# EXTERN ("Lrep") / 

# EXTERN ("Lrep0") / 

# EXTERN ("Lopt") / 

# EXTERN ("Lbypass") / 

# EXTERN ("Llift") / 

# EXTERN ("Li__Infix_64") / 

# EXTERN ("Li__Infix_12462") / 

# EXTERN ("Li__Infix_124") / 

# EXTERN ("Lseq") / 

# EXTERN ("Lalt") / 

# EXTERN ("Lempty") / 

# EXTERN ("Leof") / 

# EXTERN ("Lloc") / 

# EXTERN ("Ltoken") / 

# EXTERN ("Lmemo") / 

# EXTERN ("LinitOstap") / 

# EXTERN ("LlogOn") / 

# EXTERN ("Lexpr") / 

# EXTERN ("Lright") / 

# EXTERN ("Lleft") / 

# EXTERN ("LparseString") / 

# EXTERN ("Lparse") / 

# EXTERN ("LshowStream") / 

# EXTERN ("Lobserve") / 

# EXTERN ("Llist0") / 

# EXTERN ("Llist") / 

# EXTERN ("Llist0By") / 

# EXTERN ("LlistBy") / 

# EXTERN ("Lrep") / 

# EXTERN ("Lrep0") / 

# EXTERN ("Lopt") / 

# EXTERN ("Lbypass") / 

# EXTERN ("Llift") / 

# EXTERN ("Li__Infix_64") / 

# EXTERN ("Li__Infix_12462") / 

# EXTERN ("Li__Infix_124") / 

# EXTERN ("Lseq") / 

# EXTERN ("Lalt") / 

# EXTERN ("Lempty") / 

# EXTERN ("Leof") / 

# EXTERN ("Lloc") / 

# EXTERN ("Ltoken") / 

# EXTERN ("Lmemo") / 

# EXTERN ("LinitOstap") / 

# EXTERN ("LlogOn") / 

# EXTERN ("Lexpr") / 

# EXTERN ("Lright") / 

# EXTERN ("Lleft") / 

# EXTERN ("LparseString") / 

# EXTERN ("Lparse") / 

# EXTERN ("LshowStream") / 

# EXTERN ("Lobserve") / 

# EXTERN ("Llist0") / 

# EXTERN ("Llist") / 

# EXTERN ("Llist0By") / 

# EXTERN ("LlistBy") / 

# EXTERN ("Lrep") / 

# EXTERN ("Lrep0") / 

# EXTERN ("Lopt") / 

# EXTERN ("Lbypass") / 

# EXTERN ("Llift") / 

# EXTERN ("Li__Infix_64") / 

# EXTERN ("Li__Infix_12462") / 

# EXTERN ("Li__Infix_124") / 

# EXTERN ("Lseq") / 

# EXTERN ("Lalt") / 

# EXTERN ("Lempty") / 

# EXTERN ("Leof") / 

# EXTERN ("Lloc") / 

# EXTERN ("Ltoken") / 

# EXTERN ("Lmemo") / 

# EXTERN ("LinitOstap") / 

# EXTERN ("LlogOn") / 

# EXTERN ("Lexpr") / 

# EXTERN ("Lright") / 

# EXTERN ("Lleft") / 

# EXTERN ("LparseString") / 

# EXTERN ("Lparse") / 

# EXTERN ("LshowStream") / 

# EXTERN ("Lobserve") / 

# EXTERN ("Llist0") / 

# EXTERN ("Llist") / 

# EXTERN ("Llist0By") / 

# EXTERN ("LlistBy") / 

# EXTERN ("Lrep") / 

# EXTERN ("Lrep0") / 

# EXTERN ("Lopt") / 

# EXTERN ("Lbypass") / 

# EXTERN ("Llift") / 

# EXTERN ("Li__Infix_64") / 

# EXTERN ("Li__Infix_12462") / 

# EXTERN ("Li__Infix_124") / 

# EXTERN ("Lseq") / 

# EXTERN ("Lalt") / 

# EXTERN ("Lempty") / 

# EXTERN ("Leof") / 

# EXTERN ("Lloc") / 

# EXTERN ("Ltoken") / 

# EXTERN ("Lmemo") / 

# EXTERN ("LinitOstap") / 

# EXTERN ("LlogOn") / 

# EXTERN ("Lexpr") / 

# EXTERN ("Lright") / 

# EXTERN ("Lleft") / 

# EXTERN ("LparseString") / 

# EXTERN ("Lparse") / 

# EXTERN ("LshowStream") / 

# EXTERN ("Lobserve") / 

# EXTERN ("Llist0") / 

# EXTERN ("Llist") / 

# EXTERN ("Llist0By") / 

# EXTERN ("LlistBy") / 

# EXTERN ("Lrep") / 

# EXTERN ("Lrep0") / 

# EXTERN ("Lopt") / 

# EXTERN ("Lbypass") / 

# EXTERN ("Llift") / 

# EXTERN ("Li__Infix_64") / 

# EXTERN ("Li__Infix_12462") / 

# EXTERN ("Li__Infix_124") / 

# EXTERN ("Lseq") / 

# EXTERN ("Lalt") / 

# EXTERN ("Lempty") / 

# EXTERN ("Leof") / 

# EXTERN ("Lloc") / 

# EXTERN ("Ltoken") / 

# EXTERN ("Lmemo") / 

# EXTERN ("LinitOstap") / 

# EXTERN ("LlogOn") / 

# EXTERN ("Lexpr") / 

# EXTERN ("Lright") / 

# EXTERN ("Lleft") / 

# EXTERN ("LparseString") / 

# EXTERN ("Lparse") / 

# EXTERN ("LshowStream") / 

# EXTERN ("Lobserve") / 

# EXTERN ("Llist0") / 

# EXTERN ("Llist") / 

# EXTERN ("Llist0By") / 

# EXTERN ("LlistBy") / 

# EXTERN ("Lrep") / 

# EXTERN ("Lrep0") / 

# EXTERN ("Lopt") / 

# EXTERN ("Lbypass") / 

# EXTERN ("Llift") / 

# EXTERN ("Li__Infix_64") / 

# EXTERN ("Li__Infix_12462") / 

# EXTERN ("Li__Infix_124") / 

# EXTERN ("Lseq") / 

# EXTERN ("Lalt") / 

# EXTERN ("Lempty") / 

# EXTERN ("Leof") / 

# EXTERN ("Lloc") / 

# EXTERN ("Ltoken") / 

# EXTERN ("Lmemo") / 

# EXTERN ("LinitOstap") / 

# EXTERN ("LlogOn") / 

# EXTERN ("Lexpr") / 

# EXTERN ("Lright") / 

# EXTERN ("Lleft") / 

# EXTERN ("LparseString") / 

# EXTERN ("Lparse") / 

# EXTERN ("LshowStream") / 

# EXTERN ("Lobserve") / 

# EXTERN ("Llist0") / 

# EXTERN ("Llist") / 

# EXTERN ("Llist0By") / 

# EXTERN ("LlistBy") / 

# EXTERN ("Lrep") / 

# EXTERN ("Lrep0") / 

# EXTERN ("Lopt") / 

# EXTERN ("Lbypass") / 

# EXTERN ("Llift") / 

# EXTERN ("Li__Infix_64") / 

# EXTERN ("Li__Infix_12462") / 

# EXTERN ("Li__Infix_124") / 

# EXTERN ("Lseq") / 

# EXTERN ("Lalt") / 

# EXTERN ("Lempty") / 

# EXTERN ("Leof") / 

# EXTERN ("Lloc") / 

# EXTERN ("Ltoken") / 

# EXTERN ("Lmemo") / 

# EXTERN ("LinitOstap") / 

# EXTERN ("LlogOn") / 

# EXTERN ("Lexpr") / 

# EXTERN ("Lright") / 

# EXTERN ("Lleft") / 

# EXTERN ("LparseString") / 

# EXTERN ("Lparse") / 

# EXTERN ("LshowStream") / 

# EXTERN ("Lobserve") / 

# EXTERN ("Llist0") / 

# EXTERN ("Llist") / 

# EXTERN ("Llist0By") / 

# EXTERN ("LlistBy") / 

# EXTERN ("Lrep") / 

# EXTERN ("Lrep0") / 

# EXTERN ("Lopt") / 

# EXTERN ("Lbypass") / 

# EXTERN ("Llift") / 

# EXTERN ("Li__Infix_64") / 

# EXTERN ("Li__Infix_12462") / 

# EXTERN ("Li__Infix_124") / 

# EXTERN ("Lseq") / 

# EXTERN ("Lalt") / 

# EXTERN ("Lempty") / 

# EXTERN ("Leof") / 

# EXTERN ("Lloc") / 

# EXTERN ("Ltoken") / 

# EXTERN ("Lmemo") / 

# EXTERN ("LinitOstap") / 

# EXTERN ("LlogOn") / 

# EXTERN ("Lexpr") / 

# EXTERN ("Lright") / 

# EXTERN ("Lleft") / 

# EXTERN ("LparseString") / 

# EXTERN ("Lparse") / 

# EXTERN ("LshowStream") / 

# EXTERN ("Lobserve") / 

# EXTERN ("Llist0") / 

# EXTERN ("Llist") / 

# EXTERN ("Llist0By") / 

# EXTERN ("LlistBy") / 

# EXTERN ("Lrep") / 

# EXTERN ("Lrep0") / 

# EXTERN ("Lopt") / 

# EXTERN ("Lbypass") / 

# EXTERN ("Llift") / 

# EXTERN ("Li__Infix_64") / 

# EXTERN ("Li__Infix_12462") / 

# EXTERN ("Li__Infix_124") / 

# EXTERN ("Lseq") / 

# EXTERN ("Lalt") / 

# EXTERN ("Lempty") / 

# EXTERN ("Leof") / 

# EXTERN ("Lloc") / 

# EXTERN ("Ltoken") / 

# EXTERN ("Lmemo") / 

# EXTERN ("LinitOstap") / 

# EXTERN ("LlogOn") / 

# LABEL ("initParser") / 

initParser:

# BEGIN ("initParser", 0, 0, [], [], []) / 

	.type initParser, @function

	.stabs "initParser:F1",36,0,0,initParser

	.cfi_startproc

	movl	_init,	%eax
	test	%eax,	%eax
	jz	_continue
	ret
_continue:

	movl	$1,	_init
	pushl	%ebp
	.cfi_def_cfa_offset	8

	.cfi_offset 5, -8

	movl	%esp,	%ebp
	.cfi_def_cfa_register	5

	subl	$LinitParser_SIZE,	%esp
	movl	%esp,	%edi
	movl	$filler,	%esi
	movl	$LSinitParser_SIZE,	%ecx
	rep movsl	
	call	initOstap
	call	initOstap
	call	initOstap
	call	initOstap
	call	initOstap
	call	initOstap
	call	initOstap
	call	initOstap
	call	initOstap
	call	initOstap
	call	initLexer
	call	initList
	call	initFun
	call	initMatcher
	call	initRef
	call	initCollection
# SLABEL ("L1") / 

L1:

# CLOSURE ("Lmemo", []) / 

	pushl	$Lmemo
	pushl	$1
	call	Bclosure
	addl	$8,	%esp
	movl	%eax,	%ebx
# CLOSURE ("Llambda_0", []) / 

	pushl	%ebx
	pushl	$Llambda_0
	pushl	$1
	call	Bclosure
	addl	$8,	%esp
	movl	%eax,	%ecx
	popl	%ebx
# CALL ("Li__Infix_36", 2, false) / 

	pushl	%ecx
	pushl	%ebx
	call	Li__Infix_36
	addl	$8,	%esp
	movl	%eax,	%ebx
# LINE (109) / 

	.stabn 68,0,109,0

	.stabn 68,0,109,.L0-initParser

.L0:

# ST (Global ("primary")) / 

	movl	%ebx,	global_primary
# DROP / 

# LINE (143) / 

	.stabn 68,0,143,.L1-initParser

.L1:

# CLOSURE ("Lmemo", []) / 

	pushl	$Lmemo
	pushl	$1
	call	Bclosure
	addl	$8,	%esp
	movl	%eax,	%ebx
# CLOSURE ("Llambda_1", []) / 

	pushl	%ebx
	pushl	$Llambda_1
	pushl	$1
	call	Bclosure
	addl	$8,	%esp
	movl	%eax,	%ecx
	popl	%ebx
# CALL ("Li__Infix_36", 2, false) / 

	pushl	%ecx
	pushl	%ebx
	call	Li__Infix_36
	addl	$8,	%esp
	movl	%eax,	%ebx
# LINE (141) / 

	.stabn 68,0,141,.L2-initParser

.L2:

# ST (Global ("else_exp")) / 

	movl	%ebx,	global_else_exp
# DROP / 

# LINE (150) / 

	.stabn 68,0,150,.L3-initParser

.L3:

# CLOSURE ("Lmemo", []) / 

	pushl	$Lmemo
	pushl	$1
	call	Bclosure
	addl	$8,	%esp
	movl	%eax,	%ebx
# CLOSURE ("Llambda_2", []) / 

	pushl	%ebx
	pushl	$Llambda_2
	pushl	$1
	call	Bclosure
	addl	$8,	%esp
	movl	%eax,	%ecx
	popl	%ebx
# CALL ("Li__Infix_36", 2, false) / 

	pushl	%ecx
	pushl	%ebx
	call	Li__Infix_36
	addl	$8,	%esp
	movl	%eax,	%ebx
# LINE (147) / 

	.stabn 68,0,147,.L4-initParser

.L4:

# ST (Global ("basic")) / 

	movl	%ebx,	global_basic
# DROP / 

# LINE (163) / 

	.stabn 68,0,163,.L5-initParser

.L5:

# CLOSURE ("Lmemo", []) / 

	pushl	$Lmemo
	pushl	$1
	call	Bclosure
	addl	$8,	%esp
	movl	%eax,	%ebx
# CLOSURE ("Llambda_3", []) / 

	pushl	%ebx
	pushl	$Llambda_3
	pushl	$1
	call	Bclosure
	addl	$8,	%esp
	movl	%eax,	%ecx
	popl	%ebx
# CALL ("Li__Infix_36", 2, false) / 

	pushl	%ecx
	pushl	%ebx
	call	Li__Infix_36
	addl	$8,	%esp
	movl	%eax,	%ebx
# LINE (160) / 

	.stabn 68,0,160,.L6-initParser

.L6:

# ST (Global ("exp")) / 

	movl	%ebx,	global_exp
# DROP / 

# LD (Global ("exp")) / 

	movl	global_exp,	%ebx
# CLOSURE ("Llambda_4", []) / 

	pushl	%ebx
	pushl	$Llambda_4
	pushl	$1
	call	Bclosure
	addl	$8,	%esp
	movl	%eax,	%ecx
	popl	%ebx
# CALL ("Li__Infix_64", 2, false) / 

	pushl	%ecx
	pushl	%ebx
	call	Li__Infix_64
	addl	$8,	%esp
	movl	%eax,	%ebx
# LINE (167) / 

	.stabn 68,0,167,.L7-initParser

.L7:

# ST (Global ("parse")) / 

	movl	%ebx,	global_parse
# DROP / 

# CONST (0) / 

	movl	$1,	%ebx
# SLABEL ("L2") / 

L2:

# END / 

	movl	%ebx,	%eax
LinitParser_epilogue:

	movl	%ebp,	%esp
	popl	%ebp
	.cfi_restore	5

	.cfi_def_cfa	4, 4

	ret
	.cfi_endproc

	.set	LinitParser_SIZE,	0

	.set	LSinitParser_SIZE,	0

	.size initParser, .-initParser

# LABEL ("Llambda_4") / 

Llambda_4:

# BEGIN ("Llambda_4", 1, 0, [], ["s"], [{ blab="L29"; elab="L30"; names=[]; subs=[{ blab="L32"; elab="L33"; names=[]; subs=[]; }]; }]) / 

	.type lambda_4, @function

	.stabs "lambda_4:F1",36,0,0,Llambda_4

	.stabs "s:p1",160,0,0,8

	.cfi_startproc

	pushl	%ebp
	.cfi_def_cfa_offset	8

	.cfi_offset 5, -8

	movl	%esp,	%ebp
	.cfi_def_cfa_register	5

	subl	$LLlambda_4_SIZE,	%esp
	movl	%esp,	%edi
	movl	$filler,	%esi
	movl	$LSLlambda_4_SIZE,	%ecx
	rep movsl	
# SLABEL ("L29") / 

L29:

# SLABEL ("L32") / 

L32:

# LD (Arg (0)) / 

	movl	8(%ebp),	%ebx
# SEXP ("Void", 0) / 

	movl	$25289865,	%ecx
	pushl	%ebx
	pushl	%ecx
	pushl	$3
	call	Bsexp
	addl	$8,	%esp
	popl	%ebx
	movl	%eax,	%ecx
# CALLC (1, true) / 

	movl	%ecx,	8(%ebp)
	movl	%ebx,	%edx
	movl	(%edx),	%eax
	movl	%ebp,	%esp
	popl	%ebp
	jmp	*%eax
# SLABEL ("L33") / 

L33:

# LABEL ("L31") / 

L31:

# SLABEL ("L30") / 

L30:

# END / 

	movl	%ebx,	%eax
LLlambda_4_epilogue:

	movl	%ebp,	%esp
	popl	%ebp
	.cfi_restore	5

	.cfi_def_cfa	4, 4

	ret
	.cfi_endproc

	.set	LLlambda_4_SIZE,	0

	.set	LSLlambda_4_SIZE,	0

	.size Llambda_4, .-Llambda_4

# LABEL ("Llambda_3") / 

Llambda_3:

# BEGIN ("Llambda_3", 1, 0, [], ["__tmp357"], [{ blab="L37"; elab="L38"; names=[]; subs=[]; }]) / 

	.type lambda_3, @function

	.stabs "lambda_3:F1",36,0,0,Llambda_3

	.stabs "__tmp357:p1",160,0,0,8

	.cfi_startproc

	pushl	%ebp
	.cfi_def_cfa_offset	8

	.cfi_offset 5, -8

	movl	%esp,	%ebp
	.cfi_def_cfa_register	5

	subl	$LLlambda_3_SIZE,	%esp
	movl	%esp,	%edi
	movl	$filler,	%esi
	movl	$LSLlambda_3_SIZE,	%ecx
	rep movsl	
# SLABEL ("L37") / 

L37:

# LINE (163) / 

	.stabn 68,0,163,0

	.stabn 68,0,163,.L8-Llambda_3

.L8:

# LD (Global ("basic")) / 

	movl	global_basic,	%ebx
# CLOSURE ("Llambda_5_4", []) / 

	pushl	%ebx
	pushl	$Llambda_5_4
	pushl	$1
	call	Bclosure
	addl	$8,	%esp
	movl	%eax,	%ecx
	popl	%ebx
# CALL ("Lseq", 2, false) / 

	pushl	%ecx
	pushl	%ebx
	call	Lseq
	addl	$8,	%esp
	movl	%eax,	%ebx
# LD (Global ("basic")) / 

	movl	global_basic,	%ecx
# CLOSURE ("Llambda_6_4", []) / 

	pushl	%ebx
	pushl	%ecx
	pushl	$Llambda_6_4
	pushl	$1
	call	Bclosure
	addl	$8,	%esp
	movl	%eax,	%esi
	popl	%ecx
	popl	%ebx
# CALL ("Li__Infix_64", 2, false) / 

	pushl	%ebx
	pushl	%esi
	pushl	%ecx
	call	Li__Infix_64
	addl	$8,	%esp
	popl	%ebx
	movl	%eax,	%ecx
# CALL ("Lalt", 2, false) / 

	pushl	%ecx
	pushl	%ebx
	call	Lalt
	addl	$8,	%esp
	movl	%eax,	%ebx
# LD (Arg (0)) / 

	movl	8(%ebp),	%ecx
# CALLC (1, true) / 

	movl	%ecx,	8(%ebp)
	movl	%ebx,	%edx
	movl	(%edx),	%eax
	movl	%ebp,	%esp
	popl	%ebp
	jmp	*%eax
# LABEL ("L39") / 

L39:

# SLABEL ("L38") / 

L38:

# END / 

	movl	%ebx,	%eax
LLlambda_3_epilogue:

	movl	%ebp,	%esp
	popl	%ebp
	.cfi_restore	5

	.cfi_def_cfa	4, 4

	ret
	.cfi_endproc

	.set	LLlambda_3_SIZE,	0

	.set	LSLlambda_3_SIZE,	0

	.size Llambda_3, .-Llambda_3

# LABEL ("Llambda_6_4") / 

Llambda_6_4:

# BEGIN ("Llambda_6_4", 1, 0, [], ["__tmp348"], [{ blab="L48"; elab="L49"; names=[]; subs=[]; }]) / 

	.type lambda_6_4, @function

	.stabs "lambda_6_4:F1",36,0,0,Llambda_6_4

	.stabs "__tmp348:p1",160,0,0,8

	.cfi_startproc

	pushl	%ebp
	.cfi_def_cfa_offset	8

	.cfi_offset 5, -8

	movl	%esp,	%ebp
	.cfi_def_cfa_register	5

	subl	$LLlambda_6_4_SIZE,	%esp
	movl	%esp,	%edi
	movl	$filler,	%esi
	movl	$LSLlambda_6_4_SIZE,	%ecx
	rep movsl	
# SLABEL ("L48") / 

L48:

# LD (Arg (0)) / 

	movl	8(%ebp),	%ebx
# LABEL ("L50") / 

L50:

# SLABEL ("L49") / 

L49:

# END / 

	movl	%ebx,	%eax
LLlambda_6_4_epilogue:

	movl	%ebp,	%esp
	popl	%ebp
	.cfi_restore	5

	.cfi_def_cfa	4, 4

	ret
	.cfi_endproc

	.set	LLlambda_6_4_SIZE,	0

	.set	LSLlambda_6_4_SIZE,	0

	.size Llambda_6_4, .-Llambda_6_4

# LABEL ("Llambda_5_4") / 

Llambda_5_4:

# BEGIN ("Llambda_5_4", 1, 0, [], ["s1"], [{ blab="L51"; elab="L52"; names=[]; subs=[]; }]) / 

	.type lambda_5_4, @function

	.stabs "lambda_5_4:F1",36,0,0,Llambda_5_4

	.stabs "s1:p1",160,0,0,8

	.cfi_startproc

	pushl	%ebp
	.cfi_def_cfa_offset	8

	.cfi_offset 5, -8

	movl	%esp,	%ebp
	.cfi_def_cfa_register	5

	subl	$LLlambda_5_4_SIZE,	%esp
	movl	%esp,	%edi
	movl	$filler,	%esi
	movl	$LSLlambda_5_4_SIZE,	%ecx
	rep movsl	
# SLABEL ("L51") / 

L51:

# STRING (";") / 

	movl	$string_0,	%ebx
	pushl	%ebx
	call	Bstring
	addl	$4,	%esp
	movl	%eax,	%ebx
# CALL ("Ls", 1, false) / 

	pushl	%ebx
	call	Ls
	addl	$4,	%esp
	movl	%eax,	%ebx
# CLOSURE ("Llambda_7_6", [Arg (0)]) / 

	pushl	%ebx
	pushl	8(%ebp)
	pushl	$Llambda_7_6
	pushl	$3
	call	Bclosure
	addl	$12,	%esp
	movl	%eax,	%ecx
	popl	%ebx
# CALL ("Lseq", 2, true) / 

	pushl	%ecx
	pushl	%ebx
	call	Lseq
	addl	$8,	%esp
	movl	%eax,	%ebx
# LABEL ("L53") / 

L53:

# SLABEL ("L52") / 

L52:

# END / 

	movl	%ebx,	%eax
LLlambda_5_4_epilogue:

	movl	%ebp,	%esp
	popl	%ebp
	.cfi_restore	5

	.cfi_def_cfa	4, 4

	ret
	.cfi_endproc

	.set	LLlambda_5_4_SIZE,	0

	.set	LSLlambda_5_4_SIZE,	0

	.size Llambda_5_4, .-Llambda_5_4

# LABEL ("Llambda_7_6") / 

Llambda_7_6:

# BEGIN ("Llambda_7_6", 1, 0, [Arg (0)], ["__tmp347"], [{ blab="L57"; elab="L58"; names=[]; subs=[]; }]) / 

	.type lambda_7_6, @function

	.stabs "lambda_7_6:F1",36,0,0,Llambda_7_6

	.stabs "__tmp347:p1",160,0,0,8

	.cfi_startproc

	pushl	%edx
	pushl	%ebp
	.cfi_def_cfa_offset	12

	.cfi_offset 5, -12

	movl	%esp,	%ebp
	.cfi_def_cfa_register	5

	subl	$LLlambda_7_6_SIZE,	%esp
	movl	%esp,	%edi
	movl	$filler,	%esi
	movl	$LSLlambda_7_6_SIZE,	%ecx
	rep movsl	
# SLABEL ("L57") / 

L57:

# LD (Global ("exp")) / 

	movl	global_exp,	%ebx
# CLOSURE ("Llambda_8_7", [Access (0)]) / 

	pushl	%ebx
	pushl	4(%edx)
	pushl	$Llambda_8_7
	pushl	$3
	call	Bclosure
	addl	$12,	%esp
	movl	%eax,	%ecx
	popl	%ebx
	movl	4(%ebp),	%edx
# CALL ("Li__Infix_64", 2, true) / 

	pushl	%edx
	pushl	%ecx
	pushl	%ebx
	call	Li__Infix_64
	addl	$8,	%esp
	popl	%edx
	movl	%eax,	%ebx
# LABEL ("L59") / 

L59:

# SLABEL ("L58") / 

L58:

# END / 

	movl	%ebx,	%eax
LLlambda_7_6_epilogue:

	movl	%ebp,	%esp
	popl	%ebp
	popl	%edx
	.cfi_restore	5

	.cfi_def_cfa	4, 4

	ret
	.cfi_endproc

	.set	LLlambda_7_6_SIZE,	0

	.set	LSLlambda_7_6_SIZE,	0

	.size Llambda_7_6, .-Llambda_7_6

# LABEL ("Llambda_8_7") / 

Llambda_8_7:

# BEGIN ("Llambda_8_7", 1, 0, [Access (0)], ["s2"], [{ blab="L62"; elab="L63"; names=[]; subs=[{ blab="L65"; elab="L66"; names=[]; subs=[]; }]; }]) / 

	.type lambda_8_7, @function

	.stabs "lambda_8_7:F1",36,0,0,Llambda_8_7

	.stabs "s2:p1",160,0,0,8

	.cfi_startproc

	pushl	%edx
	pushl	%ebp
	.cfi_def_cfa_offset	12

	.cfi_offset 5, -12

	movl	%esp,	%ebp
	.cfi_def_cfa_register	5

	subl	$LLlambda_8_7_SIZE,	%esp
	movl	%esp,	%edi
	movl	$filler,	%esi
	movl	$LSLlambda_8_7_SIZE,	%ecx
	rep movsl	
# SLABEL ("L62") / 

L62:

# SLABEL ("L65") / 

L65:

# CLOSURE ("Llambda_9_9", [Access (0); Arg (0)]) / 

	pushl	12(%ebp)
	pushl	4(%edx)
	pushl	$Llambda_9_9
	pushl	$5
	call	Bclosure
	addl	$16,	%esp
	movl	%eax,	%ebx
	movl	4(%ebp),	%edx
# SLABEL ("L66") / 

L66:

# LABEL ("L64") / 

L64:

# SLABEL ("L63") / 

L63:

# END / 

	movl	%ebx,	%eax
LLlambda_8_7_epilogue:

	movl	%ebp,	%esp
	popl	%ebp
	popl	%edx
	.cfi_restore	5

	.cfi_def_cfa	4, 4

	ret
	.cfi_endproc

	.set	LLlambda_8_7_SIZE,	0

	.set	LSLlambda_8_7_SIZE,	0

	.size Llambda_8_7, .-Llambda_8_7

# LABEL ("Llambda_9_9") / 

Llambda_9_9:

# BEGIN ("Llambda_9_9", 1, 0, [Access (0); Arg (0)], ["a"], [{ blab="L67"; elab="L68"; names=[]; subs=[{ blab="L70"; elab="L71"; names=[]; subs=[]; }]; }]) / 

	.type lambda_9_9, @function

	.stabs "lambda_9_9:F1",36,0,0,Llambda_9_9

	.stabs "a:p1",160,0,0,8

	.cfi_startproc

	pushl	%edx
	pushl	%ebp
	.cfi_def_cfa_offset	12

	.cfi_offset 5, -12

	movl	%esp,	%ebp
	.cfi_def_cfa_register	5

	subl	$LLlambda_9_9_SIZE,	%esp
	movl	%esp,	%edi
	movl	$filler,	%esi
	movl	$LSLlambda_9_9_SIZE,	%ecx
	rep movsl	
# SLABEL ("L67") / 

L67:

# SLABEL ("L70") / 

L70:

# LD (Access (0)) / 

	movl	4(%edx),	%ebx
# SEXP ("Void", 0) / 

	movl	$25289865,	%ecx
	pushl	%edx
	pushl	%ebx
	pushl	%ecx
	pushl	$3
	call	Bsexp
	addl	$8,	%esp
	popl	%ebx
	popl	%edx
	movl	%eax,	%ecx
# CALLC (1, false) / 

	pushl	%edx
	pushl	%ebx
	pushl	%ecx
	movl	%ebx,	%edx
	call	*(%ebx)
	addl	$4,	%esp
	popl	%ebx
	popl	%edx
	movl	%eax,	%ebx
# LD (Access (1)) / 

	movl	8(%edx),	%ecx
# LD (Arg (0)) / 

	movl	12(%ebp),	%esi
# CALLC (1, false) / 

	pushl	%edx
	pushl	%ebx
	pushl	%ecx
	pushl	%esi
	movl	%ecx,	%edx
	call	*(%ecx)
	addl	$4,	%esp
	popl	%ecx
	popl	%ebx
	popl	%edx
	movl	%eax,	%ecx
# SEXP ("Seq", 2) / 

	movl	$369315,	%esi
	pushl	%edx
	pushl	%esi
	pushl	%ecx
	pushl	%ebx
	pushl	$7
	call	Bsexp
	addl	$16,	%esp
	popl	%edx
	movl	%eax,	%ebx
# SLABEL ("L71") / 

L71:

# LABEL ("L69") / 

L69:

# SLABEL ("L68") / 

L68:

# END / 

	movl	%ebx,	%eax
LLlambda_9_9_epilogue:

	movl	%ebp,	%esp
	popl	%ebp
	popl	%edx
	.cfi_restore	5

	.cfi_def_cfa	4, 4

	ret
	.cfi_endproc

	.set	LLlambda_9_9_SIZE,	0

	.set	LSLlambda_9_9_SIZE,	0

	.size Llambda_9_9, .-Llambda_9_9

# LABEL ("Llambda_2") / 

Llambda_2:

# BEGIN ("Llambda_2", 1, 0, [], ["__tmp340"], [{ blab="L79"; elab="L80"; names=[]; subs=[]; }]) / 

	.type lambda_2, @function

	.stabs "lambda_2:F1",36,0,0,Llambda_2

	.stabs "__tmp340:p1",160,0,0,8

	.cfi_startproc

	pushl	%ebp
	.cfi_def_cfa_offset	8

	.cfi_offset 5, -8

	movl	%esp,	%ebp
	.cfi_def_cfa_register	5

	subl	$LLlambda_2_SIZE,	%esp
	movl	%esp,	%edi
	movl	$filler,	%esi
	movl	$LSLlambda_2_SIZE,	%ecx
	rep movsl	
# SLABEL ("L79") / 

L79:

# LINE (150) / 

	.stabn 68,0,150,0

	.stabn 68,0,150,.L9-Llambda_2

.L9:

# SEXP ("Right", 0) / 

	movl	$1481172009,	%ebx
	pushl	%ebx
	pushl	$3
	call	Bsexp
	addl	$8,	%esp
	movl	%eax,	%ebx
# STRING (":=") / 

	movl	$string_1,	%ecx
	pushl	%ebx
	pushl	%ecx
	call	Bstring
	addl	$4,	%esp
	popl	%ebx
	movl	%eax,	%ecx
# CALL ("Ls", 1, false) / 

	pushl	%ebx
	pushl	%ecx
	call	Ls
	addl	$4,	%esp
	popl	%ebx
	movl	%eax,	%ecx
# LINE (151) / 

	.stabn 68,0,151,.L10-Llambda_2

.L10:

# CLOSURE ("Llambda_10_12", []) / 

	pushl	%ebx
	pushl	%ecx
	pushl	$Llambda_10_12
	pushl	$1
	call	Bclosure
	addl	$8,	%esp
	movl	%eax,	%esi
	popl	%ecx
	popl	%ebx
# CALL (".array", 2, false) / 

	pushl	%ebx
	pushl	%esi
	pushl	%ecx
	pushl	$5
	call	Barray
	addl	$12,	%esp
	popl	%ebx
	movl	%eax,	%ecx
# CALL ("Lsingleton", 1, false) / 

	pushl	%ebx
	pushl	%ecx
	call	Lsingleton
	addl	$4,	%esp
	popl	%ebx
	movl	%eax,	%ecx
# CALL (".array", 2, false) / 

	pushl	%ecx
	pushl	%ebx
	pushl	$5
	call	Barray
	addl	$12,	%esp
	movl	%eax,	%ebx
# SEXP ("Left", 0) / 

	movl	$19964713,	%ecx
	pushl	%ebx
	pushl	%ecx
	pushl	$3
	call	Bsexp
	addl	$8,	%esp
	popl	%ebx
	movl	%eax,	%ecx
# LINE (154) / 

	.stabn 68,0,154,.L11-Llambda_2

.L11:

# CLOSURE ("Lbinop", []) / 

	pushl	%ebx
	pushl	%ecx
	pushl	$Lbinop
	pushl	$1
	call	Bclosure
	addl	$8,	%esp
	movl	%eax,	%esi
	popl	%ecx
	popl	%ebx
# STRING ("!!") / 

	movl	$string_2,	%edi
	pushl	%ebx
	pushl	%ecx
	pushl	%esi
	pushl	%edi
	call	Bstring
	addl	$4,	%esp
	popl	%esi
	popl	%ecx
	popl	%ebx
	movl	%eax,	%edi
# CALL ("Lsingleton", 1, false) / 

	pushl	%ebx
	pushl	%ecx
	pushl	%esi
	pushl	%edi
	call	Lsingleton
	addl	$4,	%esp
	popl	%esi
	popl	%ecx
	popl	%ebx
	movl	%eax,	%edi
# CALL ("Lmap", 2, false) / 

	pushl	%ebx
	pushl	%ecx
	pushl	%edi
	pushl	%esi
	call	Lmap
	addl	$8,	%esp
	popl	%ecx
	popl	%ebx
	movl	%eax,	%esi
# CALL (".array", 2, false) / 

	pushl	%ebx
	pushl	%esi
	pushl	%ecx
	pushl	$5
	call	Barray
	addl	$12,	%esp
	popl	%ebx
	movl	%eax,	%ecx
# SEXP ("Left", 0) / 

	movl	$19964713,	%esi
	pushl	%ebx
	pushl	%ecx
	pushl	%esi
	pushl	$3
	call	Bsexp
	addl	$8,	%esp
	popl	%ecx
	popl	%ebx
	movl	%eax,	%esi
# LINE (155) / 

	.stabn 68,0,155,.L12-Llambda_2

.L12:

# CLOSURE ("Lbinop", []) / 

	pushl	%ebx
	pushl	%ecx
	pushl	%esi
	pushl	$Lbinop
	pushl	$1
	call	Bclosure
	addl	$8,	%esp
	movl	%eax,	%edi
	popl	%esi
	popl	%ecx
	popl	%ebx
# STRING ("&&") / 

	movl	$string_3,	-4(%ebp)
	pushl	%ebx
	pushl	%ecx
	pushl	%esi
	pushl	%edi
	pushl	-4(%ebp)
	call	Bstring
	addl	$4,	%esp
	popl	%edi
	popl	%esi
	popl	%ecx
	popl	%ebx
	movl	%eax,	-4(%ebp)
# CALL ("Lsingleton", 1, false) / 

	pushl	%ebx
	pushl	%ecx
	pushl	%esi
	pushl	%edi
	pushl	-4(%ebp)
	call	Lsingleton
	addl	$4,	%esp
	popl	%edi
	popl	%esi
	popl	%ecx
	popl	%ebx
	movl	%eax,	-4(%ebp)
# CALL ("Lmap", 2, false) / 

	pushl	%ebx
	pushl	%ecx
	pushl	%esi
	pushl	-4(%ebp)
	pushl	%edi
	call	Lmap
	addl	$8,	%esp
	popl	%esi
	popl	%ecx
	popl	%ebx
	movl	%eax,	%edi
# CALL (".array", 2, false) / 

	pushl	%ebx
	pushl	%ecx
	pushl	%edi
	pushl	%esi
	pushl	$5
	call	Barray
	addl	$12,	%esp
	popl	%ecx
	popl	%ebx
	movl	%eax,	%esi
# SEXP ("Nona", 0) / 

	movl	$21096195,	%edi
	pushl	%ebx
	pushl	%ecx
	pushl	%esi
	pushl	%edi
	pushl	$3
	call	Bsexp
	addl	$8,	%esp
	popl	%esi
	popl	%ecx
	popl	%ebx
	movl	%eax,	%edi
# LINE (156) / 

	.stabn 68,0,156,.L13-Llambda_2

.L13:

# CLOSURE ("Lbinop", []) / 

	pushl	%ebx
	pushl	%ecx
	pushl	%esi
	pushl	%edi
	pushl	$Lbinop
	pushl	$1
	call	Bclosure
	addl	$8,	%esp
	movl	%eax,	-4(%ebp)
	popl	%edi
	popl	%esi
	popl	%ecx
	popl	%ebx
# STRING ("==") / 

	movl	$string_4,	-8(%ebp)
	pushl	%ebx
	pushl	%ecx
	pushl	%esi
	pushl	%edi
	pushl	-8(%ebp)
	call	Bstring
	addl	$4,	%esp
	popl	%edi
	popl	%esi
	popl	%ecx
	popl	%ebx
	movl	%eax,	-8(%ebp)
# STRING ("!=") / 

	movl	$string_5,	-12(%ebp)
	pushl	%ebx
	pushl	%ecx
	pushl	%esi
	pushl	%edi
	pushl	-12(%ebp)
	call	Bstring
	addl	$4,	%esp
	popl	%edi
	popl	%esi
	popl	%ecx
	popl	%ebx
	movl	%eax,	-12(%ebp)
# STRING ("<") / 

	movl	$string_6,	-16(%ebp)
	pushl	%ebx
	pushl	%ecx
	pushl	%esi
	pushl	%edi
	pushl	-16(%ebp)
	call	Bstring
	addl	$4,	%esp
	popl	%edi
	popl	%esi
	popl	%ecx
	popl	%ebx
	movl	%eax,	-16(%ebp)
# STRING (">") / 

	movl	$string_7,	-20(%ebp)
	pushl	%ebx
	pushl	%ecx
	pushl	%esi
	pushl	%edi
	pushl	-20(%ebp)
	call	Bstring
	addl	$4,	%esp
	popl	%edi
	popl	%esi
	popl	%ecx
	popl	%ebx
	movl	%eax,	-20(%ebp)
# STRING ("<=") / 

	movl	$string_8,	-24(%ebp)
	pushl	%ebx
	pushl	%ecx
	pushl	%esi
	pushl	%edi
	pushl	-24(%ebp)
	call	Bstring
	addl	$4,	%esp
	popl	%edi
	popl	%esi
	popl	%ecx
	popl	%ebx
	movl	%eax,	-24(%ebp)
# STRING (">=") / 

	movl	$string_9,	-28(%ebp)
	pushl	%ebx
	pushl	%ecx
	pushl	%esi
	pushl	%edi
	pushl	-28(%ebp)
	call	Bstring
	addl	$4,	%esp
	popl	%edi
	popl	%esi
	popl	%ecx
	popl	%ebx
	movl	%eax,	-28(%ebp)
# CONST (0) / 

	movl	$1,	-32(%ebp)
# SEXP ("cons", 2) / 

	movl	$1697575,	-36(%ebp)
	pushl	%ebx
	pushl	%ecx
	pushl	%esi
	pushl	%edi
	pushl	-36(%ebp)
	pushl	-32(%ebp)
	pushl	-28(%ebp)
	pushl	$7
	call	Bsexp
	addl	$16,	%esp
	popl	%edi
	popl	%esi
	popl	%ecx
	popl	%ebx
	movl	%eax,	-28(%ebp)
# SEXP ("cons", 2) / 

	movl	$1697575,	-32(%ebp)
	pushl	%ebx
	pushl	%ecx
	pushl	%esi
	pushl	%edi
	pushl	-32(%ebp)
	pushl	-28(%ebp)
	pushl	-24(%ebp)
	pushl	$7
	call	Bsexp
	addl	$16,	%esp
	popl	%edi
	popl	%esi
	popl	%ecx
	popl	%ebx
	movl	%eax,	-24(%ebp)
# SEXP ("cons", 2) / 

	movl	$1697575,	-28(%ebp)
	pushl	%ebx
	pushl	%ecx
	pushl	%esi
	pushl	%edi
	pushl	-28(%ebp)
	pushl	-24(%ebp)
	pushl	-20(%ebp)
	pushl	$7
	call	Bsexp
	addl	$16,	%esp
	popl	%edi
	popl	%esi
	popl	%ecx
	popl	%ebx
	movl	%eax,	-20(%ebp)
# SEXP ("cons", 2) / 

	movl	$1697575,	-24(%ebp)
	pushl	%ebx
	pushl	%ecx
	pushl	%esi
	pushl	%edi
	pushl	-24(%ebp)
	pushl	-20(%ebp)
	pushl	-16(%ebp)
	pushl	$7
	call	Bsexp
	addl	$16,	%esp
	popl	%edi
	popl	%esi
	popl	%ecx
	popl	%ebx
	movl	%eax,	-16(%ebp)
# SEXP ("cons", 2) / 

	movl	$1697575,	-20(%ebp)
	pushl	%ebx
	pushl	%ecx
	pushl	%esi
	pushl	%edi
	pushl	-20(%ebp)
	pushl	-16(%ebp)
	pushl	-12(%ebp)
	pushl	$7
	call	Bsexp
	addl	$16,	%esp
	popl	%edi
	popl	%esi
	popl	%ecx
	popl	%ebx
	movl	%eax,	-12(%ebp)
# SEXP ("cons", 2) / 

	movl	$1697575,	-16(%ebp)
	pushl	%ebx
	pushl	%ecx
	pushl	%esi
	pushl	%edi
	pushl	-16(%ebp)
	pushl	-12(%ebp)
	pushl	-8(%ebp)
	pushl	$7
	call	Bsexp
	addl	$16,	%esp
	popl	%edi
	popl	%esi
	popl	%ecx
	popl	%ebx
	movl	%eax,	-8(%ebp)
# CALL ("Lmap", 2, false) / 

	pushl	%ebx
	pushl	%ecx
	pushl	%esi
	pushl	%edi
	pushl	-8(%ebp)
	pushl	-4(%ebp)
	call	Lmap
	addl	$8,	%esp
	popl	%edi
	popl	%esi
	popl	%ecx
	popl	%ebx
	movl	%eax,	-4(%ebp)
# CALL (".array", 2, false) / 

	pushl	%ebx
	pushl	%ecx
	pushl	%esi
	pushl	-4(%ebp)
	pushl	%edi
	pushl	$5
	call	Barray
	addl	$12,	%esp
	popl	%esi
	popl	%ecx
	popl	%ebx
	movl	%eax,	%edi
# SEXP ("Left", 0) / 

	movl	$19964713,	-4(%ebp)
	pushl	%ebx
	pushl	%ecx
	pushl	%esi
	pushl	%edi
	pushl	-4(%ebp)
	pushl	$3
	call	Bsexp
	addl	$8,	%esp
	popl	%edi
	popl	%esi
	popl	%ecx
	popl	%ebx
	movl	%eax,	-4(%ebp)
# LINE (157) / 

	.stabn 68,0,157,.L14-Llambda_2

.L14:

# CLOSURE ("Lbinop", []) / 

	pushl	%ebx
	pushl	%ecx
	pushl	%esi
	pushl	%edi
	pushl	$Lbinop
	pushl	$1
	call	Bclosure
	addl	$8,	%esp
	movl	%eax,	-8(%ebp)
	popl	%edi
	popl	%esi
	popl	%ecx
	popl	%ebx
# STRING ("+") / 

	movl	$string_10,	-12(%ebp)
	pushl	%ebx
	pushl	%ecx
	pushl	%esi
	pushl	%edi
	pushl	-12(%ebp)
	call	Bstring
	addl	$4,	%esp
	popl	%edi
	popl	%esi
	popl	%ecx
	popl	%ebx
	movl	%eax,	-12(%ebp)
# STRING ("-") / 

	movl	$string_11,	-16(%ebp)
	pushl	%ebx
	pushl	%ecx
	pushl	%esi
	pushl	%edi
	pushl	-16(%ebp)
	call	Bstring
	addl	$4,	%esp
	popl	%edi
	popl	%esi
	popl	%ecx
	popl	%ebx
	movl	%eax,	-16(%ebp)
# CONST (0) / 

	movl	$1,	-20(%ebp)
# SEXP ("cons", 2) / 

	movl	$1697575,	-24(%ebp)
	pushl	%ebx
	pushl	%ecx
	pushl	%esi
	pushl	%edi
	pushl	-24(%ebp)
	pushl	-20(%ebp)
	pushl	-16(%ebp)
	pushl	$7
	call	Bsexp
	addl	$16,	%esp
	popl	%edi
	popl	%esi
	popl	%ecx
	popl	%ebx
	movl	%eax,	-16(%ebp)
# SEXP ("cons", 2) / 

	movl	$1697575,	-20(%ebp)
	pushl	%ebx
	pushl	%ecx
	pushl	%esi
	pushl	%edi
	pushl	-20(%ebp)
	pushl	-16(%ebp)
	pushl	-12(%ebp)
	pushl	$7
	call	Bsexp
	addl	$16,	%esp
	popl	%edi
	popl	%esi
	popl	%ecx
	popl	%ebx
	movl	%eax,	-12(%ebp)
# CALL ("Lmap", 2, false) / 

	pushl	%ebx
	pushl	%ecx
	pushl	%esi
	pushl	%edi
	pushl	-12(%ebp)
	pushl	-8(%ebp)
	call	Lmap
	addl	$8,	%esp
	popl	%edi
	popl	%esi
	popl	%ecx
	popl	%ebx
	movl	%eax,	-8(%ebp)
# CALL (".array", 2, false) / 

	pushl	%ebx
	pushl	%ecx
	pushl	%esi
	pushl	%edi
	pushl	-8(%ebp)
	pushl	-4(%ebp)
	pushl	$5
	call	Barray
	addl	$12,	%esp
	popl	%edi
	popl	%esi
	popl	%ecx
	popl	%ebx
	movl	%eax,	-4(%ebp)
# SEXP ("Left", 0) / 

	movl	$19964713,	-8(%ebp)
	pushl	%ebx
	pushl	%ecx
	pushl	%esi
	pushl	%edi
	pushl	-8(%ebp)
	pushl	$3
	call	Bsexp
	addl	$8,	%esp
	popl	%edi
	popl	%esi
	popl	%ecx
	popl	%ebx
	movl	%eax,	-8(%ebp)
# LINE (158) / 

	.stabn 68,0,158,.L15-Llambda_2

.L15:

# CLOSURE ("Lbinop", []) / 

	pushl	%ebx
	pushl	%ecx
	pushl	%esi
	pushl	%edi
	pushl	$Lbinop
	pushl	$1
	call	Bclosure
	addl	$8,	%esp
	movl	%eax,	-12(%ebp)
	popl	%edi
	popl	%esi
	popl	%ecx
	popl	%ebx
# STRING ("*") / 

	movl	$string_12,	-16(%ebp)
	pushl	%ebx
	pushl	%ecx
	pushl	%esi
	pushl	%edi
	pushl	-16(%ebp)
	call	Bstring
	addl	$4,	%esp
	popl	%edi
	popl	%esi
	popl	%ecx
	popl	%ebx
	movl	%eax,	-16(%ebp)
# STRING ("/") / 

	movl	$string_13,	-20(%ebp)
	pushl	%ebx
	pushl	%ecx
	pushl	%esi
	pushl	%edi
	pushl	-20(%ebp)
	call	Bstring
	addl	$4,	%esp
	popl	%edi
	popl	%esi
	popl	%ecx
	popl	%ebx
	movl	%eax,	-20(%ebp)
# STRING ("%") / 

	movl	$string_14,	-24(%ebp)
	pushl	%ebx
	pushl	%ecx
	pushl	%esi
	pushl	%edi
	pushl	-24(%ebp)
	call	Bstring
	addl	$4,	%esp
	popl	%edi
	popl	%esi
	popl	%ecx
	popl	%ebx
	movl	%eax,	-24(%ebp)
# CONST (0) / 

	movl	$1,	-28(%ebp)
# SEXP ("cons", 2) / 

	movl	$1697575,	-32(%ebp)
	pushl	%ebx
	pushl	%ecx
	pushl	%esi
	pushl	%edi
	pushl	-32(%ebp)
	pushl	-28(%ebp)
	pushl	-24(%ebp)
	pushl	$7
	call	Bsexp
	addl	$16,	%esp
	popl	%edi
	popl	%esi
	popl	%ecx
	popl	%ebx
	movl	%eax,	-24(%ebp)
# SEXP ("cons", 2) / 

	movl	$1697575,	-28(%ebp)
	pushl	%ebx
	pushl	%ecx
	pushl	%esi
	pushl	%edi
	pushl	-28(%ebp)
	pushl	-24(%ebp)
	pushl	-20(%ebp)
	pushl	$7
	call	Bsexp
	addl	$16,	%esp
	popl	%edi
	popl	%esi
	popl	%ecx
	popl	%ebx
	movl	%eax,	-20(%ebp)
# SEXP ("cons", 2) / 

	movl	$1697575,	-24(%ebp)
	pushl	%ebx
	pushl	%ecx
	pushl	%esi
	pushl	%edi
	pushl	-24(%ebp)
	pushl	-20(%ebp)
	pushl	-16(%ebp)
	pushl	$7
	call	Bsexp
	addl	$16,	%esp
	popl	%edi
	popl	%esi
	popl	%ecx
	popl	%ebx
	movl	%eax,	-16(%ebp)
# CALL ("Lmap", 2, false) / 

	pushl	%ebx
	pushl	%ecx
	pushl	%esi
	pushl	%edi
	pushl	-16(%ebp)
	pushl	-12(%ebp)
	call	Lmap
	addl	$8,	%esp
	popl	%edi
	popl	%esi
	popl	%ecx
	popl	%ebx
	movl	%eax,	-12(%ebp)
# CALL (".array", 2, false) / 

	pushl	%ebx
	pushl	%ecx
	pushl	%esi
	pushl	%edi
	pushl	-12(%ebp)
	pushl	-8(%ebp)
	pushl	$5
	call	Barray
	addl	$12,	%esp
	popl	%edi
	popl	%esi
	popl	%ecx
	popl	%ebx
	movl	%eax,	-8(%ebp)
# CONST (0) / 

	movl	$1,	-12(%ebp)
# SEXP ("cons", 2) / 

	movl	$1697575,	-16(%ebp)
	pushl	%ebx
	pushl	%ecx
	pushl	%esi
	pushl	%edi
	pushl	-16(%ebp)
	pushl	-12(%ebp)
	pushl	-8(%ebp)
	pushl	$7
	call	Bsexp
	addl	$16,	%esp
	popl	%edi
	popl	%esi
	popl	%ecx
	popl	%ebx
	movl	%eax,	-8(%ebp)
# SEXP ("cons", 2) / 

	movl	$1697575,	-12(%ebp)
	pushl	%ebx
	pushl	%ecx
	pushl	%esi
	pushl	%edi
	pushl	-12(%ebp)
	pushl	-8(%ebp)
	pushl	-4(%ebp)
	pushl	$7
	call	Bsexp
	addl	$16,	%esp
	popl	%edi
	popl	%esi
	popl	%ecx
	popl	%ebx
	movl	%eax,	-4(%ebp)
# SEXP ("cons", 2) / 

	movl	$1697575,	-8(%ebp)
	pushl	%ebx
	pushl	%ecx
	pushl	%esi
	pushl	-8(%ebp)
	pushl	-4(%ebp)
	pushl	%edi
	pushl	$7
	call	Bsexp
	addl	$16,	%esp
	popl	%esi
	popl	%ecx
	popl	%ebx
	movl	%eax,	%edi
# SEXP ("cons", 2) / 

	movl	$1697575,	-4(%ebp)
	pushl	%ebx
	pushl	%ecx
	pushl	-4(%ebp)
	pushl	%edi
	pushl	%esi
	pushl	$7
	call	Bsexp
	addl	$16,	%esp
	popl	%ecx
	popl	%ebx
	movl	%eax,	%esi
# SEXP ("cons", 2) / 

	movl	$1697575,	%edi
	pushl	%ebx
	pushl	%edi
	pushl	%esi
	pushl	%ecx
	pushl	$7
	call	Bsexp
	addl	$16,	%esp
	popl	%ebx
	movl	%eax,	%ecx
# SEXP ("cons", 2) / 

	movl	$1697575,	%esi
	pushl	%esi
	pushl	%ecx
	pushl	%ebx
	pushl	$7
	call	Bsexp
	addl	$16,	%esp
	movl	%eax,	%ebx
# LINE (159) / 

	.stabn 68,0,159,.L16-Llambda_2

.L16:

# LD (Global ("primary")) / 

	movl	global_primary,	%ecx
# CALL ("Lexpr", 2, false) / 

	pushl	%ecx
	pushl	%ebx
	call	Lexpr
	addl	$8,	%esp
	movl	%eax,	%ebx
# LD (Arg (0)) / 

	movl	8(%ebp),	%ecx
# CALLC (1, true) / 

	movl	%ecx,	8(%ebp)
	movl	%ebx,	%edx
	movl	(%edx),	%eax
	movl	%ebp,	%esp
	popl	%ebp
	jmp	*%eax
# LABEL ("L81") / 

L81:

# SLABEL ("L80") / 

L80:

# END / 

	movl	%ebx,	%eax
LLlambda_2_epilogue:

	movl	%ebp,	%esp
	popl	%ebp
	.cfi_restore	5

	.cfi_def_cfa	4, 4

	ret
	.cfi_endproc

	.set	LLlambda_2_SIZE,	36

	.set	LSLlambda_2_SIZE,	9

	.size Llambda_2, .-Llambda_2

# LABEL ("Llambda_10_12") / 

Llambda_10_12:

# BEGIN ("Llambda_10_12", 3, 0, [], ["l"; "loc"; "r"], [{ blab="L154"; elab="L155"; names=[]; subs=[{ blab="L157"; elab="L158"; names=[]; subs=[]; }]; }]) / 

	.type lambda_10_12, @function

	.stabs "lambda_10_12:F1",36,0,0,Llambda_10_12

	.stabs "l:p1",160,0,0,8

	.stabs "loc:p1",160,0,0,12

	.stabs "r:p1",160,0,0,16

	.cfi_startproc

	pushl	%ebp
	.cfi_def_cfa_offset	8

	.cfi_offset 5, -8

	movl	%esp,	%ebp
	.cfi_def_cfa_register	5

	subl	$LLlambda_10_12_SIZE,	%esp
	movl	%esp,	%edi
	movl	$filler,	%esi
	movl	$LSLlambda_10_12_SIZE,	%ecx
	rep movsl	
# SLABEL ("L154") / 

L154:

# SLABEL ("L157") / 

L157:

# LINE (152) / 

	.stabn 68,0,152,0

	.stabn 68,0,152,.L17-Llambda_10_12

.L17:

# CLOSURE ("Llambda_11_14", [Arg (0); Arg (2); Arg (1)]) / 

	pushl	12(%ebp)
	pushl	16(%ebp)
	pushl	8(%ebp)
	pushl	$Llambda_11_14
	pushl	$7
	call	Bclosure
	addl	$20,	%esp
	movl	%eax,	%ebx
# SLABEL ("L158") / 

L158:

# LABEL ("L156") / 

L156:

# SLABEL ("L155") / 

L155:

# END / 

	movl	%ebx,	%eax
LLlambda_10_12_epilogue:

	movl	%ebp,	%esp
	popl	%ebp
	.cfi_restore	5

	.cfi_def_cfa	4, 4

	ret
	.cfi_endproc

	.set	LLlambda_10_12_SIZE,	0

	.set	LSLlambda_10_12_SIZE,	0

	.size Llambda_10_12, .-Llambda_10_12

# LABEL ("Llambda_11_14") / 

Llambda_11_14:

# BEGIN ("Llambda_11_14", 1, 0, [Arg (0); Arg (2); Arg (1)], ["a"], [{ blab="L159"; elab="L160"; names=[]; subs=[{ blab="L162"; elab="L163"; names=[]; subs=[]; }]; }]) / 

	.type lambda_11_14, @function

	.stabs "lambda_11_14:F1",36,0,0,Llambda_11_14

	.stabs "a:p1",160,0,0,8

	.cfi_startproc

	pushl	%edx
	pushl	%ebp
	.cfi_def_cfa_offset	12

	.cfi_offset 5, -12

	movl	%esp,	%ebp
	.cfi_def_cfa_register	5

	subl	$LLlambda_11_14_SIZE,	%esp
	movl	%esp,	%edi
	movl	$filler,	%esi
	movl	$LSLlambda_11_14_SIZE,	%ecx
	rep movsl	
# SLABEL ("L159") / 

L159:

# SLABEL ("L162") / 

L162:

# LD (Arg (0)) / 

	movl	12(%ebp),	%ebx
# LD (Access (0)) / 

	movl	4(%edx),	%ecx
# SEXP ("Ref", 0) / 

	movl	$361101,	%esi
	pushl	%edx
	pushl	%ebx
	pushl	%ecx
	pushl	%esi
	pushl	$3
	call	Bsexp
	addl	$8,	%esp
	popl	%ecx
	popl	%ebx
	popl	%edx
	movl	%eax,	%esi
# CALLC (1, false) / 

	pushl	%edx
	pushl	%ebx
	pushl	%ecx
	pushl	%esi
	movl	%ecx,	%edx
	call	*(%ecx)
	addl	$4,	%esp
	popl	%ecx
	popl	%ebx
	popl	%edx
	movl	%eax,	%ecx
# LD (Access (1)) / 

	movl	8(%edx),	%esi
# SEXP ("Val", 0) / 

	movl	$393369,	%edi
	pushl	%edx
	pushl	%ebx
	pushl	%ecx
	pushl	%esi
	pushl	%edi
	pushl	$3
	call	Bsexp
	addl	$8,	%esp
	popl	%esi
	popl	%ecx
	popl	%ebx
	popl	%edx
	movl	%eax,	%edi
# CALLC (1, false) / 

	pushl	%edx
	pushl	%ebx
	pushl	%ecx
	pushl	%esi
	pushl	%edi
	movl	%esi,	%edx
	call	*(%esi)
	addl	$4,	%esp
	popl	%esi
	popl	%ecx
	popl	%ebx
	popl	%edx
	movl	%eax,	%esi
# SEXP ("Assn", 2) / 

	movl	$14313885,	%edi
	pushl	%edx
	pushl	%ebx
	pushl	%edi
	pushl	%esi
	pushl	%ecx
	pushl	$7
	call	Bsexp
	addl	$16,	%esp
	popl	%ebx
	popl	%edx
	movl	%eax,	%ecx
# LD (Access (2)) / 

	movl	12(%edx),	%esi
# CALL ("LassertValue", 3, true) / 

	pushl	%edx
	pushl	%esi
	pushl	%ecx
	pushl	%ebx
	call	LassertValue
	addl	$12,	%esp
	popl	%edx
	movl	%eax,	%ebx
# SLABEL ("L163") / 

L163:

# LABEL ("L161") / 

L161:

# SLABEL ("L160") / 

L160:

# END / 

	movl	%ebx,	%eax
LLlambda_11_14_epilogue:

	movl	%ebp,	%esp
	popl	%ebp
	popl	%edx
	.cfi_restore	5

	.cfi_def_cfa	4, 4

	ret
	.cfi_endproc

	.set	LLlambda_11_14_SIZE,	0

	.set	LSLlambda_11_14_SIZE,	0

	.size Llambda_11_14, .-Llambda_11_14

# LABEL ("Llambda_1") / 

Llambda_1:

# BEGIN ("Llambda_1", 1, 0, [], ["__tmp339"], [{ blab="L175"; elab="L176"; names=[]; subs=[]; }]) / 

	.type lambda_1, @function

	.stabs "lambda_1:F1",36,0,0,Llambda_1

	.stabs "__tmp339:p1",160,0,0,8

	.cfi_startproc

	pushl	%ebp
	.cfi_def_cfa_offset	8

	.cfi_offset 5, -8

	movl	%esp,	%ebp
	.cfi_def_cfa_register	5

	subl	$LLlambda_1_SIZE,	%esp
	movl	%esp,	%edi
	movl	$filler,	%esi
	movl	$LSLlambda_1_SIZE,	%ecx
	rep movsl	
# SLABEL ("L175") / 

L175:

# LINE (144) / 

	.stabn 68,0,144,0

	.stabn 68,0,144,.L18-Llambda_1

.L18:

# LD (Global ("pos")) / 

	movl	global_pos,	%ebx
# LINE (143) / 

	.stabn 68,0,143,.L19-Llambda_1

.L19:

# CLOSURE ("Llambda_12_17", []) / 

	pushl	%ebx
	pushl	$Llambda_12_17
	pushl	$1
	call	Bclosure
	addl	$8,	%esp
	movl	%eax,	%ecx
	popl	%ebx
# CALL ("Lseq", 2, false) / 

	pushl	%ecx
	pushl	%ebx
	call	Lseq
	addl	$8,	%esp
	movl	%eax,	%ebx
# LINE (145) / 

	.stabn 68,0,145,.L20-Llambda_1

.L20:

# LD (Global ("pos")) / 

	movl	global_pos,	%ecx
# LINE (144) / 

	.stabn 68,0,144,.L21-Llambda_1

.L21:

# CLOSURE ("Llambda_13_17", []) / 

	pushl	%ebx
	pushl	%ecx
	pushl	$Llambda_13_17
	pushl	$1
	call	Bclosure
	addl	$8,	%esp
	movl	%eax,	%esi
	popl	%ecx
	popl	%ebx
# CALL ("Lseq", 2, false) / 

	pushl	%ebx
	pushl	%esi
	pushl	%ecx
	call	Lseq
	addl	$8,	%esp
	popl	%ebx
	movl	%eax,	%ecx
# LINE (146) / 

	.stabn 68,0,146,.L22-Llambda_1

.L22:

# LD (Global ("pos")) / 

	movl	global_pos,	%esi
# LINE (145) / 

	.stabn 68,0,145,.L23-Llambda_1

.L23:

# CLOSURE ("Llambda_14_17", []) / 

	pushl	%ebx
	pushl	%ecx
	pushl	%esi
	pushl	$Llambda_14_17
	pushl	$1
	call	Bclosure
	addl	$8,	%esp
	movl	%eax,	%edi
	popl	%esi
	popl	%ecx
	popl	%ebx
# CALL ("Lseq", 2, false) / 

	pushl	%ebx
	pushl	%ecx
	pushl	%edi
	pushl	%esi
	call	Lseq
	addl	$8,	%esp
	popl	%ecx
	popl	%ebx
	movl	%eax,	%esi
# CALL ("Lalt", 2, false) / 

	pushl	%ebx
	pushl	%esi
	pushl	%ecx
	call	Lalt
	addl	$8,	%esp
	popl	%ebx
	movl	%eax,	%ecx
# CALL ("Lalt", 2, false) / 

	pushl	%ecx
	pushl	%ebx
	call	Lalt
	addl	$8,	%esp
	movl	%eax,	%ebx
# LD (Arg (0)) / 

	movl	8(%ebp),	%ecx
# CALLC (1, true) / 

	movl	%ecx,	8(%ebp)
	movl	%ebx,	%edx
	movl	(%edx),	%eax
	movl	%ebp,	%esp
	popl	%ebp
	jmp	*%eax
# LABEL ("L177") / 

L177:

# SLABEL ("L176") / 

L176:

# END / 

	movl	%ebx,	%eax
LLlambda_1_epilogue:

	movl	%ebp,	%esp
	popl	%ebp
	.cfi_restore	5

	.cfi_def_cfa	4, 4

	ret
	.cfi_endproc

	.set	LLlambda_1_SIZE,	0

	.set	LSLlambda_1_SIZE,	0

	.size Llambda_1, .-Llambda_1

# LABEL ("Llambda_14_17") / 

Llambda_14_17:

# BEGIN ("Llambda_14_17", 1, 0, [], ["loc"], [{ blab="L190"; elab="L191"; names=[]; subs=[]; }]) / 

	.type lambda_14_17, @function

	.stabs "lambda_14_17:F1",36,0,0,Llambda_14_17

	.stabs "loc:p1",160,0,0,8

	.cfi_startproc

	pushl	%ebp
	.cfi_def_cfa_offset	8

	.cfi_offset 5, -8

	movl	%esp,	%ebp
	.cfi_def_cfa_register	5

	subl	$LLlambda_14_17_SIZE,	%esp
	movl	%esp,	%edi
	movl	$filler,	%esi
	movl	$LSLlambda_14_17_SIZE,	%ecx
	rep movsl	
# SLABEL ("L190") / 

L190:

# LINE (146) / 

	.stabn 68,0,146,0

	.stabn 68,0,146,.L24-Llambda_14_17

.L24:

# LD (Global ("kFi")) / 

	movl	global_kFi,	%ebx
# CLOSURE ("Llambda_15_18", [Arg (0)]) / 

	pushl	%ebx
	pushl	8(%ebp)
	pushl	$Llambda_15_18
	pushl	$3
	call	Bclosure
	addl	$12,	%esp
	movl	%eax,	%ecx
	popl	%ebx
# CALL ("Li__Infix_64", 2, true) / 

	pushl	%ecx
	pushl	%ebx
	call	Li__Infix_64
	addl	$8,	%esp
	movl	%eax,	%ebx
# LABEL ("L192") / 

L192:

# SLABEL ("L191") / 

L191:

# END / 

	movl	%ebx,	%eax
LLlambda_14_17_epilogue:

	movl	%ebp,	%esp
	popl	%ebp
	.cfi_restore	5

	.cfi_def_cfa	4, 4

	ret
	.cfi_endproc

	.set	LLlambda_14_17_SIZE,	0

	.set	LSLlambda_14_17_SIZE,	0

	.size Llambda_14_17, .-Llambda_14_17

# LABEL ("Llambda_15_18") / 

Llambda_15_18:

# BEGIN ("Llambda_15_18", 1, 0, [Arg (0)], ["__tmp307"], [{ blab="L195"; elab="L196"; names=[]; subs=[{ blab="L198"; elab="L199"; names=[]; subs=[]; }]; }]) / 

	.type lambda_15_18, @function

	.stabs "lambda_15_18:F1",36,0,0,Llambda_15_18

	.stabs "__tmp307:p1",160,0,0,8

	.cfi_startproc

	pushl	%edx
	pushl	%ebp
	.cfi_def_cfa_offset	12

	.cfi_offset 5, -12

	movl	%esp,	%ebp
	.cfi_def_cfa_register	5

	subl	$LLlambda_15_18_SIZE,	%esp
	movl	%esp,	%edi
	movl	$filler,	%esi
	movl	$LSLlambda_15_18_SIZE,	%ecx
	rep movsl	
# SLABEL ("L195") / 

L195:

# SLABEL ("L198") / 

L198:

# CLOSURE ("Llambda_16_20", [Access (0)]) / 

	pushl	4(%edx)
	pushl	$Llambda_16_20
	pushl	$3
	call	Bclosure
	addl	$12,	%esp
	movl	%eax,	%ebx
	movl	4(%ebp),	%edx
# SLABEL ("L199") / 

L199:

# LABEL ("L197") / 

L197:

# SLABEL ("L196") / 

L196:

# END / 

	movl	%ebx,	%eax
LLlambda_15_18_epilogue:

	movl	%ebp,	%esp
	popl	%ebp
	popl	%edx
	.cfi_restore	5

	.cfi_def_cfa	4, 4

	ret
	.cfi_endproc

	.set	LLlambda_15_18_SIZE,	0

	.set	LSLlambda_15_18_SIZE,	0

	.size Llambda_15_18, .-Llambda_15_18

# LABEL ("Llambda_16_20") / 

Llambda_16_20:

# BEGIN ("Llambda_16_20", 1, 0, [Access (0)], ["arg"], [{ blab="L200"; elab="L201"; names=[]; subs=[{ blab="L203"; elab="L204"; names=[]; subs=[]; }]; }]) / 

	.type lambda_16_20, @function

	.stabs "lambda_16_20:F1",36,0,0,Llambda_16_20

	.stabs "arg:p1",160,0,0,8

	.cfi_startproc

	pushl	%edx
	pushl	%ebp
	.cfi_def_cfa_offset	12

	.cfi_offset 5, -12

	movl	%esp,	%ebp
	.cfi_def_cfa_register	5

	subl	$LLlambda_16_20_SIZE,	%esp
	movl	%esp,	%edi
	movl	$filler,	%esi
	movl	$LSLlambda_16_20_SIZE,	%ecx
	rep movsl	
# SLABEL ("L200") / 

L200:

# SLABEL ("L203") / 

L203:

# LD (Arg (0)) / 

	movl	12(%ebp),	%ebx
# SEXP ("Skip", 0) / 

	movl	$23684257,	%ecx
	pushl	%edx
	pushl	%ebx
	pushl	%ecx
	pushl	$3
	call	Bsexp
	addl	$8,	%esp
	popl	%ebx
	popl	%edx
	movl	%eax,	%ecx
# LD (Access (0)) / 

	movl	4(%edx),	%esi
# CALL ("LassertVoid", 3, true) / 

	pushl	%edx
	pushl	%esi
	pushl	%ecx
	pushl	%ebx
	call	LassertVoid
	addl	$12,	%esp
	popl	%edx
	movl	%eax,	%ebx
# SLABEL ("L204") / 

L204:

# LABEL ("L202") / 

L202:

# SLABEL ("L201") / 

L201:

# END / 

	movl	%ebx,	%eax
LLlambda_16_20_epilogue:

	movl	%ebp,	%esp
	popl	%ebp
	popl	%edx
	.cfi_restore	5

	.cfi_def_cfa	4, 4

	ret
	.cfi_endproc

	.set	LLlambda_16_20_SIZE,	0

	.set	LSLlambda_16_20_SIZE,	0

	.size Llambda_16_20, .-Llambda_16_20

# LABEL ("Llambda_13_17") / 

Llambda_13_17:

# BEGIN ("Llambda_13_17", 1, 0, [], ["loc"], [{ blab="L209"; elab="L210"; names=[]; subs=[]; }]) / 

	.type lambda_13_17, @function

	.stabs "lambda_13_17:F1",36,0,0,Llambda_13_17

	.stabs "loc:p1",160,0,0,8

	.cfi_startproc

	pushl	%ebp
	.cfi_def_cfa_offset	8

	.cfi_offset 5, -8

	movl	%esp,	%ebp
	.cfi_def_cfa_register	5

	subl	$LLlambda_13_17_SIZE,	%esp
	movl	%esp,	%edi
	movl	$filler,	%esi
	movl	$LSLlambda_13_17_SIZE,	%ecx
	rep movsl	
# SLABEL ("L209") / 

L209:

# LINE (145) / 

	.stabn 68,0,145,0

	.stabn 68,0,145,.L25-Llambda_13_17

.L25:

# LD (Global ("kElse")) / 

	movl	global_kElse,	%ebx
# CLOSURE ("Llambda_17_23", []) / 

	pushl	%ebx
	pushl	$Llambda_17_23
	pushl	$1
	call	Bclosure
	addl	$8,	%esp
	movl	%eax,	%ecx
	popl	%ebx
# CALL ("Lseq", 2, true) / 

	pushl	%ecx
	pushl	%ebx
	call	Lseq
	addl	$8,	%esp
	movl	%eax,	%ebx
# LABEL ("L211") / 

L211:

# SLABEL ("L210") / 

L210:

# END / 

	movl	%ebx,	%eax
LLlambda_13_17_epilogue:

	movl	%ebp,	%esp
	popl	%ebp
	.cfi_restore	5

	.cfi_def_cfa	4, 4

	ret
	.cfi_endproc

	.set	LLlambda_13_17_SIZE,	0

	.set	LSLlambda_13_17_SIZE,	0

	.size Llambda_13_17, .-Llambda_13_17

# LABEL ("Llambda_17_23") / 

Llambda_17_23:

# BEGIN ("Llambda_17_23", 1, 0, [], ["__tmp304"], [{ blab="L214"; elab="L215"; names=[]; subs=[]; }]) / 

	.type lambda_17_23, @function

	.stabs "lambda_17_23:F1",36,0,0,Llambda_17_23

	.stabs "__tmp304:p1",160,0,0,8

	.cfi_startproc

	pushl	%ebp
	.cfi_def_cfa_offset	8

	.cfi_offset 5, -8

	movl	%esp,	%ebp
	.cfi_def_cfa_register	5

	subl	$LLlambda_17_23_SIZE,	%esp
	movl	%esp,	%edi
	movl	$filler,	%esi
	movl	$LSLlambda_17_23_SIZE,	%ecx
	rep movsl	
# SLABEL ("L214") / 

L214:

# LD (Global ("exp")) / 

	movl	global_exp,	%ebx
# CLOSURE ("Llambda_18_24", []) / 

	pushl	%ebx
	pushl	$Llambda_18_24
	pushl	$1
	call	Bclosure
	addl	$8,	%esp
	movl	%eax,	%ecx
	popl	%ebx
# CALL ("Lseq", 2, true) / 

	pushl	%ecx
	pushl	%ebx
	call	Lseq
	addl	$8,	%esp
	movl	%eax,	%ebx
# LABEL ("L216") / 

L216:

# SLABEL ("L215") / 

L215:

# END / 

	movl	%ebx,	%eax
LLlambda_17_23_epilogue:

	movl	%ebp,	%esp
	popl	%ebp
	.cfi_restore	5

	.cfi_def_cfa	4, 4

	ret
	.cfi_endproc

	.set	LLlambda_17_23_SIZE,	0

	.set	LSLlambda_17_23_SIZE,	0

	.size Llambda_17_23, .-Llambda_17_23

# LABEL ("Llambda_18_24") / 

Llambda_18_24:

# BEGIN ("Llambda_18_24", 1, 0, [], ["s"], [{ blab="L219"; elab="L220"; names=[]; subs=[]; }]) / 

	.type lambda_18_24, @function

	.stabs "lambda_18_24:F1",36,0,0,Llambda_18_24

	.stabs "s:p1",160,0,0,8

	.cfi_startproc

	pushl	%ebp
	.cfi_def_cfa_offset	8

	.cfi_offset 5, -8

	movl	%esp,	%ebp
	.cfi_def_cfa_register	5

	subl	$LLlambda_18_24_SIZE,	%esp
	movl	%esp,	%edi
	movl	$filler,	%esi
	movl	$LSLlambda_18_24_SIZE,	%ecx
	rep movsl	
# SLABEL ("L219") / 

L219:

# LD (Global ("kFi")) / 

	movl	global_kFi,	%ebx
# CLOSURE ("Llambda_19_25", [Arg (0)]) / 

	pushl	%ebx
	pushl	8(%ebp)
	pushl	$Llambda_19_25
	pushl	$3
	call	Bclosure
	addl	$12,	%esp
	movl	%eax,	%ecx
	popl	%ebx
# CALL ("Li__Infix_64", 2, true) / 

	pushl	%ecx
	pushl	%ebx
	call	Li__Infix_64
	addl	$8,	%esp
	movl	%eax,	%ebx
# LABEL ("L221") / 

L221:

# SLABEL ("L220") / 

L220:

# END / 

	movl	%ebx,	%eax
LLlambda_18_24_epilogue:

	movl	%ebp,	%esp
	popl	%ebp
	.cfi_restore	5

	.cfi_def_cfa	4, 4

	ret
	.cfi_endproc

	.set	LLlambda_18_24_SIZE,	0

	.set	LSLlambda_18_24_SIZE,	0

	.size Llambda_18_24, .-Llambda_18_24

# LABEL ("Llambda_19_25") / 

Llambda_19_25:

# BEGIN ("Llambda_19_25", 1, 0, [Arg (0)], ["__tmp303"], [{ blab="L224"; elab="L225"; names=[]; subs=[{ blab="L227"; elab="L228"; names=[]; subs=[]; }]; }]) / 

	.type lambda_19_25, @function

	.stabs "lambda_19_25:F1",36,0,0,Llambda_19_25

	.stabs "__tmp303:p1",160,0,0,8

	.cfi_startproc

	pushl	%edx
	pushl	%ebp
	.cfi_def_cfa_offset	12

	.cfi_offset 5, -12

	movl	%esp,	%ebp
	.cfi_def_cfa_register	5

	subl	$LLlambda_19_25_SIZE,	%esp
	movl	%esp,	%edi
	movl	$filler,	%esi
	movl	$LSLlambda_19_25_SIZE,	%ecx
	rep movsl	
# SLABEL ("L224") / 

L224:

# SLABEL ("L227") / 

L227:

# CLOSURE ("Llambda_20_27", [Access (0)]) / 

	pushl	4(%edx)
	pushl	$Llambda_20_27
	pushl	$3
	call	Bclosure
	addl	$12,	%esp
	movl	%eax,	%ebx
	movl	4(%ebp),	%edx
# SLABEL ("L228") / 

L228:

# LABEL ("L226") / 

L226:

# SLABEL ("L225") / 

L225:

# END / 

	movl	%ebx,	%eax
LLlambda_19_25_epilogue:

	movl	%ebp,	%esp
	popl	%ebp
	popl	%edx
	.cfi_restore	5

	.cfi_def_cfa	4, 4

	ret
	.cfi_endproc

	.set	LLlambda_19_25_SIZE,	0

	.set	LSLlambda_19_25_SIZE,	0

	.size Llambda_19_25, .-Llambda_19_25

# LABEL ("Llambda_20_27") / 

Llambda_20_27:

# BEGIN ("Llambda_20_27", 1, 0, [Access (0)], ["arg"], [{ blab="L229"; elab="L230"; names=[]; subs=[{ blab="L232"; elab="L233"; names=[]; subs=[]; }]; }]) / 

	.type lambda_20_27, @function

	.stabs "lambda_20_27:F1",36,0,0,Llambda_20_27

	.stabs "arg:p1",160,0,0,8

	.cfi_startproc

	pushl	%edx
	pushl	%ebp
	.cfi_def_cfa_offset	12

	.cfi_offset 5, -12

	movl	%esp,	%ebp
	.cfi_def_cfa_register	5

	subl	$LLlambda_20_27_SIZE,	%esp
	movl	%esp,	%edi
	movl	$filler,	%esi
	movl	$LSLlambda_20_27_SIZE,	%ecx
	rep movsl	
# SLABEL ("L229") / 

L229:

# SLABEL ("L232") / 

L232:

# LD (Access (0)) / 

	movl	4(%edx),	%ebx
# LD (Arg (0)) / 

	movl	12(%ebp),	%ecx
# CALLC (1, true) / 

	movl	%ecx,	12(%ebp)
	movl	%ebx,	%edx
	movl	(%edx),	%eax
	movl	%ebp,	%esp
	popl	%ebp
	popl	%ebx
	jmp	*%eax
# SLABEL ("L233") / 

L233:

# LABEL ("L231") / 

L231:

# SLABEL ("L230") / 

L230:

# END / 

	movl	%ebx,	%eax
LLlambda_20_27_epilogue:

	movl	%ebp,	%esp
	popl	%ebp
	popl	%edx
	.cfi_restore	5

	.cfi_def_cfa	4, 4

	ret
	.cfi_endproc

	.set	LLlambda_20_27_SIZE,	0

	.set	LSLlambda_20_27_SIZE,	0

	.size Llambda_20_27, .-Llambda_20_27

# LABEL ("Llambda_12_17") / 

Llambda_12_17:

# BEGIN ("Llambda_12_17", 1, 0, [], ["loc"], [{ blab="L236"; elab="L237"; names=[]; subs=[]; }]) / 

	.type lambda_12_17, @function

	.stabs "lambda_12_17:F1",36,0,0,Llambda_12_17

	.stabs "loc:p1",160,0,0,8

	.cfi_startproc

	pushl	%ebp
	.cfi_def_cfa_offset	8

	.cfi_offset 5, -8

	movl	%esp,	%ebp
	.cfi_def_cfa_register	5

	subl	$LLlambda_12_17_SIZE,	%esp
	movl	%esp,	%edi
	movl	$filler,	%esi
	movl	$LSLlambda_12_17_SIZE,	%ecx
	rep movsl	
# SLABEL ("L236") / 

L236:

# LINE (144) / 

	.stabn 68,0,144,0

	.stabn 68,0,144,.L26-Llambda_12_17

.L26:

# LD (Global ("kElif")) / 

	movl	global_kElif,	%ebx
# CLOSURE ("Llambda_21_30", []) / 

	pushl	%ebx
	pushl	$Llambda_21_30
	pushl	$1
	call	Bclosure
	addl	$8,	%esp
	movl	%eax,	%ecx
	popl	%ebx
# CALL ("Lseq", 2, true) / 

	pushl	%ecx
	pushl	%ebx
	call	Lseq
	addl	$8,	%esp
	movl	%eax,	%ebx
# LABEL ("L238") / 

L238:

# SLABEL ("L237") / 

L237:

# END / 

	movl	%ebx,	%eax
LLlambda_12_17_epilogue:

	movl	%ebp,	%esp
	popl	%ebp
	.cfi_restore	5

	.cfi_def_cfa	4, 4

	ret
	.cfi_endproc

	.set	LLlambda_12_17_SIZE,	0

	.set	LSLlambda_12_17_SIZE,	0

	.size Llambda_12_17, .-Llambda_12_17

# LABEL ("Llambda_21_30") / 

Llambda_21_30:

# BEGIN ("Llambda_21_30", 1, 0, [], ["__tmp295"], [{ blab="L241"; elab="L242"; names=[]; subs=[]; }]) / 

	.type lambda_21_30, @function

	.stabs "lambda_21_30:F1",36,0,0,Llambda_21_30

	.stabs "__tmp295:p1",160,0,0,8

	.cfi_startproc

	pushl	%ebp
	.cfi_def_cfa_offset	8

	.cfi_offset 5, -8

	movl	%esp,	%ebp
	.cfi_def_cfa_register	5

	subl	$LLlambda_21_30_SIZE,	%esp
	movl	%esp,	%edi
	movl	$filler,	%esi
	movl	$LSLlambda_21_30_SIZE,	%ecx
	rep movsl	
# SLABEL ("L241") / 

L241:

# LD (Global ("exp")) / 

	movl	global_exp,	%ebx
# CLOSURE ("Llambda_22_31", []) / 

	pushl	%ebx
	pushl	$Llambda_22_31
	pushl	$1
	call	Bclosure
	addl	$8,	%esp
	movl	%eax,	%ecx
	popl	%ebx
# CALL ("Lseq", 2, true) / 

	pushl	%ecx
	pushl	%ebx
	call	Lseq
	addl	$8,	%esp
	movl	%eax,	%ebx
# LABEL ("L243") / 

L243:

# SLABEL ("L242") / 

L242:

# END / 

	movl	%ebx,	%eax
LLlambda_21_30_epilogue:

	movl	%ebp,	%esp
	popl	%ebp
	.cfi_restore	5

	.cfi_def_cfa	4, 4

	ret
	.cfi_endproc

	.set	LLlambda_21_30_SIZE,	0

	.set	LSLlambda_21_30_SIZE,	0

	.size Llambda_21_30, .-Llambda_21_30

# LABEL ("Llambda_22_31") / 

Llambda_22_31:

# BEGIN ("Llambda_22_31", 1, 0, [], ["expression"], [{ blab="L246"; elab="L247"; names=[]; subs=[]; }]) / 

	.type lambda_22_31, @function

	.stabs "lambda_22_31:F1",36,0,0,Llambda_22_31

	.stabs "expression:p1",160,0,0,8

	.cfi_startproc

	pushl	%ebp
	.cfi_def_cfa_offset	8

	.cfi_offset 5, -8

	movl	%esp,	%ebp
	.cfi_def_cfa_register	5

	subl	$LLlambda_22_31_SIZE,	%esp
	movl	%esp,	%edi
	movl	$filler,	%esi
	movl	$LSLlambda_22_31_SIZE,	%ecx
	rep movsl	
# SLABEL ("L246") / 

L246:

# LD (Global ("kThen")) / 

	movl	global_kThen,	%ebx
# CLOSURE ("Llambda_23_32", [Arg (0)]) / 

	pushl	%ebx
	pushl	8(%ebp)
	pushl	$Llambda_23_32
	pushl	$3
	call	Bclosure
	addl	$12,	%esp
	movl	%eax,	%ecx
	popl	%ebx
# CALL ("Lseq", 2, true) / 

	pushl	%ecx
	pushl	%ebx
	call	Lseq
	addl	$8,	%esp
	movl	%eax,	%ebx
# LABEL ("L248") / 

L248:

# SLABEL ("L247") / 

L247:

# END / 

	movl	%ebx,	%eax
LLlambda_22_31_epilogue:

	movl	%ebp,	%esp
	popl	%ebp
	.cfi_restore	5

	.cfi_def_cfa	4, 4

	ret
	.cfi_endproc

	.set	LLlambda_22_31_SIZE,	0

	.set	LSLlambda_22_31_SIZE,	0

	.size Llambda_22_31, .-Llambda_22_31

# LABEL ("Llambda_23_32") / 

Llambda_23_32:

# BEGIN ("Llambda_23_32", 1, 0, [Arg (0)], ["__tmp294"], [{ blab="L251"; elab="L252"; names=[]; subs=[]; }]) / 

	.type lambda_23_32, @function

	.stabs "lambda_23_32:F1",36,0,0,Llambda_23_32

	.stabs "__tmp294:p1",160,0,0,8

	.cfi_startproc

	pushl	%edx
	pushl	%ebp
	.cfi_def_cfa_offset	12

	.cfi_offset 5, -12

	movl	%esp,	%ebp
	.cfi_def_cfa_register	5

	subl	$LLlambda_23_32_SIZE,	%esp
	movl	%esp,	%edi
	movl	$filler,	%esi
	movl	$LSLlambda_23_32_SIZE,	%ecx
	rep movsl	
# SLABEL ("L251") / 

L251:

# LD (Global ("exp")) / 

	movl	global_exp,	%ebx
# CLOSURE ("Llambda_24_33", [Access (0)]) / 

	pushl	%ebx
	pushl	4(%edx)
	pushl	$Llambda_24_33
	pushl	$3
	call	Bclosure
	addl	$12,	%esp
	movl	%eax,	%ecx
	popl	%ebx
	movl	4(%ebp),	%edx
# CALL ("Lseq", 2, true) / 

	pushl	%edx
	pushl	%ecx
	pushl	%ebx
	call	Lseq
	addl	$8,	%esp
	popl	%edx
	movl	%eax,	%ebx
# LABEL ("L253") / 

L253:

# SLABEL ("L252") / 

L252:

# END / 

	movl	%ebx,	%eax
LLlambda_23_32_epilogue:

	movl	%ebp,	%esp
	popl	%ebp
	popl	%edx
	.cfi_restore	5

	.cfi_def_cfa	4, 4

	ret
	.cfi_endproc

	.set	LLlambda_23_32_SIZE,	0

	.set	LSLlambda_23_32_SIZE,	0

	.size Llambda_23_32, .-Llambda_23_32

# LABEL ("Llambda_24_33") / 

Llambda_24_33:

# BEGIN ("Llambda_24_33", 1, 0, [Access (0)], ["s1"], [{ blab="L256"; elab="L257"; names=[]; subs=[]; }]) / 

	.type lambda_24_33, @function

	.stabs "lambda_24_33:F1",36,0,0,Llambda_24_33

	.stabs "s1:p1",160,0,0,8

	.cfi_startproc

	pushl	%edx
	pushl	%ebp
	.cfi_def_cfa_offset	12

	.cfi_offset 5, -12

	movl	%esp,	%ebp
	.cfi_def_cfa_register	5

	subl	$LLlambda_24_33_SIZE,	%esp
	movl	%esp,	%edi
	movl	$filler,	%esi
	movl	$LSLlambda_24_33_SIZE,	%ecx
	rep movsl	
# SLABEL ("L256") / 

L256:

# LD (Global ("else_exp")) / 

	movl	global_else_exp,	%ebx
# CLOSURE ("Llambda_25_34", [Access (0); Arg (0)]) / 

	pushl	%ebx
	pushl	12(%ebp)
	pushl	4(%edx)
	pushl	$Llambda_25_34
	pushl	$5
	call	Bclosure
	addl	$16,	%esp
	movl	%eax,	%ecx
	popl	%ebx
	movl	4(%ebp),	%edx
# CALL ("Li__Infix_64", 2, true) / 

	pushl	%edx
	pushl	%ecx
	pushl	%ebx
	call	Li__Infix_64
	addl	$8,	%esp
	popl	%edx
	movl	%eax,	%ebx
# LABEL ("L258") / 

L258:

# SLABEL ("L257") / 

L257:

# END / 

	movl	%ebx,	%eax
LLlambda_24_33_epilogue:

	movl	%ebp,	%esp
	popl	%ebp
	popl	%edx
	.cfi_restore	5

	.cfi_def_cfa	4, 4

	ret
	.cfi_endproc

	.set	LLlambda_24_33_SIZE,	0

	.set	LSLlambda_24_33_SIZE,	0

	.size Llambda_24_33, .-Llambda_24_33

# LABEL ("Llambda_25_34") / 

Llambda_25_34:

# BEGIN ("Llambda_25_34", 1, 0, [Access (0); Arg (0)], ["s2"], [{ blab="L261"; elab="L262"; names=[]; subs=[{ blab="L264"; elab="L265"; names=[]; subs=[]; }]; }]) / 

	.type lambda_25_34, @function

	.stabs "lambda_25_34:F1",36,0,0,Llambda_25_34

	.stabs "s2:p1",160,0,0,8

	.cfi_startproc

	pushl	%edx
	pushl	%ebp
	.cfi_def_cfa_offset	12

	.cfi_offset 5, -12

	movl	%esp,	%ebp
	.cfi_def_cfa_register	5

	subl	$LLlambda_25_34_SIZE,	%esp
	movl	%esp,	%edi
	movl	$filler,	%esi
	movl	$LSLlambda_25_34_SIZE,	%ecx
	rep movsl	
# SLABEL ("L261") / 

L261:

# SLABEL ("L264") / 

L264:

# CLOSURE ("Llambda_26_36", [Access (0); Access (1); Arg (0)]) / 

	pushl	12(%ebp)
	pushl	8(%edx)
	pushl	4(%edx)
	pushl	$Llambda_26_36
	pushl	$7
	call	Bclosure
	addl	$20,	%esp
	movl	%eax,	%ebx
	movl	4(%ebp),	%edx
# SLABEL ("L265") / 

L265:

# LABEL ("L263") / 

L263:

# SLABEL ("L262") / 

L262:

# END / 

	movl	%ebx,	%eax
LLlambda_25_34_epilogue:

	movl	%ebp,	%esp
	popl	%ebp
	popl	%edx
	.cfi_restore	5

	.cfi_def_cfa	4, 4

	ret
	.cfi_endproc

	.set	LLlambda_25_34_SIZE,	0

	.set	LSLlambda_25_34_SIZE,	0

	.size Llambda_25_34, .-Llambda_25_34

# LABEL ("Llambda_26_36") / 

Llambda_26_36:

# BEGIN ("Llambda_26_36", 1, 0, [Access (0); Access (1); Arg (0)], ["arg"], [{ blab="L266"; elab="L267"; names=[]; subs=[{ blab="L269"; elab="L270"; names=[]; subs=[]; }]; }]) / 

	.type lambda_26_36, @function

	.stabs "lambda_26_36:F1",36,0,0,Llambda_26_36

	.stabs "arg:p1",160,0,0,8

	.cfi_startproc

	pushl	%edx
	pushl	%ebp
	.cfi_def_cfa_offset	12

	.cfi_offset 5, -12

	movl	%esp,	%ebp
	.cfi_def_cfa_register	5

	subl	$LLlambda_26_36_SIZE,	%esp
	movl	%esp,	%edi
	movl	$filler,	%esi
	movl	$LSLlambda_26_36_SIZE,	%ecx
	rep movsl	
# SLABEL ("L266") / 

L266:

# SLABEL ("L269") / 

L269:

# LD (Access (0)) / 

	movl	4(%edx),	%ebx
# SEXP ("Val", 0) / 

	movl	$393369,	%ecx
	pushl	%edx
	pushl	%ebx
	pushl	%ecx
	pushl	$3
	call	Bsexp
	addl	$8,	%esp
	popl	%ebx
	popl	%edx
	movl	%eax,	%ecx
# CALLC (1, false) / 

	pushl	%edx
	pushl	%ebx
	pushl	%ecx
	movl	%ebx,	%edx
	call	*(%ebx)
	addl	$4,	%esp
	popl	%ebx
	popl	%edx
	movl	%eax,	%ebx
# LD (Access (1)) / 

	movl	8(%edx),	%ecx
# LD (Arg (0)) / 

	movl	12(%ebp),	%esi
# CALLC (1, false) / 

	pushl	%edx
	pushl	%ebx
	pushl	%ecx
	pushl	%esi
	movl	%ecx,	%edx
	call	*(%ecx)
	addl	$4,	%esp
	popl	%ecx
	popl	%ebx
	popl	%edx
	movl	%eax,	%ecx
# LD (Access (2)) / 

	movl	12(%edx),	%esi
# LD (Arg (0)) / 

	movl	12(%ebp),	%edi
# CALLC (1, false) / 

	pushl	%edx
	pushl	%ebx
	pushl	%ecx
	pushl	%esi
	pushl	%edi
	movl	%esi,	%edx
	call	*(%esi)
	addl	$4,	%esp
	popl	%esi
	popl	%ecx
	popl	%ebx
	popl	%edx
	movl	%eax,	%esi
# SEXP ("If", 3) / 

	movl	$4493,	%edi
	pushl	%edx
	pushl	%edi
	pushl	%esi
	pushl	%ecx
	pushl	%ebx
	pushl	$9
	call	Bsexp
	addl	$20,	%esp
	popl	%edx
	movl	%eax,	%ebx
# SLABEL ("L270") / 

L270:

# LABEL ("L268") / 

L268:

# SLABEL ("L267") / 

L267:

# END / 

	movl	%ebx,	%eax
LLlambda_26_36_epilogue:

	movl	%ebp,	%esp
	popl	%ebp
	popl	%edx
	.cfi_restore	5

	.cfi_def_cfa	4, 4

	ret
	.cfi_endproc

	.set	LLlambda_26_36_SIZE,	0

	.set	LSLlambda_26_36_SIZE,	0

	.size Llambda_26_36, .-Llambda_26_36

# LABEL ("Llambda_0") / 

Llambda_0:

# BEGIN ("Llambda_0", 1, 0, [], ["__tmp276"], [{ blab="L281"; elab="L282"; names=[]; subs=[]; }]) / 

	.type lambda_0, @function

	.stabs "lambda_0:F1",36,0,0,Llambda_0

	.stabs "__tmp276:p1",160,0,0,8

	.cfi_startproc

	pushl	%ebp
	.cfi_def_cfa_offset	8

	.cfi_offset 5, -8

	movl	%esp,	%ebp
	.cfi_def_cfa_register	5

	subl	$LLlambda_0_SIZE,	%esp
	movl	%esp,	%edi
	movl	$filler,	%esi
	movl	$LSLlambda_0_SIZE,	%ecx
	rep movsl	
# SLABEL ("L281") / 

L281:

# LINE (111) / 

	.stabn 68,0,111,0

	.stabn 68,0,111,.L27-Llambda_0

.L27:

# LD (Global ("pos")) / 

	movl	global_pos,	%ebx
# LINE (109) / 

	.stabn 68,0,109,.L28-Llambda_0

.L28:

# CLOSURE ("Llambda_27_39", []) / 

	pushl	%ebx
	pushl	$Llambda_27_39
	pushl	$1
	call	Bclosure
	addl	$8,	%esp
	movl	%eax,	%ecx
	popl	%ebx
# CALL ("Lseq", 2, false) / 

	pushl	%ecx
	pushl	%ebx
	call	Lseq
	addl	$8,	%esp
	movl	%eax,	%ebx
# LINE (114) / 

	.stabn 68,0,114,.L29-Llambda_0

.L29:

# LD (Global ("lident")) / 

	movl	global_lident,	%ecx
# LINE (111) / 

	.stabn 68,0,111,.L30-Llambda_0

.L30:

# CLOSURE ("Llambda_28_39", []) / 

	pushl	%ebx
	pushl	%ecx
	pushl	$Llambda_28_39
	pushl	$1
	call	Bclosure
	addl	$8,	%esp
	movl	%eax,	%esi
	popl	%ecx
	popl	%ebx
# CALL ("Li__Infix_64", 2, false) / 

	pushl	%ebx
	pushl	%esi
	pushl	%ecx
	call	Li__Infix_64
	addl	$8,	%esp
	popl	%ebx
	movl	%eax,	%ecx
# LINE (123) / 

	.stabn 68,0,123,.L31-Llambda_0

.L31:

# LD (Global ("pos")) / 

	movl	global_pos,	%esi
# LINE (120) / 

	.stabn 68,0,120,.L32-Llambda_0

.L32:

# CLOSURE ("Llambda_29_39", []) / 

	pushl	%ebx
	pushl	%ecx
	pushl	%esi
	pushl	$Llambda_29_39
	pushl	$1
	call	Bclosure
	addl	$8,	%esp
	movl	%eax,	%edi
	popl	%esi
	popl	%ecx
	popl	%ebx
# CALL ("Lseq", 2, false) / 

	pushl	%ebx
	pushl	%ecx
	pushl	%edi
	pushl	%esi
	call	Lseq
	addl	$8,	%esp
	popl	%ecx
	popl	%ebx
	movl	%eax,	%esi
# LINE (124) / 

	.stabn 68,0,124,.L33-Llambda_0

.L33:

# LD (Global ("pos")) / 

	movl	global_pos,	%edi
# LINE (123) / 

	.stabn 68,0,123,.L34-Llambda_0

.L34:

# CLOSURE ("Llambda_30_39", []) / 

	pushl	%ebx
	pushl	%ecx
	pushl	%esi
	pushl	%edi
	pushl	$Llambda_30_39
	pushl	$1
	call	Bclosure
	addl	$8,	%esp
	movl	%eax,	-4(%ebp)
	popl	%edi
	popl	%esi
	popl	%ecx
	popl	%ebx
# CALL ("Lseq", 2, false) / 

	pushl	%ebx
	pushl	%ecx
	pushl	%esi
	pushl	-4(%ebp)
	pushl	%edi
	call	Lseq
	addl	$8,	%esp
	popl	%esi
	popl	%ecx
	popl	%ebx
	movl	%eax,	%edi
# LINE (125) / 

	.stabn 68,0,125,.L35-Llambda_0

.L35:

# LD (Global ("lident")) / 

	movl	global_lident,	%eax
	movl	%eax,	-4(%ebp)
# LINE (124) / 

	.stabn 68,0,124,.L36-Llambda_0

.L36:

# CLOSURE ("Llambda_31_39", []) / 

	pushl	%ebx
	pushl	%ecx
	pushl	%esi
	pushl	%edi
	pushl	$Llambda_31_39
	pushl	$1
	call	Bclosure
	addl	$8,	%esp
	movl	%eax,	-8(%ebp)
	popl	%edi
	popl	%esi
	popl	%ecx
	popl	%ebx
# CALL ("Li__Infix_64", 2, false) / 

	pushl	%ebx
	pushl	%ecx
	pushl	%esi
	pushl	%edi
	pushl	-8(%ebp)
	pushl	-4(%ebp)
	call	Li__Infix_64
	addl	$8,	%esp
	popl	%edi
	popl	%esi
	popl	%ecx
	popl	%ebx
	movl	%eax,	-4(%ebp)
# LINE (130) / 

	.stabn 68,0,130,.L37-Llambda_0

.L37:

# LD (Global ("pos")) / 

	movl	global_pos,	%eax
	movl	%eax,	-8(%ebp)
# LINE (129) / 

	.stabn 68,0,129,.L38-Llambda_0

.L38:

# CLOSURE ("Llambda_32_39", []) / 

	pushl	%ebx
	pushl	%ecx
	pushl	%esi
	pushl	%edi
	pushl	$Llambda_32_39
	pushl	$1
	call	Bclosure
	addl	$8,	%esp
	movl	%eax,	-12(%ebp)
	popl	%edi
	popl	%esi
	popl	%ecx
	popl	%ebx
# CALL ("Lseq", 2, false) / 

	pushl	%ebx
	pushl	%ecx
	pushl	%esi
	pushl	%edi
	pushl	-12(%ebp)
	pushl	-8(%ebp)
	call	Lseq
	addl	$8,	%esp
	popl	%edi
	popl	%esi
	popl	%ecx
	popl	%ebx
	movl	%eax,	-8(%ebp)
# LINE (131) / 

	.stabn 68,0,131,.L39-Llambda_0

.L39:

# LD (Global ("pos")) / 

	movl	global_pos,	%eax
	movl	%eax,	-12(%ebp)
# LINE (130) / 

	.stabn 68,0,130,.L40-Llambda_0

.L40:

# CLOSURE ("Llambda_33_39", []) / 

	pushl	%ebx
	pushl	%ecx
	pushl	%esi
	pushl	%edi
	pushl	$Llambda_33_39
	pushl	$1
	call	Bclosure
	addl	$8,	%esp
	movl	%eax,	-16(%ebp)
	popl	%edi
	popl	%esi
	popl	%ecx
	popl	%ebx
# CALL ("Lseq", 2, false) / 

	pushl	%ebx
	pushl	%ecx
	pushl	%esi
	pushl	%edi
	pushl	-16(%ebp)
	pushl	-12(%ebp)
	call	Lseq
	addl	$8,	%esp
	popl	%edi
	popl	%esi
	popl	%ecx
	popl	%ebx
	movl	%eax,	-12(%ebp)
# LINE (132) / 

	.stabn 68,0,132,.L41-Llambda_0

.L41:

# LD (Global ("pos")) / 

	movl	global_pos,	%eax
	movl	%eax,	-16(%ebp)
# LINE (131) / 

	.stabn 68,0,131,.L42-Llambda_0

.L42:

# CLOSURE ("Llambda_34_39", []) / 

	pushl	%ebx
	pushl	%ecx
	pushl	%esi
	pushl	%edi
	pushl	$Llambda_34_39
	pushl	$1
	call	Bclosure
	addl	$8,	%esp
	movl	%eax,	-20(%ebp)
	popl	%edi
	popl	%esi
	popl	%ecx
	popl	%ebx
# CALL ("Lseq", 2, false) / 

	pushl	%ebx
	pushl	%ecx
	pushl	%esi
	pushl	%edi
	pushl	-20(%ebp)
	pushl	-16(%ebp)
	call	Lseq
	addl	$8,	%esp
	popl	%edi
	popl	%esi
	popl	%ecx
	popl	%ebx
	movl	%eax,	-16(%ebp)
# LINE (133) / 

	.stabn 68,0,133,.L43-Llambda_0

.L43:

# LD (Global ("pos")) / 

	movl	global_pos,	%eax
	movl	%eax,	-20(%ebp)
# LINE (132) / 

	.stabn 68,0,132,.L44-Llambda_0

.L44:

# CLOSURE ("Llambda_35_39", []) / 

	pushl	%ebx
	pushl	%ecx
	pushl	%esi
	pushl	%edi
	pushl	$Llambda_35_39
	pushl	$1
	call	Bclosure
	addl	$8,	%esp
	movl	%eax,	-24(%ebp)
	popl	%edi
	popl	%esi
	popl	%ecx
	popl	%ebx
# CALL ("Lseq", 2, false) / 

	pushl	%ebx
	pushl	%ecx
	pushl	%esi
	pushl	%edi
	pushl	-24(%ebp)
	pushl	-20(%ebp)
	call	Lseq
	addl	$8,	%esp
	popl	%edi
	popl	%esi
	popl	%ecx
	popl	%ebx
	movl	%eax,	-20(%ebp)
# LINE (134) / 

	.stabn 68,0,134,.L45-Llambda_0

.L45:

# LD (Global ("pos")) / 

	movl	global_pos,	%eax
	movl	%eax,	-24(%ebp)
# LINE (133) / 

	.stabn 68,0,133,.L46-Llambda_0

.L46:

# CLOSURE ("Llambda_36_39", []) / 

	pushl	%ebx
	pushl	%ecx
	pushl	%esi
	pushl	%edi
	pushl	$Llambda_36_39
	pushl	$1
	call	Bclosure
	addl	$8,	%esp
	movl	%eax,	-28(%ebp)
	popl	%edi
	popl	%esi
	popl	%ecx
	popl	%ebx
# CALL ("Lseq", 2, false) / 

	pushl	%ebx
	pushl	%ecx
	pushl	%esi
	pushl	%edi
	pushl	-28(%ebp)
	pushl	-24(%ebp)
	call	Lseq
	addl	$8,	%esp
	popl	%edi
	popl	%esi
	popl	%ecx
	popl	%ebx
	movl	%eax,	-24(%ebp)
# LINE (135) / 

	.stabn 68,0,135,.L47-Llambda_0

.L47:

# LD (Global ("pos")) / 

	movl	global_pos,	%eax
	movl	%eax,	-28(%ebp)
# LINE (134) / 

	.stabn 68,0,134,.L48-Llambda_0

.L48:

# CLOSURE ("Llambda_37_39", []) / 

	pushl	%ebx
	pushl	%ecx
	pushl	%esi
	pushl	%edi
	pushl	$Llambda_37_39
	pushl	$1
	call	Bclosure
	addl	$8,	%esp
	movl	%eax,	-32(%ebp)
	popl	%edi
	popl	%esi
	popl	%ecx
	popl	%ebx
# CALL ("Lseq", 2, false) / 

	pushl	%ebx
	pushl	%ecx
	pushl	%esi
	pushl	%edi
	pushl	-32(%ebp)
	pushl	-28(%ebp)
	call	Lseq
	addl	$8,	%esp
	popl	%edi
	popl	%esi
	popl	%ecx
	popl	%ebx
	movl	%eax,	-28(%ebp)
# LINE (140) / 

	.stabn 68,0,140,.L49-Llambda_0

.L49:

# LD (Global ("pos")) / 

	movl	global_pos,	%eax
	movl	%eax,	-32(%ebp)
# LINE (139) / 

	.stabn 68,0,139,.L50-Llambda_0

.L50:

# CLOSURE ("Llambda_38_39", []) / 

	pushl	%ebx
	pushl	%ecx
	pushl	%esi
	pushl	%edi
	pushl	$Llambda_38_39
	pushl	$1
	call	Bclosure
	addl	$8,	%esp
	movl	%eax,	-36(%ebp)
	popl	%edi
	popl	%esi
	popl	%ecx
	popl	%ebx
# CALL ("Lseq", 2, false) / 

	pushl	%ebx
	pushl	%ecx
	pushl	%esi
	pushl	%edi
	pushl	-36(%ebp)
	pushl	-32(%ebp)
	call	Lseq
	addl	$8,	%esp
	popl	%edi
	popl	%esi
	popl	%ecx
	popl	%ebx
	movl	%eax,	-32(%ebp)
# CALL ("Lalt", 2, false) / 

	pushl	%ebx
	pushl	%ecx
	pushl	%esi
	pushl	%edi
	pushl	-32(%ebp)
	pushl	-28(%ebp)
	call	Lalt
	addl	$8,	%esp
	popl	%edi
	popl	%esi
	popl	%ecx
	popl	%ebx
	movl	%eax,	-28(%ebp)
# CALL ("Lalt", 2, false) / 

	pushl	%ebx
	pushl	%ecx
	pushl	%esi
	pushl	%edi
	pushl	-28(%ebp)
	pushl	-24(%ebp)
	call	Lalt
	addl	$8,	%esp
	popl	%edi
	popl	%esi
	popl	%ecx
	popl	%ebx
	movl	%eax,	-24(%ebp)
# CALL ("Lalt", 2, false) / 

	pushl	%ebx
	pushl	%ecx
	pushl	%esi
	pushl	%edi
	pushl	-24(%ebp)
	pushl	-20(%ebp)
	call	Lalt
	addl	$8,	%esp
	popl	%edi
	popl	%esi
	popl	%ecx
	popl	%ebx
	movl	%eax,	-20(%ebp)
# CALL ("Lalt", 2, false) / 

	pushl	%ebx
	pushl	%ecx
	pushl	%esi
	pushl	%edi
	pushl	-20(%ebp)
	pushl	-16(%ebp)
	call	Lalt
	addl	$8,	%esp
	popl	%edi
	popl	%esi
	popl	%ecx
	popl	%ebx
	movl	%eax,	-16(%ebp)
# CALL ("Lalt", 2, false) / 

	pushl	%ebx
	pushl	%ecx
	pushl	%esi
	pushl	%edi
	pushl	-16(%ebp)
	pushl	-12(%ebp)
	call	Lalt
	addl	$8,	%esp
	popl	%edi
	popl	%esi
	popl	%ecx
	popl	%ebx
	movl	%eax,	-12(%ebp)
# CALL ("Lalt", 2, false) / 

	pushl	%ebx
	pushl	%ecx
	pushl	%esi
	pushl	%edi
	pushl	-12(%ebp)
	pushl	-8(%ebp)
	call	Lalt
	addl	$8,	%esp
	popl	%edi
	popl	%esi
	popl	%ecx
	popl	%ebx
	movl	%eax,	-8(%ebp)
# CALL ("Lalt", 2, false) / 

	pushl	%ebx
	pushl	%ecx
	pushl	%esi
	pushl	%edi
	pushl	-8(%ebp)
	pushl	-4(%ebp)
	call	Lalt
	addl	$8,	%esp
	popl	%edi
	popl	%esi
	popl	%ecx
	popl	%ebx
	movl	%eax,	-4(%ebp)
# CALL ("Lalt", 2, false) / 

	pushl	%ebx
	pushl	%ecx
	pushl	%esi
	pushl	-4(%ebp)
	pushl	%edi
	call	Lalt
	addl	$8,	%esp
	popl	%esi
	popl	%ecx
	popl	%ebx
	movl	%eax,	%edi
# CALL ("Lalt", 2, false) / 

	pushl	%ebx
	pushl	%ecx
	pushl	%edi
	pushl	%esi
	call	Lalt
	addl	$8,	%esp
	popl	%ecx
	popl	%ebx
	movl	%eax,	%esi
# CALL ("Lalt", 2, false) / 

	pushl	%ebx
	pushl	%esi
	pushl	%ecx
	call	Lalt
	addl	$8,	%esp
	popl	%ebx
	movl	%eax,	%ecx
# CALL ("Lalt", 2, false) / 

	pushl	%ecx
	pushl	%ebx
	call	Lalt
	addl	$8,	%esp
	movl	%eax,	%ebx
# LD (Arg (0)) / 

	movl	8(%ebp),	%ecx
# CALLC (1, true) / 

	movl	%ecx,	8(%ebp)
	movl	%ebx,	%edx
	movl	(%edx),	%eax
	movl	%ebp,	%esp
	popl	%ebp
	jmp	*%eax
# LABEL ("L283") / 

L283:

# SLABEL ("L282") / 

L282:

# END / 

	movl	%ebx,	%eax
LLlambda_0_epilogue:

	movl	%ebp,	%esp
	popl	%ebp
	.cfi_restore	5

	.cfi_def_cfa	4, 4

	ret
	.cfi_endproc

	.set	LLlambda_0_SIZE,	36

	.set	LSLlambda_0_SIZE,	9

	.size Llambda_0, .-Llambda_0

# LABEL ("Llambda_38_39") / 

Llambda_38_39:

# BEGIN ("Llambda_38_39", 1, 0, [], ["loc"], [{ blab="L332"; elab="L333"; names=[]; subs=[]; }]) / 

	.type lambda_38_39, @function

	.stabs "lambda_38_39:F1",36,0,0,Llambda_38_39

	.stabs "loc:p1",160,0,0,8

	.cfi_startproc

	pushl	%ebp
	.cfi_def_cfa_offset	8

	.cfi_offset 5, -8

	movl	%esp,	%ebp
	.cfi_def_cfa_register	5

	subl	$LLlambda_38_39_SIZE,	%esp
	movl	%esp,	%edi
	movl	$filler,	%esi
	movl	$LSLlambda_38_39_SIZE,	%ecx
	rep movsl	
# SLABEL ("L332") / 

L332:

# LINE (140) / 

	.stabn 68,0,140,0

	.stabn 68,0,140,.L51-Llambda_38_39

.L51:

# LD (Global ("kRepeat")) / 

	movl	global_kRepeat,	%ebx
# CLOSURE ("Llambda_39_40", [Arg (0)]) / 

	pushl	%ebx
	pushl	8(%ebp)
	pushl	$Llambda_39_40
	pushl	$3
	call	Bclosure
	addl	$12,	%esp
	movl	%eax,	%ecx
	popl	%ebx
# CALL ("Lseq", 2, true) / 

	pushl	%ecx
	pushl	%ebx
	call	Lseq
	addl	$8,	%esp
	movl	%eax,	%ebx
# LABEL ("L334") / 

L334:

# SLABEL ("L333") / 

L333:

# END / 

	movl	%ebx,	%eax
LLlambda_38_39_epilogue:

	movl	%ebp,	%esp
	popl	%ebp
	.cfi_restore	5

	.cfi_def_cfa	4, 4

	ret
	.cfi_endproc

	.set	LLlambda_38_39_SIZE,	0

	.set	LSLlambda_38_39_SIZE,	0

	.size Llambda_38_39, .-Llambda_38_39

# LABEL ("Llambda_39_40") / 

Llambda_39_40:

# BEGIN ("Llambda_39_40", 1, 0, [Arg (0)], ["__tmp155"], [{ blab="L337"; elab="L338"; names=[]; subs=[]; }]) / 

	.type lambda_39_40, @function

	.stabs "lambda_39_40:F1",36,0,0,Llambda_39_40

	.stabs "__tmp155:p1",160,0,0,8

	.cfi_startproc

	pushl	%edx
	pushl	%ebp
	.cfi_def_cfa_offset	12

	.cfi_offset 5, -12

	movl	%esp,	%ebp
	.cfi_def_cfa_register	5

	subl	$LLlambda_39_40_SIZE,	%esp
	movl	%esp,	%edi
	movl	$filler,	%esi
	movl	$LSLlambda_39_40_SIZE,	%ecx
	rep movsl	
# SLABEL ("L337") / 

L337:

# LD (Global ("exp")) / 

	movl	global_exp,	%ebx
# CLOSURE ("Llambda_40_41", [Access (0)]) / 

	pushl	%ebx
	pushl	4(%edx)
	pushl	$Llambda_40_41
	pushl	$3
	call	Bclosure
	addl	$12,	%esp
	movl	%eax,	%ecx
	popl	%ebx
	movl	4(%ebp),	%edx
# CALL ("Lseq", 2, true) / 

	pushl	%edx
	pushl	%ecx
	pushl	%ebx
	call	Lseq
	addl	$8,	%esp
	popl	%edx
	movl	%eax,	%ebx
# LABEL ("L339") / 

L339:

# SLABEL ("L338") / 

L338:

# END / 

	movl	%ebx,	%eax
LLlambda_39_40_epilogue:

	movl	%ebp,	%esp
	popl	%ebp
	popl	%edx
	.cfi_restore	5

	.cfi_def_cfa	4, 4

	ret
	.cfi_endproc

	.set	LLlambda_39_40_SIZE,	0

	.set	LSLlambda_39_40_SIZE,	0

	.size Llambda_39_40, .-Llambda_39_40

# LABEL ("Llambda_40_41") / 

Llambda_40_41:

# BEGIN ("Llambda_40_41", 1, 0, [Access (0)], ["s1"], [{ blab="L342"; elab="L343"; names=[]; subs=[]; }]) / 

	.type lambda_40_41, @function

	.stabs "lambda_40_41:F1",36,0,0,Llambda_40_41

	.stabs "s1:p1",160,0,0,8

	.cfi_startproc

	pushl	%edx
	pushl	%ebp
	.cfi_def_cfa_offset	12

	.cfi_offset 5, -12

	movl	%esp,	%ebp
	.cfi_def_cfa_register	5

	subl	$LLlambda_40_41_SIZE,	%esp
	movl	%esp,	%edi
	movl	$filler,	%esi
	movl	$LSLlambda_40_41_SIZE,	%ecx
	rep movsl	
# SLABEL ("L342") / 

L342:

# LD (Global ("kUntil")) / 

	movl	global_kUntil,	%ebx
# CLOSURE ("Llambda_41_42", [Arg (0); Access (0)]) / 

	pushl	%ebx
	pushl	4(%edx)
	pushl	12(%ebp)
	pushl	$Llambda_41_42
	pushl	$5
	call	Bclosure
	addl	$16,	%esp
	movl	%eax,	%ecx
	popl	%ebx
	movl	4(%ebp),	%edx
# CALL ("Lseq", 2, true) / 

	pushl	%edx
	pushl	%ecx
	pushl	%ebx
	call	Lseq
	addl	$8,	%esp
	popl	%edx
	movl	%eax,	%ebx
# LABEL ("L344") / 

L344:

# SLABEL ("L343") / 

L343:

# END / 

	movl	%ebx,	%eax
LLlambda_40_41_epilogue:

	movl	%ebp,	%esp
	popl	%ebp
	popl	%edx
	.cfi_restore	5

	.cfi_def_cfa	4, 4

	ret
	.cfi_endproc

	.set	LLlambda_40_41_SIZE,	0

	.set	LSLlambda_40_41_SIZE,	0

	.size Llambda_40_41, .-Llambda_40_41

# LABEL ("Llambda_41_42") / 

Llambda_41_42:

# BEGIN ("Llambda_41_42", 1, 0, [Arg (0); Access (0)], ["__tmp154"], [{ blab="L347"; elab="L348"; names=[]; subs=[]; }]) / 

	.type lambda_41_42, @function

	.stabs "lambda_41_42:F1",36,0,0,Llambda_41_42

	.stabs "__tmp154:p1",160,0,0,8

	.cfi_startproc

	pushl	%edx
	pushl	%ebp
	.cfi_def_cfa_offset	12

	.cfi_offset 5, -12

	movl	%esp,	%ebp
	.cfi_def_cfa_register	5

	subl	$LLlambda_41_42_SIZE,	%esp
	movl	%esp,	%edi
	movl	$filler,	%esi
	movl	$LSLlambda_41_42_SIZE,	%ecx
	rep movsl	
# SLABEL ("L347") / 

L347:

# STRING ("(") / 

	movl	$string_15,	%ebx
	pushl	%edx
	pushl	%ebx
	call	Bstring
	addl	$4,	%esp
	popl	%edx
	movl	%eax,	%ebx
# CALL ("Ls", 1, false) / 

	pushl	%edx
	pushl	%ebx
	call	Ls
	addl	$4,	%esp
	popl	%edx
	movl	%eax,	%ebx
# LD (Global ("exp")) / 

	movl	global_exp,	%ecx
# STRING (")") / 

	movl	$string_16,	%esi
	pushl	%edx
	pushl	%ebx
	pushl	%ecx
	pushl	%esi
	call	Bstring
	addl	$4,	%esp
	popl	%ecx
	popl	%ebx
	popl	%edx
	movl	%eax,	%esi
# CALL ("Ls", 1, false) / 

	pushl	%edx
	pushl	%ebx
	pushl	%ecx
	pushl	%esi
	call	Ls
	addl	$4,	%esp
	popl	%ecx
	popl	%ebx
	popl	%edx
	movl	%eax,	%esi
# CALL ("Linbr", 3, false) / 

	pushl	%edx
	pushl	%esi
	pushl	%ecx
	pushl	%ebx
	call	Linbr
	addl	$12,	%esp
	popl	%edx
	movl	%eax,	%ebx
# CLOSURE ("Llambda_42_43", [Access (0); Access (1)]) / 

	pushl	%ebx
	pushl	8(%edx)
	pushl	4(%edx)
	pushl	$Llambda_42_43
	pushl	$5
	call	Bclosure
	addl	$16,	%esp
	movl	%eax,	%ecx
	popl	%ebx
	movl	4(%ebp),	%edx
# CALL ("Li__Infix_64", 2, true) / 

	pushl	%edx
	pushl	%ecx
	pushl	%ebx
	call	Li__Infix_64
	addl	$8,	%esp
	popl	%edx
	movl	%eax,	%ebx
# LABEL ("L349") / 

L349:

# SLABEL ("L348") / 

L348:

# END / 

	movl	%ebx,	%eax
LLlambda_41_42_epilogue:

	movl	%ebp,	%esp
	popl	%ebp
	popl	%edx
	.cfi_restore	5

	.cfi_def_cfa	4, 4

	ret
	.cfi_endproc

	.set	LLlambda_41_42_SIZE,	0

	.set	LSLlambda_41_42_SIZE,	0

	.size Llambda_41_42, .-Llambda_41_42

# LABEL ("Llambda_42_43") / 

Llambda_42_43:

# BEGIN ("Llambda_42_43", 1, 0, [Access (0); Access (1)], ["expression"], [{ blab="L357"; elab="L358"; names=[]; subs=[{ blab="L360"; elab="L361"; names=[]; subs=[]; }]; }]) / 

	.type lambda_42_43, @function

	.stabs "lambda_42_43:F1",36,0,0,Llambda_42_43

	.stabs "expression:p1",160,0,0,8

	.cfi_startproc

	pushl	%edx
	pushl	%ebp
	.cfi_def_cfa_offset	12

	.cfi_offset 5, -12

	movl	%esp,	%ebp
	.cfi_def_cfa_register	5

	subl	$LLlambda_42_43_SIZE,	%esp
	movl	%esp,	%edi
	movl	$filler,	%esi
	movl	$LSLlambda_42_43_SIZE,	%ecx
	rep movsl	
# SLABEL ("L357") / 

L357:

# SLABEL ("L360") / 

L360:

# CLOSURE ("Llambda_43_45", [Access (0); Arg (0); Access (1)]) / 

	pushl	8(%edx)
	pushl	12(%ebp)
	pushl	4(%edx)
	pushl	$Llambda_43_45
	pushl	$7
	call	Bclosure
	addl	$20,	%esp
	movl	%eax,	%ebx
	movl	4(%ebp),	%edx
# SLABEL ("L361") / 

L361:

# LABEL ("L359") / 

L359:

# SLABEL ("L358") / 

L358:

# END / 

	movl	%ebx,	%eax
LLlambda_42_43_epilogue:

	movl	%ebp,	%esp
	popl	%ebp
	popl	%edx
	.cfi_restore	5

	.cfi_def_cfa	4, 4

	ret
	.cfi_endproc

	.set	LLlambda_42_43_SIZE,	0

	.set	LSLlambda_42_43_SIZE,	0

	.size Llambda_42_43, .-Llambda_42_43

# LABEL ("Llambda_43_45") / 

Llambda_43_45:

# BEGIN ("Llambda_43_45", 1, 0, [Access (0); Arg (0); Access (1)], ["arg"], [{ blab="L362"; elab="L363"; names=[]; subs=[{ blab="L365"; elab="L366"; names=[]; subs=[]; }]; }]) / 

	.type lambda_43_45, @function

	.stabs "lambda_43_45:F1",36,0,0,Llambda_43_45

	.stabs "arg:p1",160,0,0,8

	.cfi_startproc

	pushl	%edx
	pushl	%ebp
	.cfi_def_cfa_offset	12

	.cfi_offset 5, -12

	movl	%esp,	%ebp
	.cfi_def_cfa_register	5

	subl	$LLlambda_43_45_SIZE,	%esp
	movl	%esp,	%edi
	movl	$filler,	%esi
	movl	$LSLlambda_43_45_SIZE,	%ecx
	rep movsl	
# SLABEL ("L362") / 

L362:

# SLABEL ("L365") / 

L365:

# LD (Arg (0)) / 

	movl	12(%ebp),	%ebx
# LD (Access (0)) / 

	movl	4(%edx),	%ecx
# SEXP ("Void", 0) / 

	movl	$25289865,	%esi
	pushl	%edx
	pushl	%ebx
	pushl	%ecx
	pushl	%esi
	pushl	$3
	call	Bsexp
	addl	$8,	%esp
	popl	%ecx
	popl	%ebx
	popl	%edx
	movl	%eax,	%esi
# CALLC (1, false) / 

	pushl	%edx
	pushl	%ebx
	pushl	%ecx
	pushl	%esi
	movl	%ecx,	%edx
	call	*(%ecx)
	addl	$4,	%esp
	popl	%ecx
	popl	%ebx
	popl	%edx
	movl	%eax,	%ecx
# LD (Access (1)) / 

	movl	8(%edx),	%esi
# SEXP ("Val", 0) / 

	movl	$393369,	%edi
	pushl	%edx
	pushl	%ebx
	pushl	%ecx
	pushl	%esi
	pushl	%edi
	pushl	$3
	call	Bsexp
	addl	$8,	%esp
	popl	%esi
	popl	%ecx
	popl	%ebx
	popl	%edx
	movl	%eax,	%edi
# CALLC (1, false) / 

	pushl	%edx
	pushl	%ebx
	pushl	%ecx
	pushl	%esi
	pushl	%edi
	movl	%esi,	%edx
	call	*(%esi)
	addl	$4,	%esp
	popl	%esi
	popl	%ecx
	popl	%ebx
	popl	%edx
	movl	%eax,	%esi
# SEXP ("Repeat", 2) / 

	movl	$1479148163,	%edi
	pushl	%edx
	pushl	%ebx
	pushl	%edi
	pushl	%esi
	pushl	%ecx
	pushl	$7
	call	Bsexp
	addl	$16,	%esp
	popl	%ebx
	popl	%edx
	movl	%eax,	%ecx
# LD (Access (2)) / 

	movl	12(%edx),	%esi
# CALL ("LassertVoid", 3, true) / 

	pushl	%edx
	pushl	%esi
	pushl	%ecx
	pushl	%ebx
	call	LassertVoid
	addl	$12,	%esp
	popl	%edx
	movl	%eax,	%ebx
# SLABEL ("L366") / 

L366:

# LABEL ("L364") / 

L364:

# SLABEL ("L363") / 

L363:

# END / 

	movl	%ebx,	%eax
LLlambda_43_45_epilogue:

	movl	%ebp,	%esp
	popl	%ebp
	popl	%edx
	.cfi_restore	5

	.cfi_def_cfa	4, 4

	ret
	.cfi_endproc

	.set	LLlambda_43_45_SIZE,	0

	.set	LSLlambda_43_45_SIZE,	0

	.size Llambda_43_45, .-Llambda_43_45

# LABEL ("Llambda_37_39") / 

Llambda_37_39:

# BEGIN ("Llambda_37_39", 1, 0, [], ["loc"], [{ blab="L378"; elab="L379"; names=[]; subs=[]; }]) / 

	.type lambda_37_39, @function

	.stabs "lambda_37_39:F1",36,0,0,Llambda_37_39

	.stabs "loc:p1",160,0,0,8

	.cfi_startproc

	pushl	%ebp
	.cfi_def_cfa_offset	8

	.cfi_offset 5, -8

	movl	%esp,	%ebp
	.cfi_def_cfa_register	5

	subl	$LLlambda_37_39_SIZE,	%esp
	movl	%esp,	%edi
	movl	$filler,	%esi
	movl	$LSLlambda_37_39_SIZE,	%ecx
	rep movsl	
# SLABEL ("L378") / 

L378:

# LINE (135) / 

	.stabn 68,0,135,0

	.stabn 68,0,135,.L52-Llambda_37_39

.L52:

# LD (Global ("kFor")) / 

	movl	global_kFor,	%ebx
# CLOSURE ("Llambda_44_48", [Arg (0)]) / 

	pushl	%ebx
	pushl	8(%ebp)
	pushl	$Llambda_44_48
	pushl	$3
	call	Bclosure
	addl	$12,	%esp
	movl	%eax,	%ecx
	popl	%ebx
# CALL ("Lseq", 2, true) / 

	pushl	%ecx
	pushl	%ebx
	call	Lseq
	addl	$8,	%esp
	movl	%eax,	%ebx
# LABEL ("L380") / 

L380:

# SLABEL ("L379") / 

L379:

# END / 

	movl	%ebx,	%eax
LLlambda_37_39_epilogue:

	movl	%ebp,	%esp
	popl	%ebp
	.cfi_restore	5

	.cfi_def_cfa	4, 4

	ret
	.cfi_endproc

	.set	LLlambda_37_39_SIZE,	0

	.set	LSLlambda_37_39_SIZE,	0

	.size Llambda_37_39, .-Llambda_37_39

# LABEL ("Llambda_44_48") / 

Llambda_44_48:

# BEGIN ("Llambda_44_48", 1, 0, [Arg (0)], ["__tmp139"], [{ blab="L383"; elab="L384"; names=[]; subs=[]; }]) / 

	.type lambda_44_48, @function

	.stabs "lambda_44_48:F1",36,0,0,Llambda_44_48

	.stabs "__tmp139:p1",160,0,0,8

	.cfi_startproc

	pushl	%edx
	pushl	%ebp
	.cfi_def_cfa_offset	12

	.cfi_offset 5, -12

	movl	%esp,	%ebp
	.cfi_def_cfa_register	5

	subl	$LLlambda_44_48_SIZE,	%esp
	movl	%esp,	%edi
	movl	$filler,	%esi
	movl	$LSLlambda_44_48_SIZE,	%ecx
	rep movsl	
# SLABEL ("L383") / 

L383:

# LD (Global ("exp")) / 

	movl	global_exp,	%ebx
# CLOSURE ("Llambda_45_49", [Access (0)]) / 

	pushl	%ebx
	pushl	4(%edx)
	pushl	$Llambda_45_49
	pushl	$3
	call	Bclosure
	addl	$12,	%esp
	movl	%eax,	%ecx
	popl	%ebx
	movl	4(%ebp),	%edx
# CALL ("Lseq", 2, true) / 

	pushl	%edx
	pushl	%ecx
	pushl	%ebx
	call	Lseq
	addl	$8,	%esp
	popl	%edx
	movl	%eax,	%ebx
# LABEL ("L385") / 

L385:

# SLABEL ("L384") / 

L384:

# END / 

	movl	%ebx,	%eax
LLlambda_44_48_epilogue:

	movl	%ebp,	%esp
	popl	%ebp
	popl	%edx
	.cfi_restore	5

	.cfi_def_cfa	4, 4

	ret
	.cfi_endproc

	.set	LLlambda_44_48_SIZE,	0

	.set	LSLlambda_44_48_SIZE,	0

	.size Llambda_44_48, .-Llambda_44_48

# LABEL ("Llambda_45_49") / 

Llambda_45_49:

# BEGIN ("Llambda_45_49", 1, 0, [Access (0)], ["s1"], [{ blab="L388"; elab="L389"; names=[]; subs=[]; }]) / 

	.type lambda_45_49, @function

	.stabs "lambda_45_49:F1",36,0,0,Llambda_45_49

	.stabs "s1:p1",160,0,0,8

	.cfi_startproc

	pushl	%edx
	pushl	%ebp
	.cfi_def_cfa_offset	12

	.cfi_offset 5, -12

	movl	%esp,	%ebp
	.cfi_def_cfa_register	5

	subl	$LLlambda_45_49_SIZE,	%esp
	movl	%esp,	%edi
	movl	$filler,	%esi
	movl	$LSLlambda_45_49_SIZE,	%ecx
	rep movsl	
# SLABEL ("L388") / 

L388:

# STRING (",") / 

	movl	$string_17,	%ebx
	pushl	%edx
	pushl	%ebx
	call	Bstring
	addl	$4,	%esp
	popl	%edx
	movl	%eax,	%ebx
# CALL ("Ls", 1, false) / 

	pushl	%edx
	pushl	%ebx
	call	Ls
	addl	$4,	%esp
	popl	%edx
	movl	%eax,	%ebx
# CLOSURE ("Llambda_46_50", [Arg (0); Access (0)]) / 

	pushl	%ebx
	pushl	4(%edx)
	pushl	12(%ebp)
	pushl	$Llambda_46_50
	pushl	$5
	call	Bclosure
	addl	$16,	%esp
	movl	%eax,	%ecx
	popl	%ebx
	movl	4(%ebp),	%edx
# CALL ("Lseq", 2, true) / 

	pushl	%edx
	pushl	%ecx
	pushl	%ebx
	call	Lseq
	addl	$8,	%esp
	popl	%edx
	movl	%eax,	%ebx
# LABEL ("L390") / 

L390:

# SLABEL ("L389") / 

L389:

# END / 

	movl	%ebx,	%eax
LLlambda_45_49_epilogue:

	movl	%ebp,	%esp
	popl	%ebp
	popl	%edx
	.cfi_restore	5

	.cfi_def_cfa	4, 4

	ret
	.cfi_endproc

	.set	LLlambda_45_49_SIZE,	0

	.set	LSLlambda_45_49_SIZE,	0

	.size Llambda_45_49, .-Llambda_45_49

# LABEL ("Llambda_46_50") / 

Llambda_46_50:

# BEGIN ("Llambda_46_50", 1, 0, [Arg (0); Access (0)], ["__tmp138"], [{ blab="L394"; elab="L395"; names=[]; subs=[]; }]) / 

	.type lambda_46_50, @function

	.stabs "lambda_46_50:F1",36,0,0,Llambda_46_50

	.stabs "__tmp138:p1",160,0,0,8

	.cfi_startproc

	pushl	%edx
	pushl	%ebp
	.cfi_def_cfa_offset	12

	.cfi_offset 5, -12

	movl	%esp,	%ebp
	.cfi_def_cfa_register	5

	subl	$LLlambda_46_50_SIZE,	%esp
	movl	%esp,	%edi
	movl	$filler,	%esi
	movl	$LSLlambda_46_50_SIZE,	%ecx
	rep movsl	
# SLABEL ("L394") / 

L394:

# LD (Global ("exp")) / 

	movl	global_exp,	%ebx
# CLOSURE ("Llambda_47_51", [Access (0); Access (1)]) / 

	pushl	%ebx
	pushl	8(%edx)
	pushl	4(%edx)
	pushl	$Llambda_47_51
	pushl	$5
	call	Bclosure
	addl	$16,	%esp
	movl	%eax,	%ecx
	popl	%ebx
	movl	4(%ebp),	%edx
# CALL ("Lseq", 2, true) / 

	pushl	%edx
	pushl	%ecx
	pushl	%ebx
	call	Lseq
	addl	$8,	%esp
	popl	%edx
	movl	%eax,	%ebx
# LABEL ("L396") / 

L396:

# SLABEL ("L395") / 

L395:

# END / 

	movl	%ebx,	%eax
LLlambda_46_50_epilogue:

	movl	%ebp,	%esp
	popl	%ebp
	popl	%edx
	.cfi_restore	5

	.cfi_def_cfa	4, 4

	ret
	.cfi_endproc

	.set	LLlambda_46_50_SIZE,	0

	.set	LSLlambda_46_50_SIZE,	0

	.size Llambda_46_50, .-Llambda_46_50

# LABEL ("Llambda_47_51") / 

Llambda_47_51:

# BEGIN ("Llambda_47_51", 1, 0, [Access (0); Access (1)], ["expression"], [{ blab="L399"; elab="L400"; names=[]; subs=[]; }]) / 

	.type lambda_47_51, @function

	.stabs "lambda_47_51:F1",36,0,0,Llambda_47_51

	.stabs "expression:p1",160,0,0,8

	.cfi_startproc

	pushl	%edx
	pushl	%ebp
	.cfi_def_cfa_offset	12

	.cfi_offset 5, -12

	movl	%esp,	%ebp
	.cfi_def_cfa_register	5

	subl	$LLlambda_47_51_SIZE,	%esp
	movl	%esp,	%edi
	movl	$filler,	%esi
	movl	$LSLlambda_47_51_SIZE,	%ecx
	rep movsl	
# SLABEL ("L399") / 

L399:

# STRING (",") / 

	movl	$string_17,	%ebx
	pushl	%edx
	pushl	%ebx
	call	Bstring
	addl	$4,	%esp
	popl	%edx
	movl	%eax,	%ebx
# CALL ("Ls", 1, false) / 

	pushl	%edx
	pushl	%ebx
	call	Ls
	addl	$4,	%esp
	popl	%edx
	movl	%eax,	%ebx
# CLOSURE ("Llambda_48_52", [Access (0); Arg (0); Access (1)]) / 

	pushl	%ebx
	pushl	8(%edx)
	pushl	12(%ebp)
	pushl	4(%edx)
	pushl	$Llambda_48_52
	pushl	$7
	call	Bclosure
	addl	$20,	%esp
	movl	%eax,	%ecx
	popl	%ebx
	movl	4(%ebp),	%edx
# CALL ("Lseq", 2, true) / 

	pushl	%edx
	pushl	%ecx
	pushl	%ebx
	call	Lseq
	addl	$8,	%esp
	popl	%edx
	movl	%eax,	%ebx
# LABEL ("L401") / 

L401:

# SLABEL ("L400") / 

L400:

# END / 

	movl	%ebx,	%eax
LLlambda_47_51_epilogue:

	movl	%ebp,	%esp
	popl	%ebp
	popl	%edx
	.cfi_restore	5

	.cfi_def_cfa	4, 4

	ret
	.cfi_endproc

	.set	LLlambda_47_51_SIZE,	0

	.set	LSLlambda_47_51_SIZE,	0

	.size Llambda_47_51, .-Llambda_47_51

# LABEL ("Llambda_48_52") / 

Llambda_48_52:

# BEGIN ("Llambda_48_52", 1, 0, [Access (0); Arg (0); Access (1)], ["__tmp137"], [{ blab="L405"; elab="L406"; names=[]; subs=[]; }]) / 

	.type lambda_48_52, @function

	.stabs "lambda_48_52:F1",36,0,0,Llambda_48_52

	.stabs "__tmp137:p1",160,0,0,8

	.cfi_startproc

	pushl	%edx
	pushl	%ebp
	.cfi_def_cfa_offset	12

	.cfi_offset 5, -12

	movl	%esp,	%ebp
	.cfi_def_cfa_register	5

	subl	$LLlambda_48_52_SIZE,	%esp
	movl	%esp,	%edi
	movl	$filler,	%esi
	movl	$LSLlambda_48_52_SIZE,	%ecx
	rep movsl	
# SLABEL ("L405") / 

L405:

# LD (Global ("exp")) / 

	movl	global_exp,	%ebx
# CLOSURE ("Llambda_49_53", [Access (0); Access (1); Access (2)]) / 

	pushl	%ebx
	pushl	12(%edx)
	pushl	8(%edx)
	pushl	4(%edx)
	pushl	$Llambda_49_53
	pushl	$7
	call	Bclosure
	addl	$20,	%esp
	movl	%eax,	%ecx
	popl	%ebx
	movl	4(%ebp),	%edx
# CALL ("Lseq", 2, true) / 

	pushl	%edx
	pushl	%ecx
	pushl	%ebx
	call	Lseq
	addl	$8,	%esp
	popl	%edx
	movl	%eax,	%ebx
# LABEL ("L407") / 

L407:

# SLABEL ("L406") / 

L406:

# END / 

	movl	%ebx,	%eax
LLlambda_48_52_epilogue:

	movl	%ebp,	%esp
	popl	%ebp
	popl	%edx
	.cfi_restore	5

	.cfi_def_cfa	4, 4

	ret
	.cfi_endproc

	.set	LLlambda_48_52_SIZE,	0

	.set	LSLlambda_48_52_SIZE,	0

	.size Llambda_48_52, .-Llambda_48_52

# LABEL ("Llambda_49_53") / 

Llambda_49_53:

# BEGIN ("Llambda_49_53", 1, 0, [Access (0); Access (1); Access (2)], ["s2"], [{ blab="L410"; elab="L411"; names=[]; subs=[]; }]) / 

	.type lambda_49_53, @function

	.stabs "lambda_49_53:F1",36,0,0,Llambda_49_53

	.stabs "s2:p1",160,0,0,8

	.cfi_startproc

	pushl	%edx
	pushl	%ebp
	.cfi_def_cfa_offset	12

	.cfi_offset 5, -12

	movl	%esp,	%ebp
	.cfi_def_cfa_register	5

	subl	$LLlambda_49_53_SIZE,	%esp
	movl	%esp,	%edi
	movl	$filler,	%esi
	movl	$LSLlambda_49_53_SIZE,	%ecx
	rep movsl	
# SLABEL ("L410") / 

L410:

# LD (Global ("exp")) / 

	movl	global_exp,	%ebx
# CLOSURE ("Llambda_50_54", [Access (0); Access (1); Arg (0); Access (2)]) / 

	pushl	%ebx
	pushl	12(%edx)
	pushl	12(%ebp)
	pushl	8(%edx)
	pushl	4(%edx)
	pushl	$Llambda_50_54
	pushl	$9
	call	Bclosure
	addl	$24,	%esp
	movl	%eax,	%ecx
	popl	%ebx
	movl	4(%ebp),	%edx
# CALL ("Lseq", 2, true) / 

	pushl	%edx
	pushl	%ecx
	pushl	%ebx
	call	Lseq
	addl	$8,	%esp
	popl	%edx
	movl	%eax,	%ebx
# LABEL ("L412") / 

L412:

# SLABEL ("L411") / 

L411:

# END / 

	movl	%ebx,	%eax
LLlambda_49_53_epilogue:

	movl	%ebp,	%esp
	popl	%ebp
	popl	%edx
	.cfi_restore	5

	.cfi_def_cfa	4, 4

	ret
	.cfi_endproc

	.set	LLlambda_49_53_SIZE,	0

	.set	LSLlambda_49_53_SIZE,	0

	.size Llambda_49_53, .-Llambda_49_53

# LABEL ("Llambda_50_54") / 

Llambda_50_54:

# BEGIN ("Llambda_50_54", 1, 0, [Access (0); Access (1); Arg (0); Access (2)], ["s3"], [{ blab="L415"; elab="L416"; names=[]; subs=[]; }]) / 

	.type lambda_50_54, @function

	.stabs "lambda_50_54:F1",36,0,0,Llambda_50_54

	.stabs "s3:p1",160,0,0,8

	.cfi_startproc

	pushl	%edx
	pushl	%ebp
	.cfi_def_cfa_offset	12

	.cfi_offset 5, -12

	movl	%esp,	%ebp
	.cfi_def_cfa_register	5

	subl	$LLlambda_50_54_SIZE,	%esp
	movl	%esp,	%edi
	movl	$filler,	%esi
	movl	$LSLlambda_50_54_SIZE,	%ecx
	rep movsl	
# SLABEL ("L415") / 

L415:

# LD (Global ("kOd")) / 

	movl	global_kOd,	%ebx
# CLOSURE ("Llambda_51_55", [Access (0); Access (1); Arg (0); Access (2); Access (3)]) / 

	pushl	%ebx
	pushl	16(%edx)
	pushl	12(%edx)
	pushl	12(%ebp)
	pushl	8(%edx)
	pushl	4(%edx)
	pushl	$Llambda_51_55
	pushl	$11
	call	Bclosure
	addl	$28,	%esp
	movl	%eax,	%ecx
	popl	%ebx
	movl	4(%ebp),	%edx
# CALL ("Li__Infix_64", 2, true) / 

	pushl	%edx
	pushl	%ecx
	pushl	%ebx
	call	Li__Infix_64
	addl	$8,	%esp
	popl	%edx
	movl	%eax,	%ebx
# LABEL ("L417") / 

L417:

# SLABEL ("L416") / 

L416:

# END / 

	movl	%ebx,	%eax
LLlambda_50_54_epilogue:

	movl	%ebp,	%esp
	popl	%ebp
	popl	%edx
	.cfi_restore	5

	.cfi_def_cfa	4, 4

	ret
	.cfi_endproc

	.set	LLlambda_50_54_SIZE,	0

	.set	LSLlambda_50_54_SIZE,	0

	.size Llambda_50_54, .-Llambda_50_54

# LABEL ("Llambda_51_55") / 

Llambda_51_55:

# BEGIN ("Llambda_51_55", 1, 0, [Access (0); Access (1); Arg (0); Access (2); Access (3)], ["__tmp136"], [{ blab="L420"; elab="L421"; names=[]; subs=[{ blab="L423"; elab="L424"; names=[]; subs=[]; }]; }]) / 

	.type lambda_51_55, @function

	.stabs "lambda_51_55:F1",36,0,0,Llambda_51_55

	.stabs "__tmp136:p1",160,0,0,8

	.cfi_startproc

	pushl	%edx
	pushl	%ebp
	.cfi_def_cfa_offset	12

	.cfi_offset 5, -12

	movl	%esp,	%ebp
	.cfi_def_cfa_register	5

	subl	$LLlambda_51_55_SIZE,	%esp
	movl	%esp,	%edi
	movl	$filler,	%esi
	movl	$LSLlambda_51_55_SIZE,	%ecx
	rep movsl	
# SLABEL ("L420") / 

L420:

# SLABEL ("L423") / 

L423:

# LINE (136) / 

	.stabn 68,0,136,0

	.stabn 68,0,136,.L53-Llambda_51_55

.L53:

# CLOSURE ("Llambda_52_57", [Access (0); Access (1); Access (2); Access (3); Access (4)]) / 

	pushl	20(%edx)
	pushl	16(%edx)
	pushl	12(%edx)
	pushl	8(%edx)
	pushl	4(%edx)
	pushl	$Llambda_52_57
	pushl	$11
	call	Bclosure
	addl	$28,	%esp
	movl	%eax,	%ebx
	movl	4(%ebp),	%edx
# SLABEL ("L424") / 

L424:

# LABEL ("L422") / 

L422:

# SLABEL ("L421") / 

L421:

# END / 

	movl	%ebx,	%eax
LLlambda_51_55_epilogue:

	movl	%ebp,	%esp
	popl	%ebp
	popl	%edx
	.cfi_restore	5

	.cfi_def_cfa	4, 4

	ret
	.cfi_endproc

	.set	LLlambda_51_55_SIZE,	0

	.set	LSLlambda_51_55_SIZE,	0

	.size Llambda_51_55, .-Llambda_51_55

# LABEL ("Llambda_52_57") / 

Llambda_52_57:

# BEGIN ("Llambda_52_57", 1, 0, [Access (0); Access (1); Access (2); Access (3); Access (4)], ["arg"], [{ blab="L425"; elab="L426"; names=[]; subs=[{ blab="L428"; elab="L429"; names=[]; subs=[]; }]; }]) / 

	.type lambda_52_57, @function

	.stabs "lambda_52_57:F1",36,0,0,Llambda_52_57

	.stabs "arg:p1",160,0,0,8

	.cfi_startproc

	pushl	%edx
	pushl	%ebp
	.cfi_def_cfa_offset	12

	.cfi_offset 5, -12

	movl	%esp,	%ebp
	.cfi_def_cfa_register	5

	subl	$LLlambda_52_57_SIZE,	%esp
	movl	%esp,	%edi
	movl	$filler,	%esi
	movl	$LSLlambda_52_57_SIZE,	%ecx
	rep movsl	
# SLABEL ("L425") / 

L425:

# SLABEL ("L428") / 

L428:

# LINE (137) / 

	.stabn 68,0,137,0

	.stabn 68,0,137,.L54-Llambda_52_57

.L54:

# LD (Arg (0)) / 

	movl	12(%ebp),	%ebx
# LD (Access (0)) / 

	movl	4(%edx),	%ecx
# SEXP ("Void", 0) / 

	movl	$25289865,	%esi
	pushl	%edx
	pushl	%ebx
	pushl	%ecx
	pushl	%esi
	pushl	$3
	call	Bsexp
	addl	$8,	%esp
	popl	%ecx
	popl	%ebx
	popl	%edx
	movl	%eax,	%esi
# CALLC (1, false) / 

	pushl	%edx
	pushl	%ebx
	pushl	%ecx
	pushl	%esi
	movl	%ecx,	%edx
	call	*(%ecx)
	addl	$4,	%esp
	popl	%ecx
	popl	%ebx
	popl	%edx
	movl	%eax,	%ecx
# LD (Access (1)) / 

	movl	8(%edx),	%esi
# SEXP ("Val", 0) / 

	movl	$393369,	%edi
	pushl	%edx
	pushl	%ebx
	pushl	%ecx
	pushl	%esi
	pushl	%edi
	pushl	$3
	call	Bsexp
	addl	$8,	%esp
	popl	%esi
	popl	%ecx
	popl	%ebx
	popl	%edx
	movl	%eax,	%edi
# CALLC (1, false) / 

	pushl	%edx
	pushl	%ebx
	pushl	%ecx
	pushl	%esi
	pushl	%edi
	movl	%esi,	%edx
	call	*(%esi)
	addl	$4,	%esp
	popl	%esi
	popl	%ecx
	popl	%ebx
	popl	%edx
	movl	%eax,	%esi
# LD (Access (2)) / 

	movl	12(%edx),	%edi
# SEXP ("Void", 0) / 

	movl	$25289865,	-4(%ebp)
	pushl	%edx
	pushl	%ebx
	pushl	%ecx
	pushl	%esi
	pushl	%edi
	pushl	-4(%ebp)
	pushl	$3
	call	Bsexp
	addl	$8,	%esp
	popl	%edi
	popl	%esi
	popl	%ecx
	popl	%ebx
	popl	%edx
	movl	%eax,	-4(%ebp)
# CALLC (1, false) / 

	pushl	%edx
	pushl	%ebx
	pushl	%ecx
	pushl	%esi
	pushl	%edi
	pushl	-4(%ebp)
	movl	%edi,	%edx
	call	*(%edi)
	addl	$4,	%esp
	popl	%edi
	popl	%esi
	popl	%ecx
	popl	%ebx
	popl	%edx
	movl	%eax,	%edi
# LD (Access (3)) / 

	movl	16(%edx),	%eax
	movl	%eax,	-4(%ebp)
# SEXP ("Void", 0) / 

	movl	$25289865,	-8(%ebp)
	pushl	%edx
	pushl	%ebx
	pushl	%ecx
	pushl	%esi
	pushl	%edi
	pushl	-8(%ebp)
	pushl	$3
	call	Bsexp
	addl	$8,	%esp
	popl	%edi
	popl	%esi
	popl	%ecx
	popl	%ebx
	popl	%edx
	movl	%eax,	-8(%ebp)
# CALLC (1, false) / 

	pushl	%edx
	pushl	%ebx
	pushl	%ecx
	pushl	%esi
	pushl	%edi
	pushl	-8(%ebp)
	movl	-4(%ebp),	%edx
	movl	%edx,	%eax
	call	*(%eax)
	addl	$4,	%esp
	popl	%edi
	popl	%esi
	popl	%ecx
	popl	%ebx
	popl	%edx
	movl	%eax,	-4(%ebp)
# SEXP ("Seq", 2) / 

	movl	$369315,	-8(%ebp)
	pushl	%edx
	pushl	%ebx
	pushl	%ecx
	pushl	%esi
	pushl	-8(%ebp)
	pushl	-4(%ebp)
	pushl	%edi
	pushl	$7
	call	Bsexp
	addl	$16,	%esp
	popl	%esi
	popl	%ecx
	popl	%ebx
	popl	%edx
	movl	%eax,	%edi
# SEXP ("While", 2) / 

	movl	$1648436747,	-4(%ebp)
	pushl	%edx
	pushl	%ebx
	pushl	%ecx
	pushl	-4(%ebp)
	pushl	%edi
	pushl	%esi
	pushl	$7
	call	Bsexp
	addl	$16,	%esp
	popl	%ecx
	popl	%ebx
	popl	%edx
	movl	%eax,	%esi
# SEXP ("Seq", 2) / 

	movl	$369315,	%edi
	pushl	%edx
	pushl	%ebx
	pushl	%edi
	pushl	%esi
	pushl	%ecx
	pushl	$7
	call	Bsexp
	addl	$16,	%esp
	popl	%ebx
	popl	%edx
	movl	%eax,	%ecx
# LD (Access (4)) / 

	movl	20(%edx),	%esi
# CALL ("LassertVoid", 3, true) / 

	pushl	%edx
	pushl	%esi
	pushl	%ecx
	pushl	%ebx
	call	LassertVoid
	addl	$12,	%esp
	popl	%edx
	movl	%eax,	%ebx
# SLABEL ("L429") / 

L429:

# LABEL ("L427") / 

L427:

# SLABEL ("L426") / 

L426:

# END / 

	movl	%ebx,	%eax
LLlambda_52_57_epilogue:

	movl	%ebp,	%esp
	popl	%ebp
	popl	%edx
	.cfi_restore	5

	.cfi_def_cfa	4, 4

	ret
	.cfi_endproc

	.set	LLlambda_52_57_SIZE,	8

	.set	LSLlambda_52_57_SIZE,	2

	.size Llambda_52_57, .-Llambda_52_57

# LABEL ("Llambda_36_39") / 

Llambda_36_39:

# BEGIN ("Llambda_36_39", 1, 0, [], ["loc"], [{ blab="L451"; elab="L452"; names=[]; subs=[]; }]) / 

	.type lambda_36_39, @function

	.stabs "lambda_36_39:F1",36,0,0,Llambda_36_39

	.stabs "loc:p1",160,0,0,8

	.cfi_startproc

	pushl	%ebp
	.cfi_def_cfa_offset	8

	.cfi_offset 5, -8

	movl	%esp,	%ebp
	.cfi_def_cfa_register	5

	subl	$LLlambda_36_39_SIZE,	%esp
	movl	%esp,	%edi
	movl	$filler,	%esi
	movl	$LSLlambda_36_39_SIZE,	%ecx
	rep movsl	
# SLABEL ("L451") / 

L451:

# LINE (134) / 

	.stabn 68,0,134,0

	.stabn 68,0,134,.L55-Llambda_36_39

.L55:

# LD (Global ("kIf")) / 

	movl	global_kIf,	%ebx
# CLOSURE ("Llambda_53_60", []) / 

	pushl	%ebx
	pushl	$Llambda_53_60
	pushl	$1
	call	Bclosure
	addl	$8,	%esp
	movl	%eax,	%ecx
	popl	%ebx
# CALL ("Lseq", 2, true) / 

	pushl	%ecx
	pushl	%ebx
	call	Lseq
	addl	$8,	%esp
	movl	%eax,	%ebx
# LABEL ("L453") / 

L453:

# SLABEL ("L452") / 

L452:

# END / 

	movl	%ebx,	%eax
LLlambda_36_39_epilogue:

	movl	%ebp,	%esp
	popl	%ebp
	.cfi_restore	5

	.cfi_def_cfa	4, 4

	ret
	.cfi_endproc

	.set	LLlambda_36_39_SIZE,	0

	.set	LSLlambda_36_39_SIZE,	0

	.size Llambda_36_39, .-Llambda_36_39

# LABEL ("Llambda_53_60") / 

Llambda_53_60:

# BEGIN ("Llambda_53_60", 1, 0, [], ["__tmp97"], [{ blab="L456"; elab="L457"; names=[]; subs=[]; }]) / 

	.type lambda_53_60, @function

	.stabs "lambda_53_60:F1",36,0,0,Llambda_53_60

	.stabs "__tmp97:p1",160,0,0,8

	.cfi_startproc

	pushl	%ebp
	.cfi_def_cfa_offset	8

	.cfi_offset 5, -8

	movl	%esp,	%ebp
	.cfi_def_cfa_register	5

	subl	$LLlambda_53_60_SIZE,	%esp
	movl	%esp,	%edi
	movl	$filler,	%esi
	movl	$LSLlambda_53_60_SIZE,	%ecx
	rep movsl	
# SLABEL ("L456") / 

L456:

# LD (Global ("exp")) / 

	movl	global_exp,	%ebx
# CLOSURE ("Llambda_54_61", []) / 

	pushl	%ebx
	pushl	$Llambda_54_61
	pushl	$1
	call	Bclosure
	addl	$8,	%esp
	movl	%eax,	%ecx
	popl	%ebx
# CALL ("Lseq", 2, true) / 

	pushl	%ecx
	pushl	%ebx
	call	Lseq
	addl	$8,	%esp
	movl	%eax,	%ebx
# LABEL ("L458") / 

L458:

# SLABEL ("L457") / 

L457:

# END / 

	movl	%ebx,	%eax
LLlambda_53_60_epilogue:

	movl	%ebp,	%esp
	popl	%ebp
	.cfi_restore	5

	.cfi_def_cfa	4, 4

	ret
	.cfi_endproc

	.set	LLlambda_53_60_SIZE,	0

	.set	LSLlambda_53_60_SIZE,	0

	.size Llambda_53_60, .-Llambda_53_60

# LABEL ("Llambda_54_61") / 

Llambda_54_61:

# BEGIN ("Llambda_54_61", 1, 0, [], ["expression"], [{ blab="L461"; elab="L462"; names=[]; subs=[]; }]) / 

	.type lambda_54_61, @function

	.stabs "lambda_54_61:F1",36,0,0,Llambda_54_61

	.stabs "expression:p1",160,0,0,8

	.cfi_startproc

	pushl	%ebp
	.cfi_def_cfa_offset	8

	.cfi_offset 5, -8

	movl	%esp,	%ebp
	.cfi_def_cfa_register	5

	subl	$LLlambda_54_61_SIZE,	%esp
	movl	%esp,	%edi
	movl	$filler,	%esi
	movl	$LSLlambda_54_61_SIZE,	%ecx
	rep movsl	
# SLABEL ("L461") / 

L461:

# LD (Global ("kThen")) / 

	movl	global_kThen,	%ebx
# CLOSURE ("Llambda_55_62", [Arg (0)]) / 

	pushl	%ebx
	pushl	8(%ebp)
	pushl	$Llambda_55_62
	pushl	$3
	call	Bclosure
	addl	$12,	%esp
	movl	%eax,	%ecx
	popl	%ebx
# CALL ("Lseq", 2, true) / 

	pushl	%ecx
	pushl	%ebx
	call	Lseq
	addl	$8,	%esp
	movl	%eax,	%ebx
# LABEL ("L463") / 

L463:

# SLABEL ("L462") / 

L462:

# END / 

	movl	%ebx,	%eax
LLlambda_54_61_epilogue:

	movl	%ebp,	%esp
	popl	%ebp
	.cfi_restore	5

	.cfi_def_cfa	4, 4

	ret
	.cfi_endproc

	.set	LLlambda_54_61_SIZE,	0

	.set	LSLlambda_54_61_SIZE,	0

	.size Llambda_54_61, .-Llambda_54_61

# LABEL ("Llambda_55_62") / 

Llambda_55_62:

# BEGIN ("Llambda_55_62", 1, 0, [Arg (0)], ["__tmp96"], [{ blab="L466"; elab="L467"; names=[]; subs=[]; }]) / 

	.type lambda_55_62, @function

	.stabs "lambda_55_62:F1",36,0,0,Llambda_55_62

	.stabs "__tmp96:p1",160,0,0,8

	.cfi_startproc

	pushl	%edx
	pushl	%ebp
	.cfi_def_cfa_offset	12

	.cfi_offset 5, -12

	movl	%esp,	%ebp
	.cfi_def_cfa_register	5

	subl	$LLlambda_55_62_SIZE,	%esp
	movl	%esp,	%edi
	movl	$filler,	%esi
	movl	$LSLlambda_55_62_SIZE,	%ecx
	rep movsl	
# SLABEL ("L466") / 

L466:

# LD (Global ("exp")) / 

	movl	global_exp,	%ebx
# CLOSURE ("Llambda_56_63", [Access (0)]) / 

	pushl	%ebx
	pushl	4(%edx)
	pushl	$Llambda_56_63
	pushl	$3
	call	Bclosure
	addl	$12,	%esp
	movl	%eax,	%ecx
	popl	%ebx
	movl	4(%ebp),	%edx
# CALL ("Lseq", 2, true) / 

	pushl	%edx
	pushl	%ecx
	pushl	%ebx
	call	Lseq
	addl	$8,	%esp
	popl	%edx
	movl	%eax,	%ebx
# LABEL ("L468") / 

L468:

# SLABEL ("L467") / 

L467:

# END / 

	movl	%ebx,	%eax
LLlambda_55_62_epilogue:

	movl	%ebp,	%esp
	popl	%ebp
	popl	%edx
	.cfi_restore	5

	.cfi_def_cfa	4, 4

	ret
	.cfi_endproc

	.set	LLlambda_55_62_SIZE,	0

	.set	LSLlambda_55_62_SIZE,	0

	.size Llambda_55_62, .-Llambda_55_62

# LABEL ("Llambda_56_63") / 

Llambda_56_63:

# BEGIN ("Llambda_56_63", 1, 0, [Access (0)], ["s1"], [{ blab="L471"; elab="L472"; names=[]; subs=[]; }]) / 

	.type lambda_56_63, @function

	.stabs "lambda_56_63:F1",36,0,0,Llambda_56_63

	.stabs "s1:p1",160,0,0,8

	.cfi_startproc

	pushl	%edx
	pushl	%ebp
	.cfi_def_cfa_offset	12

	.cfi_offset 5, -12

	movl	%esp,	%ebp
	.cfi_def_cfa_register	5

	subl	$LLlambda_56_63_SIZE,	%esp
	movl	%esp,	%edi
	movl	$filler,	%esi
	movl	$LSLlambda_56_63_SIZE,	%ecx
	rep movsl	
# SLABEL ("L471") / 

L471:

# LD (Global ("else_exp")) / 

	movl	global_else_exp,	%ebx
# CLOSURE ("Llambda_57_64", [Access (0); Arg (0)]) / 

	pushl	%ebx
	pushl	12(%ebp)
	pushl	4(%edx)
	pushl	$Llambda_57_64
	pushl	$5
	call	Bclosure
	addl	$16,	%esp
	movl	%eax,	%ecx
	popl	%ebx
	movl	4(%ebp),	%edx
# CALL ("Li__Infix_64", 2, true) / 

	pushl	%edx
	pushl	%ecx
	pushl	%ebx
	call	Li__Infix_64
	addl	$8,	%esp
	popl	%edx
	movl	%eax,	%ebx
# LABEL ("L473") / 

L473:

# SLABEL ("L472") / 

L472:

# END / 

	movl	%ebx,	%eax
LLlambda_56_63_epilogue:

	movl	%ebp,	%esp
	popl	%ebp
	popl	%edx
	.cfi_restore	5

	.cfi_def_cfa	4, 4

	ret
	.cfi_endproc

	.set	LLlambda_56_63_SIZE,	0

	.set	LSLlambda_56_63_SIZE,	0

	.size Llambda_56_63, .-Llambda_56_63

# LABEL ("Llambda_57_64") / 

Llambda_57_64:

# BEGIN ("Llambda_57_64", 1, 0, [Access (0); Arg (0)], ["s2"], [{ blab="L476"; elab="L477"; names=[]; subs=[{ blab="L479"; elab="L480"; names=[]; subs=[]; }]; }]) / 

	.type lambda_57_64, @function

	.stabs "lambda_57_64:F1",36,0,0,Llambda_57_64

	.stabs "s2:p1",160,0,0,8

	.cfi_startproc

	pushl	%edx
	pushl	%ebp
	.cfi_def_cfa_offset	12

	.cfi_offset 5, -12

	movl	%esp,	%ebp
	.cfi_def_cfa_register	5

	subl	$LLlambda_57_64_SIZE,	%esp
	movl	%esp,	%edi
	movl	$filler,	%esi
	movl	$LSLlambda_57_64_SIZE,	%ecx
	rep movsl	
# SLABEL ("L476") / 

L476:

# SLABEL ("L479") / 

L479:

# CLOSURE ("Llambda_58_66", [Access (0); Access (1); Arg (0)]) / 

	pushl	12(%ebp)
	pushl	8(%edx)
	pushl	4(%edx)
	pushl	$Llambda_58_66
	pushl	$7
	call	Bclosure
	addl	$20,	%esp
	movl	%eax,	%ebx
	movl	4(%ebp),	%edx
# SLABEL ("L480") / 

L480:

# LABEL ("L478") / 

L478:

# SLABEL ("L477") / 

L477:

# END / 

	movl	%ebx,	%eax
LLlambda_57_64_epilogue:

	movl	%ebp,	%esp
	popl	%ebp
	popl	%edx
	.cfi_restore	5

	.cfi_def_cfa	4, 4

	ret
	.cfi_endproc

	.set	LLlambda_57_64_SIZE,	0

	.set	LSLlambda_57_64_SIZE,	0

	.size Llambda_57_64, .-Llambda_57_64

# LABEL ("Llambda_58_66") / 

Llambda_58_66:

# BEGIN ("Llambda_58_66", 1, 0, [Access (0); Access (1); Arg (0)], ["arg"], [{ blab="L481"; elab="L482"; names=[]; subs=[{ blab="L484"; elab="L485"; names=[]; subs=[]; }]; }]) / 

	.type lambda_58_66, @function

	.stabs "lambda_58_66:F1",36,0,0,Llambda_58_66

	.stabs "arg:p1",160,0,0,8

	.cfi_startproc

	pushl	%edx
	pushl	%ebp
	.cfi_def_cfa_offset	12

	.cfi_offset 5, -12

	movl	%esp,	%ebp
	.cfi_def_cfa_register	5

	subl	$LLlambda_58_66_SIZE,	%esp
	movl	%esp,	%edi
	movl	$filler,	%esi
	movl	$LSLlambda_58_66_SIZE,	%ecx
	rep movsl	
# SLABEL ("L481") / 

L481:

# SLABEL ("L484") / 

L484:

# LD (Access (0)) / 

	movl	4(%edx),	%ebx
# SEXP ("Val", 0) / 

	movl	$393369,	%ecx
	pushl	%edx
	pushl	%ebx
	pushl	%ecx
	pushl	$3
	call	Bsexp
	addl	$8,	%esp
	popl	%ebx
	popl	%edx
	movl	%eax,	%ecx
# CALLC (1, false) / 

	pushl	%edx
	pushl	%ebx
	pushl	%ecx
	movl	%ebx,	%edx
	call	*(%ebx)
	addl	$4,	%esp
	popl	%ebx
	popl	%edx
	movl	%eax,	%ebx
# LD (Access (1)) / 

	movl	8(%edx),	%ecx
# LD (Arg (0)) / 

	movl	12(%ebp),	%esi
# CALLC (1, false) / 

	pushl	%edx
	pushl	%ebx
	pushl	%ecx
	pushl	%esi
	movl	%ecx,	%edx
	call	*(%ecx)
	addl	$4,	%esp
	popl	%ecx
	popl	%ebx
	popl	%edx
	movl	%eax,	%ecx
# LD (Access (2)) / 

	movl	12(%edx),	%esi
# LD (Arg (0)) / 

	movl	12(%ebp),	%edi
# CALLC (1, false) / 

	pushl	%edx
	pushl	%ebx
	pushl	%ecx
	pushl	%esi
	pushl	%edi
	movl	%esi,	%edx
	call	*(%esi)
	addl	$4,	%esp
	popl	%esi
	popl	%ecx
	popl	%ebx
	popl	%edx
	movl	%eax,	%esi
# SEXP ("If", 3) / 

	movl	$4493,	%edi
	pushl	%edx
	pushl	%edi
	pushl	%esi
	pushl	%ecx
	pushl	%ebx
	pushl	$9
	call	Bsexp
	addl	$20,	%esp
	popl	%edx
	movl	%eax,	%ebx
# SLABEL ("L485") / 

L485:

# LABEL ("L483") / 

L483:

# SLABEL ("L482") / 

L482:

# END / 

	movl	%ebx,	%eax
LLlambda_58_66_epilogue:

	movl	%ebp,	%esp
	popl	%ebp
	popl	%edx
	.cfi_restore	5

	.cfi_def_cfa	4, 4

	ret
	.cfi_endproc

	.set	LLlambda_58_66_SIZE,	0

	.set	LSLlambda_58_66_SIZE,	0

	.size Llambda_58_66, .-Llambda_58_66

# LABEL ("Llambda_35_39") / 

Llambda_35_39:

# BEGIN ("Llambda_35_39", 1, 0, [], ["loc"], [{ blab="L496"; elab="L497"; names=[]; subs=[]; }]) / 

	.type lambda_35_39, @function

	.stabs "lambda_35_39:F1",36,0,0,Llambda_35_39

	.stabs "loc:p1",160,0,0,8

	.cfi_startproc

	pushl	%ebp
	.cfi_def_cfa_offset	8

	.cfi_offset 5, -8

	movl	%esp,	%ebp
	.cfi_def_cfa_register	5

	subl	$LLlambda_35_39_SIZE,	%esp
	movl	%esp,	%edi
	movl	$filler,	%esi
	movl	$LSLlambda_35_39_SIZE,	%ecx
	rep movsl	
# SLABEL ("L496") / 

L496:

# LINE (133) / 

	.stabn 68,0,133,0

	.stabn 68,0,133,.L56-Llambda_35_39

.L56:

# LD (Global ("kWhile")) / 

	movl	global_kWhile,	%ebx
# CLOSURE ("Llambda_59_69", [Arg (0)]) / 

	pushl	%ebx
	pushl	8(%ebp)
	pushl	$Llambda_59_69
	pushl	$3
	call	Bclosure
	addl	$12,	%esp
	movl	%eax,	%ecx
	popl	%ebx
# CALL ("Lseq", 2, true) / 

	pushl	%ecx
	pushl	%ebx
	call	Lseq
	addl	$8,	%esp
	movl	%eax,	%ebx
# LABEL ("L498") / 

L498:

# SLABEL ("L497") / 

L497:

# END / 

	movl	%ebx,	%eax
LLlambda_35_39_epilogue:

	movl	%ebp,	%esp
	popl	%ebp
	.cfi_restore	5

	.cfi_def_cfa	4, 4

	ret
	.cfi_endproc

	.set	LLlambda_35_39_SIZE,	0

	.set	LSLlambda_35_39_SIZE,	0

	.size Llambda_35_39, .-Llambda_35_39

# LABEL ("Llambda_59_69") / 

Llambda_59_69:

# BEGIN ("Llambda_59_69", 1, 0, [Arg (0)], ["__tmp78"], [{ blab="L501"; elab="L502"; names=[]; subs=[]; }]) / 

	.type lambda_59_69, @function

	.stabs "lambda_59_69:F1",36,0,0,Llambda_59_69

	.stabs "__tmp78:p1",160,0,0,8

	.cfi_startproc

	pushl	%edx
	pushl	%ebp
	.cfi_def_cfa_offset	12

	.cfi_offset 5, -12

	movl	%esp,	%ebp
	.cfi_def_cfa_register	5

	subl	$LLlambda_59_69_SIZE,	%esp
	movl	%esp,	%edi
	movl	$filler,	%esi
	movl	$LSLlambda_59_69_SIZE,	%ecx
	rep movsl	
# SLABEL ("L501") / 

L501:

# LD (Global ("exp")) / 

	movl	global_exp,	%ebx
# CLOSURE ("Llambda_60_70", [Access (0)]) / 

	pushl	%ebx
	pushl	4(%edx)
	pushl	$Llambda_60_70
	pushl	$3
	call	Bclosure
	addl	$12,	%esp
	movl	%eax,	%ecx
	popl	%ebx
	movl	4(%ebp),	%edx
# CALL ("Lseq", 2, true) / 

	pushl	%edx
	pushl	%ecx
	pushl	%ebx
	call	Lseq
	addl	$8,	%esp
	popl	%edx
	movl	%eax,	%ebx
# LABEL ("L503") / 

L503:

# SLABEL ("L502") / 

L502:

# END / 

	movl	%ebx,	%eax
LLlambda_59_69_epilogue:

	movl	%ebp,	%esp
	popl	%ebp
	popl	%edx
	.cfi_restore	5

	.cfi_def_cfa	4, 4

	ret
	.cfi_endproc

	.set	LLlambda_59_69_SIZE,	0

	.set	LSLlambda_59_69_SIZE,	0

	.size Llambda_59_69, .-Llambda_59_69

# LABEL ("Llambda_60_70") / 

Llambda_60_70:

# BEGIN ("Llambda_60_70", 1, 0, [Access (0)], ["condition"], [{ blab="L506"; elab="L507"; names=[]; subs=[]; }]) / 

	.type lambda_60_70, @function

	.stabs "lambda_60_70:F1",36,0,0,Llambda_60_70

	.stabs "condition:p1",160,0,0,8

	.cfi_startproc

	pushl	%edx
	pushl	%ebp
	.cfi_def_cfa_offset	12

	.cfi_offset 5, -12

	movl	%esp,	%ebp
	.cfi_def_cfa_register	5

	subl	$LLlambda_60_70_SIZE,	%esp
	movl	%esp,	%edi
	movl	$filler,	%esi
	movl	$LSLlambda_60_70_SIZE,	%ecx
	rep movsl	
# SLABEL ("L506") / 

L506:

# LD (Global ("kDo")) / 

	movl	global_kDo,	%ebx
# CLOSURE ("Llambda_61_71", [Arg (0); Access (0)]) / 

	pushl	%ebx
	pushl	4(%edx)
	pushl	12(%ebp)
	pushl	$Llambda_61_71
	pushl	$5
	call	Bclosure
	addl	$16,	%esp
	movl	%eax,	%ecx
	popl	%ebx
	movl	4(%ebp),	%edx
# CALL ("Lseq", 2, true) / 

	pushl	%edx
	pushl	%ecx
	pushl	%ebx
	call	Lseq
	addl	$8,	%esp
	popl	%edx
	movl	%eax,	%ebx
# LABEL ("L508") / 

L508:

# SLABEL ("L507") / 

L507:

# END / 

	movl	%ebx,	%eax
LLlambda_60_70_epilogue:

	movl	%ebp,	%esp
	popl	%ebp
	popl	%edx
	.cfi_restore	5

	.cfi_def_cfa	4, 4

	ret
	.cfi_endproc

	.set	LLlambda_60_70_SIZE,	0

	.set	LSLlambda_60_70_SIZE,	0

	.size Llambda_60_70, .-Llambda_60_70

# LABEL ("Llambda_61_71") / 

Llambda_61_71:

# BEGIN ("Llambda_61_71", 1, 0, [Arg (0); Access (0)], ["__tmp77"], [{ blab="L511"; elab="L512"; names=[]; subs=[]; }]) / 

	.type lambda_61_71, @function

	.stabs "lambda_61_71:F1",36,0,0,Llambda_61_71

	.stabs "__tmp77:p1",160,0,0,8

	.cfi_startproc

	pushl	%edx
	pushl	%ebp
	.cfi_def_cfa_offset	12

	.cfi_offset 5, -12

	movl	%esp,	%ebp
	.cfi_def_cfa_register	5

	subl	$LLlambda_61_71_SIZE,	%esp
	movl	%esp,	%edi
	movl	$filler,	%esi
	movl	$LSLlambda_61_71_SIZE,	%ecx
	rep movsl	
# SLABEL ("L511") / 

L511:

# LD (Global ("exp")) / 

	movl	global_exp,	%ebx
# CLOSURE ("Llambda_62_72", [Access (0); Access (1)]) / 

	pushl	%ebx
	pushl	8(%edx)
	pushl	4(%edx)
	pushl	$Llambda_62_72
	pushl	$5
	call	Bclosure
	addl	$16,	%esp
	movl	%eax,	%ecx
	popl	%ebx
	movl	4(%ebp),	%edx
# CALL ("Lseq", 2, true) / 

	pushl	%edx
	pushl	%ecx
	pushl	%ebx
	call	Lseq
	addl	$8,	%esp
	popl	%edx
	movl	%eax,	%ebx
# LABEL ("L513") / 

L513:

# SLABEL ("L512") / 

L512:

# END / 

	movl	%ebx,	%eax
LLlambda_61_71_epilogue:

	movl	%ebp,	%esp
	popl	%ebp
	popl	%edx
	.cfi_restore	5

	.cfi_def_cfa	4, 4

	ret
	.cfi_endproc

	.set	LLlambda_61_71_SIZE,	0

	.set	LSLlambda_61_71_SIZE,	0

	.size Llambda_61_71, .-Llambda_61_71

# LABEL ("Llambda_62_72") / 

Llambda_62_72:

# BEGIN ("Llambda_62_72", 1, 0, [Access (0); Access (1)], ["s1"], [{ blab="L516"; elab="L517"; names=[]; subs=[]; }]) / 

	.type lambda_62_72, @function

	.stabs "lambda_62_72:F1",36,0,0,Llambda_62_72

	.stabs "s1:p1",160,0,0,8

	.cfi_startproc

	pushl	%edx
	pushl	%ebp
	.cfi_def_cfa_offset	12

	.cfi_offset 5, -12

	movl	%esp,	%ebp
	.cfi_def_cfa_register	5

	subl	$LLlambda_62_72_SIZE,	%esp
	movl	%esp,	%edi
	movl	$filler,	%esi
	movl	$LSLlambda_62_72_SIZE,	%ecx
	rep movsl	
# SLABEL ("L516") / 

L516:

# LD (Global ("kOd")) / 

	movl	global_kOd,	%ebx
# CLOSURE ("Llambda_63_73", [Access (0); Arg (0); Access (1)]) / 

	pushl	%ebx
	pushl	8(%edx)
	pushl	12(%ebp)
	pushl	4(%edx)
	pushl	$Llambda_63_73
	pushl	$7
	call	Bclosure
	addl	$20,	%esp
	movl	%eax,	%ecx
	popl	%ebx
	movl	4(%ebp),	%edx
# CALL ("Li__Infix_64", 2, true) / 

	pushl	%edx
	pushl	%ecx
	pushl	%ebx
	call	Li__Infix_64
	addl	$8,	%esp
	popl	%edx
	movl	%eax,	%ebx
# LABEL ("L518") / 

L518:

# SLABEL ("L517") / 

L517:

# END / 

	movl	%ebx,	%eax
LLlambda_62_72_epilogue:

	movl	%ebp,	%esp
	popl	%ebp
	popl	%edx
	.cfi_restore	5

	.cfi_def_cfa	4, 4

	ret
	.cfi_endproc

	.set	LLlambda_62_72_SIZE,	0

	.set	LSLlambda_62_72_SIZE,	0

	.size Llambda_62_72, .-Llambda_62_72

# LABEL ("Llambda_63_73") / 

Llambda_63_73:

# BEGIN ("Llambda_63_73", 1, 0, [Access (0); Arg (0); Access (1)], ["__tmp76"], [{ blab="L521"; elab="L522"; names=[]; subs=[{ blab="L524"; elab="L525"; names=[]; subs=[]; }]; }]) / 

	.type lambda_63_73, @function

	.stabs "lambda_63_73:F1",36,0,0,Llambda_63_73

	.stabs "__tmp76:p1",160,0,0,8

	.cfi_startproc

	pushl	%edx
	pushl	%ebp
	.cfi_def_cfa_offset	12

	.cfi_offset 5, -12

	movl	%esp,	%ebp
	.cfi_def_cfa_register	5

	subl	$LLlambda_63_73_SIZE,	%esp
	movl	%esp,	%edi
	movl	$filler,	%esi
	movl	$LSLlambda_63_73_SIZE,	%ecx
	rep movsl	
# SLABEL ("L521") / 

L521:

# SLABEL ("L524") / 

L524:

# CLOSURE ("Llambda_64_75", [Access (0); Access (1); Access (2)]) / 

	pushl	12(%edx)
	pushl	8(%edx)
	pushl	4(%edx)
	pushl	$Llambda_64_75
	pushl	$7
	call	Bclosure
	addl	$20,	%esp
	movl	%eax,	%ebx
	movl	4(%ebp),	%edx
# SLABEL ("L525") / 

L525:

# LABEL ("L523") / 

L523:

# SLABEL ("L522") / 

L522:

# END / 

	movl	%ebx,	%eax
LLlambda_63_73_epilogue:

	movl	%ebp,	%esp
	popl	%ebp
	popl	%edx
	.cfi_restore	5

	.cfi_def_cfa	4, 4

	ret
	.cfi_endproc

	.set	LLlambda_63_73_SIZE,	0

	.set	LSLlambda_63_73_SIZE,	0

	.size Llambda_63_73, .-Llambda_63_73

# LABEL ("Llambda_64_75") / 

Llambda_64_75:

# BEGIN ("Llambda_64_75", 1, 0, [Access (0); Access (1); Access (2)], ["arg"], [{ blab="L526"; elab="L527"; names=[]; subs=[{ blab="L529"; elab="L530"; names=[]; subs=[]; }]; }]) / 

	.type lambda_64_75, @function

	.stabs "lambda_64_75:F1",36,0,0,Llambda_64_75

	.stabs "arg:p1",160,0,0,8

	.cfi_startproc

	pushl	%edx
	pushl	%ebp
	.cfi_def_cfa_offset	12

	.cfi_offset 5, -12

	movl	%esp,	%ebp
	.cfi_def_cfa_register	5

	subl	$LLlambda_64_75_SIZE,	%esp
	movl	%esp,	%edi
	movl	$filler,	%esi
	movl	$LSLlambda_64_75_SIZE,	%ecx
	rep movsl	
# SLABEL ("L526") / 

L526:

# SLABEL ("L529") / 

L529:

# LD (Arg (0)) / 

	movl	12(%ebp),	%ebx
# LD (Access (0)) / 

	movl	4(%edx),	%ecx
# SEXP ("Val", 0) / 

	movl	$393369,	%esi
	pushl	%edx
	pushl	%ebx
	pushl	%ecx
	pushl	%esi
	pushl	$3
	call	Bsexp
	addl	$8,	%esp
	popl	%ecx
	popl	%ebx
	popl	%edx
	movl	%eax,	%esi
# CALLC (1, false) / 

	pushl	%edx
	pushl	%ebx
	pushl	%ecx
	pushl	%esi
	movl	%ecx,	%edx
	call	*(%ecx)
	addl	$4,	%esp
	popl	%ecx
	popl	%ebx
	popl	%edx
	movl	%eax,	%ecx
# LD (Access (1)) / 

	movl	8(%edx),	%esi
# SEXP ("Void", 0) / 

	movl	$25289865,	%edi
	pushl	%edx
	pushl	%ebx
	pushl	%ecx
	pushl	%esi
	pushl	%edi
	pushl	$3
	call	Bsexp
	addl	$8,	%esp
	popl	%esi
	popl	%ecx
	popl	%ebx
	popl	%edx
	movl	%eax,	%edi
# CALLC (1, false) / 

	pushl	%edx
	pushl	%ebx
	pushl	%ecx
	pushl	%esi
	pushl	%edi
	movl	%esi,	%edx
	call	*(%esi)
	addl	$4,	%esp
	popl	%esi
	popl	%ecx
	popl	%ebx
	popl	%edx
	movl	%eax,	%esi
# SEXP ("While", 2) / 

	movl	$1648436747,	%edi
	pushl	%edx
	pushl	%ebx
	pushl	%edi
	pushl	%esi
	pushl	%ecx
	pushl	$7
	call	Bsexp
	addl	$16,	%esp
	popl	%ebx
	popl	%edx
	movl	%eax,	%ecx
# LD (Access (2)) / 

	movl	12(%edx),	%esi
# CALL ("LassertVoid", 3, true) / 

	pushl	%edx
	pushl	%esi
	pushl	%ecx
	pushl	%ebx
	call	LassertVoid
	addl	$12,	%esp
	popl	%edx
	movl	%eax,	%ebx
# SLABEL ("L530") / 

L530:

# LABEL ("L528") / 

L528:

# SLABEL ("L527") / 

L527:

# END / 

	movl	%ebx,	%eax
LLlambda_64_75_epilogue:

	movl	%ebp,	%esp
	popl	%ebp
	popl	%edx
	.cfi_restore	5

	.cfi_def_cfa	4, 4

	ret
	.cfi_endproc

	.set	LLlambda_64_75_SIZE,	0

	.set	LSLlambda_64_75_SIZE,	0

	.size Llambda_64_75, .-Llambda_64_75

# LABEL ("Llambda_34_39") / 

Llambda_34_39:

# BEGIN ("Llambda_34_39", 1, 0, [], ["loc"], [{ blab="L542"; elab="L543"; names=[]; subs=[]; }]) / 

	.type lambda_34_39, @function

	.stabs "lambda_34_39:F1",36,0,0,Llambda_34_39

	.stabs "loc:p1",160,0,0,8

	.cfi_startproc

	pushl	%ebp
	.cfi_def_cfa_offset	8

	.cfi_offset 5, -8

	movl	%esp,	%ebp
	.cfi_def_cfa_register	5

	subl	$LLlambda_34_39_SIZE,	%esp
	movl	%esp,	%edi
	movl	$filler,	%esi
	movl	$LSLlambda_34_39_SIZE,	%ecx
	rep movsl	
# SLABEL ("L542") / 

L542:

# LINE (132) / 

	.stabn 68,0,132,0

	.stabn 68,0,132,.L57-Llambda_34_39

.L57:

# LD (Global ("kRead")) / 

	movl	global_kRead,	%ebx
# CLOSURE ("Llambda_65_78", [Arg (0)]) / 

	pushl	%ebx
	pushl	8(%ebp)
	pushl	$Llambda_65_78
	pushl	$3
	call	Bclosure
	addl	$12,	%esp
	movl	%eax,	%ecx
	popl	%ebx
# CALL ("Lseq", 2, true) / 

	pushl	%ecx
	pushl	%ebx
	call	Lseq
	addl	$8,	%esp
	movl	%eax,	%ebx
# LABEL ("L544") / 

L544:

# SLABEL ("L543") / 

L543:

# END / 

	movl	%ebx,	%eax
LLlambda_34_39_epilogue:

	movl	%ebp,	%esp
	popl	%ebp
	.cfi_restore	5

	.cfi_def_cfa	4, 4

	ret
	.cfi_endproc

	.set	LLlambda_34_39_SIZE,	0

	.set	LSLlambda_34_39_SIZE,	0

	.size Llambda_34_39, .-Llambda_34_39

# LABEL ("Llambda_65_78") / 

Llambda_65_78:

# BEGIN ("Llambda_65_78", 1, 0, [Arg (0)], ["__tmp60"], [{ blab="L547"; elab="L548"; names=[]; subs=[]; }]) / 

	.type lambda_65_78, @function

	.stabs "lambda_65_78:F1",36,0,0,Llambda_65_78

	.stabs "__tmp60:p1",160,0,0,8

	.cfi_startproc

	pushl	%edx
	pushl	%ebp
	.cfi_def_cfa_offset	12

	.cfi_offset 5, -12

	movl	%esp,	%ebp
	.cfi_def_cfa_register	5

	subl	$LLlambda_65_78_SIZE,	%esp
	movl	%esp,	%edi
	movl	$filler,	%esi
	movl	$LSLlambda_65_78_SIZE,	%ecx
	rep movsl	
# SLABEL ("L547") / 

L547:

# STRING ("(") / 

	movl	$string_15,	%ebx
	pushl	%edx
	pushl	%ebx
	call	Bstring
	addl	$4,	%esp
	popl	%edx
	movl	%eax,	%ebx
# CALL ("Ls", 1, false) / 

	pushl	%edx
	pushl	%ebx
	call	Ls
	addl	$4,	%esp
	popl	%edx
	movl	%eax,	%ebx
# LD (Global ("lident")) / 

	movl	global_lident,	%ecx
# STRING (")") / 

	movl	$string_16,	%esi
	pushl	%edx
	pushl	%ebx
	pushl	%ecx
	pushl	%esi
	call	Bstring
	addl	$4,	%esp
	popl	%ecx
	popl	%ebx
	popl	%edx
	movl	%eax,	%esi
# CALL ("Ls", 1, false) / 

	pushl	%edx
	pushl	%ebx
	pushl	%ecx
	pushl	%esi
	call	Ls
	addl	$4,	%esp
	popl	%ecx
	popl	%ebx
	popl	%edx
	movl	%eax,	%esi
# CALL ("Linbr", 3, false) / 

	pushl	%edx
	pushl	%esi
	pushl	%ecx
	pushl	%ebx
	call	Linbr
	addl	$12,	%esp
	popl	%edx
	movl	%eax,	%ebx
# CLOSURE ("Llambda_66_79", [Access (0)]) / 

	pushl	%ebx
	pushl	4(%edx)
	pushl	$Llambda_66_79
	pushl	$3
	call	Bclosure
	addl	$12,	%esp
	movl	%eax,	%ecx
	popl	%ebx
	movl	4(%ebp),	%edx
# CALL ("Li__Infix_64", 2, true) / 

	pushl	%edx
	pushl	%ecx
	pushl	%ebx
	call	Li__Infix_64
	addl	$8,	%esp
	popl	%edx
	movl	%eax,	%ebx
# LABEL ("L549") / 

L549:

# SLABEL ("L548") / 

L548:

# END / 

	movl	%ebx,	%eax
LLlambda_65_78_epilogue:

	movl	%ebp,	%esp
	popl	%ebp
	popl	%edx
	.cfi_restore	5

	.cfi_def_cfa	4, 4

	ret
	.cfi_endproc

	.set	LLlambda_65_78_SIZE,	0

	.set	LSLlambda_65_78_SIZE,	0

	.size Llambda_65_78, .-Llambda_65_78

# LABEL ("Llambda_66_79") / 

Llambda_66_79:

# BEGIN ("Llambda_66_79", 1, 0, [Access (0)], ["x"], [{ blab="L557"; elab="L558"; names=[]; subs=[{ blab="L560"; elab="L561"; names=[]; subs=[]; }]; }]) / 

	.type lambda_66_79, @function

	.stabs "lambda_66_79:F1",36,0,0,Llambda_66_79

	.stabs "x:p1",160,0,0,8

	.cfi_startproc

	pushl	%edx
	pushl	%ebp
	.cfi_def_cfa_offset	12

	.cfi_offset 5, -12

	movl	%esp,	%ebp
	.cfi_def_cfa_register	5

	subl	$LLlambda_66_79_SIZE,	%esp
	movl	%esp,	%edi
	movl	$filler,	%esi
	movl	$LSLlambda_66_79_SIZE,	%ecx
	rep movsl	
# SLABEL ("L557") / 

L557:

# SLABEL ("L560") / 

L560:

# CLOSURE ("Llambda_67_81", [Arg (0); Access (0)]) / 

	pushl	4(%edx)
	pushl	12(%ebp)
	pushl	$Llambda_67_81
	pushl	$5
	call	Bclosure
	addl	$16,	%esp
	movl	%eax,	%ebx
	movl	4(%ebp),	%edx
# SLABEL ("L561") / 

L561:

# LABEL ("L559") / 

L559:

# SLABEL ("L558") / 

L558:

# END / 

	movl	%ebx,	%eax
LLlambda_66_79_epilogue:

	movl	%ebp,	%esp
	popl	%ebp
	popl	%edx
	.cfi_restore	5

	.cfi_def_cfa	4, 4

	ret
	.cfi_endproc

	.set	LLlambda_66_79_SIZE,	0

	.set	LSLlambda_66_79_SIZE,	0

	.size Llambda_66_79, .-Llambda_66_79

# LABEL ("Llambda_67_81") / 

Llambda_67_81:

# BEGIN ("Llambda_67_81", 1, 0, [Arg (0); Access (0)], ["arg"], [{ blab="L562"; elab="L563"; names=[]; subs=[{ blab="L565"; elab="L566"; names=[]; subs=[]; }]; }]) / 

	.type lambda_67_81, @function

	.stabs "lambda_67_81:F1",36,0,0,Llambda_67_81

	.stabs "arg:p1",160,0,0,8

	.cfi_startproc

	pushl	%edx
	pushl	%ebp
	.cfi_def_cfa_offset	12

	.cfi_offset 5, -12

	movl	%esp,	%ebp
	.cfi_def_cfa_register	5

	subl	$LLlambda_67_81_SIZE,	%esp
	movl	%esp,	%edi
	movl	$filler,	%esi
	movl	$LSLlambda_67_81_SIZE,	%ecx
	rep movsl	
# SLABEL ("L562") / 

L562:

# SLABEL ("L565") / 

L565:

# LD (Arg (0)) / 

	movl	12(%ebp),	%ebx
# LD (Access (0)) / 

	movl	4(%edx),	%ecx
# SEXP ("Read", 1) / 

	movl	$23109769,	%esi
	pushl	%edx
	pushl	%ebx
	pushl	%esi
	pushl	%ecx
	pushl	$5
	call	Bsexp
	addl	$12,	%esp
	popl	%ebx
	popl	%edx
	movl	%eax,	%ecx
# LD (Access (1)) / 

	movl	8(%edx),	%esi
# CALL ("LassertVoid", 3, true) / 

	pushl	%edx
	pushl	%esi
	pushl	%ecx
	pushl	%ebx
	call	LassertVoid
	addl	$12,	%esp
	popl	%edx
	movl	%eax,	%ebx
# SLABEL ("L566") / 

L566:

# LABEL ("L564") / 

L564:

# SLABEL ("L563") / 

L563:

# END / 

	movl	%ebx,	%eax
LLlambda_67_81_epilogue:

	movl	%ebp,	%esp
	popl	%ebp
	popl	%edx
	.cfi_restore	5

	.cfi_def_cfa	4, 4

	ret
	.cfi_endproc

	.set	LLlambda_67_81_SIZE,	0

	.set	LSLlambda_67_81_SIZE,	0

	.size Llambda_67_81, .-Llambda_67_81

# LABEL ("Llambda_33_39") / 

Llambda_33_39:

# BEGIN ("Llambda_33_39", 1, 0, [], ["loc"], [{ blab="L571"; elab="L572"; names=[]; subs=[]; }]) / 

	.type lambda_33_39, @function

	.stabs "lambda_33_39:F1",36,0,0,Llambda_33_39

	.stabs "loc:p1",160,0,0,8

	.cfi_startproc

	pushl	%ebp
	.cfi_def_cfa_offset	8

	.cfi_offset 5, -8

	movl	%esp,	%ebp
	.cfi_def_cfa_register	5

	subl	$LLlambda_33_39_SIZE,	%esp
	movl	%esp,	%edi
	movl	$filler,	%esi
	movl	$LSLlambda_33_39_SIZE,	%ecx
	rep movsl	
# SLABEL ("L571") / 

L571:

# LINE (131) / 

	.stabn 68,0,131,0

	.stabn 68,0,131,.L58-Llambda_33_39

.L58:

# LD (Global ("kWrite")) / 

	movl	global_kWrite,	%ebx
# CLOSURE ("Llambda_68_84", [Arg (0)]) / 

	pushl	%ebx
	pushl	8(%ebp)
	pushl	$Llambda_68_84
	pushl	$3
	call	Bclosure
	addl	$12,	%esp
	movl	%eax,	%ecx
	popl	%ebx
# CALL ("Lseq", 2, true) / 

	pushl	%ecx
	pushl	%ebx
	call	Lseq
	addl	$8,	%esp
	movl	%eax,	%ebx
# LABEL ("L573") / 

L573:

# SLABEL ("L572") / 

L572:

# END / 

	movl	%ebx,	%eax
LLlambda_33_39_epilogue:

	movl	%ebp,	%esp
	popl	%ebp
	.cfi_restore	5

	.cfi_def_cfa	4, 4

	ret
	.cfi_endproc

	.set	LLlambda_33_39_SIZE,	0

	.set	LSLlambda_33_39_SIZE,	0

	.size Llambda_33_39, .-Llambda_33_39

# LABEL ("Llambda_68_84") / 

Llambda_68_84:

# BEGIN ("Llambda_68_84", 1, 0, [Arg (0)], ["__tmp53"], [{ blab="L576"; elab="L577"; names=[]; subs=[]; }]) / 

	.type lambda_68_84, @function

	.stabs "lambda_68_84:F1",36,0,0,Llambda_68_84

	.stabs "__tmp53:p1",160,0,0,8

	.cfi_startproc

	pushl	%edx
	pushl	%ebp
	.cfi_def_cfa_offset	12

	.cfi_offset 5, -12

	movl	%esp,	%ebp
	.cfi_def_cfa_register	5

	subl	$LLlambda_68_84_SIZE,	%esp
	movl	%esp,	%edi
	movl	$filler,	%esi
	movl	$LSLlambda_68_84_SIZE,	%ecx
	rep movsl	
# SLABEL ("L576") / 

L576:

# STRING ("(") / 

	movl	$string_15,	%ebx
	pushl	%edx
	pushl	%ebx
	call	Bstring
	addl	$4,	%esp
	popl	%edx
	movl	%eax,	%ebx
# CALL ("Ls", 1, false) / 

	pushl	%edx
	pushl	%ebx
	call	Ls
	addl	$4,	%esp
	popl	%edx
	movl	%eax,	%ebx
# LD (Global ("exp")) / 

	movl	global_exp,	%ecx
# STRING (")") / 

	movl	$string_16,	%esi
	pushl	%edx
	pushl	%ebx
	pushl	%ecx
	pushl	%esi
	call	Bstring
	addl	$4,	%esp
	popl	%ecx
	popl	%ebx
	popl	%edx
	movl	%eax,	%esi
# CALL ("Ls", 1, false) / 

	pushl	%edx
	pushl	%ebx
	pushl	%ecx
	pushl	%esi
	call	Ls
	addl	$4,	%esp
	popl	%ecx
	popl	%ebx
	popl	%edx
	movl	%eax,	%esi
# CALL ("Linbr", 3, false) / 

	pushl	%edx
	pushl	%esi
	pushl	%ecx
	pushl	%ebx
	call	Linbr
	addl	$12,	%esp
	popl	%edx
	movl	%eax,	%ebx
# CLOSURE ("Llambda_69_85", [Access (0)]) / 

	pushl	%ebx
	pushl	4(%edx)
	pushl	$Llambda_69_85
	pushl	$3
	call	Bclosure
	addl	$12,	%esp
	movl	%eax,	%ecx
	popl	%ebx
	movl	4(%ebp),	%edx
# CALL ("Li__Infix_64", 2, true) / 

	pushl	%edx
	pushl	%ecx
	pushl	%ebx
	call	Li__Infix_64
	addl	$8,	%esp
	popl	%edx
	movl	%eax,	%ebx
# LABEL ("L578") / 

L578:

# SLABEL ("L577") / 

L577:

# END / 

	movl	%ebx,	%eax
LLlambda_68_84_epilogue:

	movl	%ebp,	%esp
	popl	%ebp
	popl	%edx
	.cfi_restore	5

	.cfi_def_cfa	4, 4

	ret
	.cfi_endproc

	.set	LLlambda_68_84_SIZE,	0

	.set	LSLlambda_68_84_SIZE,	0

	.size Llambda_68_84, .-Llambda_68_84

# LABEL ("Llambda_69_85") / 

Llambda_69_85:

# BEGIN ("Llambda_69_85", 1, 0, [Access (0)], ["x"], [{ blab="L586"; elab="L587"; names=[]; subs=[{ blab="L589"; elab="L590"; names=[]; subs=[]; }]; }]) / 

	.type lambda_69_85, @function

	.stabs "lambda_69_85:F1",36,0,0,Llambda_69_85

	.stabs "x:p1",160,0,0,8

	.cfi_startproc

	pushl	%edx
	pushl	%ebp
	.cfi_def_cfa_offset	12

	.cfi_offset 5, -12

	movl	%esp,	%ebp
	.cfi_def_cfa_register	5

	subl	$LLlambda_69_85_SIZE,	%esp
	movl	%esp,	%edi
	movl	$filler,	%esi
	movl	$LSLlambda_69_85_SIZE,	%ecx
	rep movsl	
# SLABEL ("L586") / 

L586:

# SLABEL ("L589") / 

L589:

# CLOSURE ("Llambda_70_87", [Arg (0); Access (0)]) / 

	pushl	4(%edx)
	pushl	12(%ebp)
	pushl	$Llambda_70_87
	pushl	$5
	call	Bclosure
	addl	$16,	%esp
	movl	%eax,	%ebx
	movl	4(%ebp),	%edx
# SLABEL ("L590") / 

L590:

# LABEL ("L588") / 

L588:

# SLABEL ("L587") / 

L587:

# END / 

	movl	%ebx,	%eax
LLlambda_69_85_epilogue:

	movl	%ebp,	%esp
	popl	%ebp
	popl	%edx
	.cfi_restore	5

	.cfi_def_cfa	4, 4

	ret
	.cfi_endproc

	.set	LLlambda_69_85_SIZE,	0

	.set	LSLlambda_69_85_SIZE,	0

	.size Llambda_69_85, .-Llambda_69_85

# LABEL ("Llambda_70_87") / 

Llambda_70_87:

# BEGIN ("Llambda_70_87", 1, 0, [Arg (0); Access (0)], ["arg"], [{ blab="L591"; elab="L592"; names=[]; subs=[{ blab="L594"; elab="L595"; names=[]; subs=[]; }]; }]) / 

	.type lambda_70_87, @function

	.stabs "lambda_70_87:F1",36,0,0,Llambda_70_87

	.stabs "arg:p1",160,0,0,8

	.cfi_startproc

	pushl	%edx
	pushl	%ebp
	.cfi_def_cfa_offset	12

	.cfi_offset 5, -12

	movl	%esp,	%ebp
	.cfi_def_cfa_register	5

	subl	$LLlambda_70_87_SIZE,	%esp
	movl	%esp,	%edi
	movl	$filler,	%esi
	movl	$LSLlambda_70_87_SIZE,	%ecx
	rep movsl	
# SLABEL ("L591") / 

L591:

# SLABEL ("L594") / 

L594:

# LD (Arg (0)) / 

	movl	12(%ebp),	%ebx
# LD (Access (0)) / 

	movl	4(%edx),	%ecx
# SEXP ("Val", 0) / 

	movl	$393369,	%esi
	pushl	%edx
	pushl	%ebx
	pushl	%ecx
	pushl	%esi
	pushl	$3
	call	Bsexp
	addl	$8,	%esp
	popl	%ecx
	popl	%ebx
	popl	%edx
	movl	%eax,	%esi
# CALLC (1, false) / 

	pushl	%edx
	pushl	%ebx
	pushl	%ecx
	pushl	%esi
	movl	%ecx,	%edx
	call	*(%ecx)
	addl	$4,	%esp
	popl	%ecx
	popl	%ebx
	popl	%edx
	movl	%eax,	%ecx
# SEXP ("Write", 1) / 

	movl	$1653680651,	%esi
	pushl	%edx
	pushl	%ebx
	pushl	%esi
	pushl	%ecx
	pushl	$5
	call	Bsexp
	addl	$12,	%esp
	popl	%ebx
	popl	%edx
	movl	%eax,	%ecx
# LD (Access (1)) / 

	movl	8(%edx),	%esi
# CALL ("LassertVoid", 3, true) / 

	pushl	%edx
	pushl	%esi
	pushl	%ecx
	pushl	%ebx
	call	LassertVoid
	addl	$12,	%esp
	popl	%edx
	movl	%eax,	%ebx
# SLABEL ("L595") / 

L595:

# LABEL ("L593") / 

L593:

# SLABEL ("L592") / 

L592:

# END / 

	movl	%ebx,	%eax
LLlambda_70_87_epilogue:

	movl	%ebp,	%esp
	popl	%ebp
	popl	%edx
	.cfi_restore	5

	.cfi_def_cfa	4, 4

	ret
	.cfi_endproc

	.set	LLlambda_70_87_SIZE,	0

	.set	LSLlambda_70_87_SIZE,	0

	.size Llambda_70_87, .-Llambda_70_87

# LABEL ("Llambda_32_39") / 

Llambda_32_39:

# BEGIN ("Llambda_32_39", 1, 0, [], ["loc"], [{ blab="L603"; elab="L604"; names=[]; subs=[]; }]) / 

	.type lambda_32_39, @function

	.stabs "lambda_32_39:F1",36,0,0,Llambda_32_39

	.stabs "loc:p1",160,0,0,8

	.cfi_startproc

	pushl	%ebp
	.cfi_def_cfa_offset	8

	.cfi_offset 5, -8

	movl	%esp,	%ebp
	.cfi_def_cfa_register	5

	subl	$LLlambda_32_39_SIZE,	%esp
	movl	%esp,	%edi
	movl	$filler,	%esi
	movl	$LSLlambda_32_39_SIZE,	%ecx
	rep movsl	
# SLABEL ("L603") / 

L603:

# LINE (130) / 

	.stabn 68,0,130,0

	.stabn 68,0,130,.L59-Llambda_32_39

.L59:

# LD (Global ("kSkip")) / 

	movl	global_kSkip,	%ebx
# CLOSURE ("Llambda_71_90", [Arg (0)]) / 

	pushl	%ebx
	pushl	8(%ebp)
	pushl	$Llambda_71_90
	pushl	$3
	call	Bclosure
	addl	$12,	%esp
	movl	%eax,	%ecx
	popl	%ebx
# CALL ("Li__Infix_64", 2, true) / 

	pushl	%ecx
	pushl	%ebx
	call	Li__Infix_64
	addl	$8,	%esp
	movl	%eax,	%ebx
# LABEL ("L605") / 

L605:

# SLABEL ("L604") / 

L604:

# END / 

	movl	%ebx,	%eax
LLlambda_32_39_epilogue:

	movl	%ebp,	%esp
	popl	%ebp
	.cfi_restore	5

	.cfi_def_cfa	4, 4

	ret
	.cfi_endproc

	.set	LLlambda_32_39_SIZE,	0

	.set	LSLlambda_32_39_SIZE,	0

	.size Llambda_32_39, .-Llambda_32_39

# LABEL ("Llambda_71_90") / 

Llambda_71_90:

# BEGIN ("Llambda_71_90", 1, 0, [Arg (0)], ["__tmp46"], [{ blab="L608"; elab="L609"; names=[]; subs=[{ blab="L611"; elab="L612"; names=[]; subs=[]; }]; }]) / 

	.type lambda_71_90, @function

	.stabs "lambda_71_90:F1",36,0,0,Llambda_71_90

	.stabs "__tmp46:p1",160,0,0,8

	.cfi_startproc

	pushl	%edx
	pushl	%ebp
	.cfi_def_cfa_offset	12

	.cfi_offset 5, -12

	movl	%esp,	%ebp
	.cfi_def_cfa_register	5

	subl	$LLlambda_71_90_SIZE,	%esp
	movl	%esp,	%edi
	movl	$filler,	%esi
	movl	$LSLlambda_71_90_SIZE,	%ecx
	rep movsl	
# SLABEL ("L608") / 

L608:

# SLABEL ("L611") / 

L611:

# CLOSURE ("Llambda_72_92", [Access (0)]) / 

	pushl	4(%edx)
	pushl	$Llambda_72_92
	pushl	$3
	call	Bclosure
	addl	$12,	%esp
	movl	%eax,	%ebx
	movl	4(%ebp),	%edx
# SLABEL ("L612") / 

L612:

# LABEL ("L610") / 

L610:

# SLABEL ("L609") / 

L609:

# END / 

	movl	%ebx,	%eax
LLlambda_71_90_epilogue:

	movl	%ebp,	%esp
	popl	%ebp
	popl	%edx
	.cfi_restore	5

	.cfi_def_cfa	4, 4

	ret
	.cfi_endproc

	.set	LLlambda_71_90_SIZE,	0

	.set	LSLlambda_71_90_SIZE,	0

	.size Llambda_71_90, .-Llambda_71_90

# LABEL ("Llambda_72_92") / 

Llambda_72_92:

# BEGIN ("Llambda_72_92", 1, 0, [Access (0)], ["arg"], [{ blab="L613"; elab="L614"; names=[]; subs=[{ blab="L616"; elab="L617"; names=[]; subs=[]; }]; }]) / 

	.type lambda_72_92, @function

	.stabs "lambda_72_92:F1",36,0,0,Llambda_72_92

	.stabs "arg:p1",160,0,0,8

	.cfi_startproc

	pushl	%edx
	pushl	%ebp
	.cfi_def_cfa_offset	12

	.cfi_offset 5, -12

	movl	%esp,	%ebp
	.cfi_def_cfa_register	5

	subl	$LLlambda_72_92_SIZE,	%esp
	movl	%esp,	%edi
	movl	$filler,	%esi
	movl	$LSLlambda_72_92_SIZE,	%ecx
	rep movsl	
# SLABEL ("L613") / 

L613:

# SLABEL ("L616") / 

L616:

# LD (Arg (0)) / 

	movl	12(%ebp),	%ebx
# SEXP ("Skip", 0) / 

	movl	$23684257,	%ecx
	pushl	%edx
	pushl	%ebx
	pushl	%ecx
	pushl	$3
	call	Bsexp
	addl	$8,	%esp
	popl	%ebx
	popl	%edx
	movl	%eax,	%ecx
# LD (Access (0)) / 

	movl	4(%edx),	%esi
# CALL ("LassertVoid", 3, true) / 

	pushl	%edx
	pushl	%esi
	pushl	%ecx
	pushl	%ebx
	call	LassertVoid
	addl	$12,	%esp
	popl	%edx
	movl	%eax,	%ebx
# SLABEL ("L617") / 

L617:

# LABEL ("L615") / 

L615:

# SLABEL ("L614") / 

L614:

# END / 

	movl	%ebx,	%eax
LLlambda_72_92_epilogue:

	movl	%ebp,	%esp
	popl	%ebp
	popl	%edx
	.cfi_restore	5

	.cfi_def_cfa	4, 4

	ret
	.cfi_endproc

	.set	LLlambda_72_92_SIZE,	0

	.set	LSLlambda_72_92_SIZE,	0

	.size Llambda_72_92, .-Llambda_72_92

# LABEL ("Llambda_31_39") / 

Llambda_31_39:

# BEGIN ("Llambda_31_39", 1, 0, [], ["x"], [{ blab="L622"; elab="L623"; names=[]; subs=[{ blab="L625"; elab="L626"; names=[]; subs=[]; }]; }]) / 

	.type lambda_31_39, @function

	.stabs "lambda_31_39:F1",36,0,0,Llambda_31_39

	.stabs "x:p1",160,0,0,8

	.cfi_startproc

	pushl	%ebp
	.cfi_def_cfa_offset	8

	.cfi_offset 5, -8

	movl	%esp,	%ebp
	.cfi_def_cfa_register	5

	subl	$LLlambda_31_39_SIZE,	%esp
	movl	%esp,	%edi
	movl	$filler,	%esi
	movl	$LSLlambda_31_39_SIZE,	%ecx
	rep movsl	
# SLABEL ("L622") / 

L622:

# SLABEL ("L625") / 

L625:

# LINE (125) / 

	.stabn 68,0,125,0

	.stabn 68,0,125,.L60-Llambda_31_39

.L60:

# CLOSURE ("Llambda_73_96", [Arg (0)]) / 

	pushl	8(%ebp)
	pushl	$Llambda_73_96
	pushl	$3
	call	Bclosure
	addl	$12,	%esp
	movl	%eax,	%ebx
# SLABEL ("L626") / 

L626:

# LABEL ("L624") / 

L624:

# SLABEL ("L623") / 

L623:

# END / 

	movl	%ebx,	%eax
LLlambda_31_39_epilogue:

	movl	%ebp,	%esp
	popl	%ebp
	.cfi_restore	5

	.cfi_def_cfa	4, 4

	ret
	.cfi_endproc

	.set	LLlambda_31_39_SIZE,	0

	.set	LSLlambda_31_39_SIZE,	0

	.size Llambda_31_39, .-Llambda_31_39

# LABEL ("Llambda_73_96") / 

Llambda_73_96:

# BEGIN ("Llambda_73_96", 1, 0, [Arg (0)], ["arg"], [{ blab="L627"; elab="L628"; names=[]; subs=[{ blab="L630"; elab="L631"; names=[]; subs=[{ blab="L651"; elab="L652"; names=[]; subs=[{ blab="L653"; elab="L654"; names=[]; subs=[]; }]; }; { blab="L645"; elab="L646"; names=[]; subs=[{ blab="L647"; elab="L648"; names=[]; subs=[]; }]; }; { blab="L637"; elab="L638"; names=[]; subs=[{ blab="L639"; elab="L640"; names=[]; subs=[]; }]; }]; }]; }]) / 

	.type lambda_73_96, @function

	.stabs "lambda_73_96:F1",36,0,0,Llambda_73_96

	.stabs "arg:p1",160,0,0,8

	.cfi_startproc

	pushl	%edx
	pushl	%ebp
	.cfi_def_cfa_offset	12

	.cfi_offset 5, -12

	movl	%esp,	%ebp
	.cfi_def_cfa_register	5

	subl	$LLlambda_73_96_SIZE,	%esp
	movl	%esp,	%edi
	movl	$filler,	%esi
	movl	$LSLlambda_73_96_SIZE,	%ecx
	rep movsl	
# SLABEL ("L627") / 

L627:

# SLABEL ("L630") / 

L630:

# LD (Arg (0)) / 

	movl	12(%ebp),	%ebx
# DUP / 

	movl	%ebx,	%ecx
# SLABEL ("L637") / 

L637:

# DUP / 

	movl	%ecx,	%esi
# TAG ("Ref", 0) / 

	movl	$361101,	%edi
	movl	$1,	-4(%ebp)
	pushl	%edx
	pushl	%ebx
	pushl	%ecx
	pushl	-4(%ebp)
	pushl	%edi
	pushl	%esi
	call	Btag
	addl	$12,	%esp
	popl	%ecx
	popl	%ebx
	popl	%edx
	movl	%eax,	%esi
# CJMP ("nz", "L635") / 

	sarl	%esi
	cmpl	$0,	%esi
	jnz	L635
# LABEL ("L636") / 

L636:

# DROP / 

# JMP ("L634") / 

	jmp	L634
# LABEL ("L635") / 

L635:

# DROP / 

# DROP / 

# SLABEL ("L639") / 

L639:

# LINE (126) / 

	.stabn 68,0,126,0

	.stabn 68,0,126,.L61-Llambda_73_96

.L61:

# LD (Access (0)) / 

	movl	4(%edx),	%ebx
# SEXP ("Ref", 1) / 

	movl	$361101,	%ecx
	pushl	%edx
	pushl	%ecx
	pushl	%ebx
	pushl	$5
	call	Bsexp
	addl	$12,	%esp
	popl	%edx
	movl	%eax,	%ebx
# SLABEL ("L640") / 

L640:

# JMP ("L629") / 

	jmp	L629
# SLABEL ("L638") / 

L638:

# SLABEL ("L645") / 

L645:

# LABEL ("L634") / 

L634:

# DUP / 

	movl	%ebx,	%ecx
# DUP / 

	movl	%ecx,	%esi
# TAG ("Void", 0) / 

	movl	$25289865,	%edi
	movl	$1,	-4(%ebp)
	pushl	%edx
	pushl	%ebx
	pushl	%ecx
	pushl	-4(%ebp)
	pushl	%edi
	pushl	%esi
	call	Btag
	addl	$12,	%esp
	popl	%ecx
	popl	%ebx
	popl	%edx
	movl	%eax,	%esi
# CJMP ("nz", "L643") / 

	sarl	%esi
	cmpl	$0,	%esi
	jnz	L643
# LABEL ("L644") / 

L644:

# DROP / 

# JMP ("L642") / 

	jmp	L642
# LABEL ("L643") / 

L643:

# DROP / 

# DROP / 

# SLABEL ("L647") / 

L647:

# LINE (127) / 

	.stabn 68,0,127,.L62-Llambda_73_96

.L62:

# LD (Access (0)) / 

	movl	4(%edx),	%ebx
# SEXP ("Var", 1) / 

	movl	$393381,	%ecx
	pushl	%edx
	pushl	%ecx
	pushl	%ebx
	pushl	$5
	call	Bsexp
	addl	$12,	%esp
	popl	%edx
	movl	%eax,	%ebx
# SEXP ("Ignore", 1) / 

	movl	$1178191781,	%ecx
	pushl	%edx
	pushl	%ecx
	pushl	%ebx
	pushl	$5
	call	Bsexp
	addl	$12,	%esp
	popl	%edx
	movl	%eax,	%ebx
# SLABEL ("L648") / 

L648:

# JMP ("L629") / 

	jmp	L629
# SLABEL ("L646") / 

L646:

# SLABEL ("L651") / 

L651:

# LABEL ("L642") / 

L642:

# DUP / 

	movl	%ebx,	%ecx
# DROP / 

# DROP / 

# SLABEL ("L653") / 

L653:

# LINE (128) / 

	.stabn 68,0,128,.L63-Llambda_73_96

.L63:

# LD (Access (0)) / 

	movl	4(%edx),	%ebx
# SEXP ("Var", 1) / 

	movl	$393381,	%ecx
	pushl	%edx
	pushl	%ecx
	pushl	%ebx
	pushl	$5
	call	Bsexp
	addl	$12,	%esp
	popl	%edx
	movl	%eax,	%ebx
# SLABEL ("L654") / 

L654:

# SLABEL ("L652") / 

L652:

# JMP ("L629") / 

	jmp	L629
# SLABEL ("L631") / 

L631:

# LABEL ("L629") / 

L629:

# SLABEL ("L628") / 

L628:

# END / 

	movl	%ebx,	%eax
LLlambda_73_96_epilogue:

	movl	%ebp,	%esp
	popl	%ebp
	popl	%edx
	.cfi_restore	5

	.cfi_def_cfa	4, 4

	ret
	.cfi_endproc

	.set	LLlambda_73_96_SIZE,	4

	.set	LSLlambda_73_96_SIZE,	1

	.size Llambda_73_96, .-Llambda_73_96

# LABEL ("Llambda_30_39") / 

Llambda_30_39:

# BEGIN ("Llambda_30_39", 1, 0, [], ["loc"], [{ blab="L656"; elab="L657"; names=[]; subs=[]; }]) / 

	.type lambda_30_39, @function

	.stabs "lambda_30_39:F1",36,0,0,Llambda_30_39

	.stabs "loc:p1",160,0,0,8

	.cfi_startproc

	pushl	%ebp
	.cfi_def_cfa_offset	8

	.cfi_offset 5, -8

	movl	%esp,	%ebp
	.cfi_def_cfa_register	5

	subl	$LLlambda_30_39_SIZE,	%esp
	movl	%esp,	%edi
	movl	$filler,	%esi
	movl	$LSLlambda_30_39_SIZE,	%ecx
	rep movsl	
# SLABEL ("L656") / 

L656:

# LINE (124) / 

	.stabn 68,0,124,0

	.stabn 68,0,124,.L64-Llambda_30_39

.L64:

# LD (Global ("decimal")) / 

	movl	global_decimal,	%ebx
# CLOSURE ("Llambda_74_105", [Arg (0)]) / 

	pushl	%ebx
	pushl	8(%ebp)
	pushl	$Llambda_74_105
	pushl	$3
	call	Bclosure
	addl	$12,	%esp
	movl	%eax,	%ecx
	popl	%ebx
# CALL ("Li__Infix_64", 2, true) / 

	pushl	%ecx
	pushl	%ebx
	call	Li__Infix_64
	addl	$8,	%esp
	movl	%eax,	%ebx
# LABEL ("L658") / 

L658:

# SLABEL ("L657") / 

L657:

# END / 

	movl	%ebx,	%eax
LLlambda_30_39_epilogue:

	movl	%ebp,	%esp
	popl	%ebp
	.cfi_restore	5

	.cfi_def_cfa	4, 4

	ret
	.cfi_endproc

	.set	LLlambda_30_39_SIZE,	0

	.set	LSLlambda_30_39_SIZE,	0

	.size Llambda_30_39, .-Llambda_30_39

# LABEL ("Llambda_74_105") / 

Llambda_74_105:

# BEGIN ("Llambda_74_105", 1, 0, [Arg (0)], ["x"], [{ blab="L661"; elab="L662"; names=[]; subs=[{ blab="L664"; elab="L665"; names=[]; subs=[]; }]; }]) / 

	.type lambda_74_105, @function

	.stabs "lambda_74_105:F1",36,0,0,Llambda_74_105

	.stabs "x:p1",160,0,0,8

	.cfi_startproc

	pushl	%edx
	pushl	%ebp
	.cfi_def_cfa_offset	12

	.cfi_offset 5, -12

	movl	%esp,	%ebp
	.cfi_def_cfa_register	5

	subl	$LLlambda_74_105_SIZE,	%esp
	movl	%esp,	%edi
	movl	$filler,	%esi
	movl	$LSLlambda_74_105_SIZE,	%ecx
	rep movsl	
# SLABEL ("L661") / 

L661:

# SLABEL ("L664") / 

L664:

# CLOSURE ("Llambda_75_107", [Arg (0); Access (0)]) / 

	pushl	4(%edx)
	pushl	12(%ebp)
	pushl	$Llambda_75_107
	pushl	$5
	call	Bclosure
	addl	$16,	%esp
	movl	%eax,	%ebx
	movl	4(%ebp),	%edx
# SLABEL ("L665") / 

L665:

# LABEL ("L663") / 

L663:

# SLABEL ("L662") / 

L662:

# END / 

	movl	%ebx,	%eax
LLlambda_74_105_epilogue:

	movl	%ebp,	%esp
	popl	%ebp
	popl	%edx
	.cfi_restore	5

	.cfi_def_cfa	4, 4

	ret
	.cfi_endproc

	.set	LLlambda_74_105_SIZE,	0

	.set	LSLlambda_74_105_SIZE,	0

	.size Llambda_74_105, .-Llambda_74_105

# LABEL ("Llambda_75_107") / 

Llambda_75_107:

# BEGIN ("Llambda_75_107", 1, 0, [Arg (0); Access (0)], ["arg"], [{ blab="L666"; elab="L667"; names=[]; subs=[{ blab="L669"; elab="L670"; names=[]; subs=[]; }]; }]) / 

	.type lambda_75_107, @function

	.stabs "lambda_75_107:F1",36,0,0,Llambda_75_107

	.stabs "arg:p1",160,0,0,8

	.cfi_startproc

	pushl	%edx
	pushl	%ebp
	.cfi_def_cfa_offset	12

	.cfi_offset 5, -12

	movl	%esp,	%ebp
	.cfi_def_cfa_register	5

	subl	$LLlambda_75_107_SIZE,	%esp
	movl	%esp,	%edi
	movl	$filler,	%esi
	movl	$LSLlambda_75_107_SIZE,	%ecx
	rep movsl	
# SLABEL ("L666") / 

L666:

# SLABEL ("L669") / 

L669:

# LD (Arg (0)) / 

	movl	12(%ebp),	%ebx
# LD (Access (0)) / 

	movl	4(%edx),	%ecx
# CALL ("LstringInt", 1, false) / 

	pushl	%edx
	pushl	%ebx
	pushl	%ecx
	call	LstringInt
	addl	$4,	%esp
	popl	%ebx
	popl	%edx
	movl	%eax,	%ecx
# SEXP ("Const", 1) / 

	movl	$981060009,	%esi
	pushl	%edx
	pushl	%ebx
	pushl	%esi
	pushl	%ecx
	pushl	$5
	call	Bsexp
	addl	$12,	%esp
	popl	%ebx
	popl	%edx
	movl	%eax,	%ecx
# LD (Access (1)) / 

	movl	8(%edx),	%esi
# CALL ("LassertValue", 3, true) / 

	pushl	%edx
	pushl	%esi
	pushl	%ecx
	pushl	%ebx
	call	LassertValue
	addl	$12,	%esp
	popl	%edx
	movl	%eax,	%ebx
# SLABEL ("L670") / 

L670:

# LABEL ("L668") / 

L668:

# SLABEL ("L667") / 

L667:

# END / 

	movl	%ebx,	%eax
LLlambda_75_107_epilogue:

	movl	%ebp,	%esp
	popl	%ebp
	popl	%edx
	.cfi_restore	5

	.cfi_def_cfa	4, 4

	ret
	.cfi_endproc

	.set	LLlambda_75_107_SIZE,	0

	.set	LSLlambda_75_107_SIZE,	0

	.size Llambda_75_107, .-Llambda_75_107

# LABEL ("Llambda_29_39") / 

Llambda_29_39:

# BEGIN ("Llambda_29_39", 1, 0, [], ["loc"], [{ blab="L676"; elab="L677"; names=[]; subs=[]; }]) / 

	.type lambda_29_39, @function

	.stabs "lambda_29_39:F1",36,0,0,Llambda_29_39

	.stabs "loc:p1",160,0,0,8

	.cfi_startproc

	pushl	%ebp
	.cfi_def_cfa_offset	8

	.cfi_offset 5, -8

	movl	%esp,	%ebp
	.cfi_def_cfa_register	5

	subl	$LLlambda_29_39_SIZE,	%esp
	movl	%esp,	%edi
	movl	$filler,	%esi
	movl	$LSLlambda_29_39_SIZE,	%ecx
	rep movsl	
# SLABEL ("L676") / 

L676:

# LINE (123) / 

	.stabn 68,0,123,0

	.stabn 68,0,123,.L65-Llambda_29_39

.L65:

# STRING ("(") / 

	movl	$string_15,	%ebx
	pushl	%ebx
	call	Bstring
	addl	$4,	%esp
	movl	%eax,	%ebx
# CALL ("Ls", 1, false) / 

	pushl	%ebx
	call	Ls
	addl	$4,	%esp
	movl	%eax,	%ebx
# LD (Global ("exp")) / 

	movl	global_exp,	%ecx
# STRING (")") / 

	movl	$string_16,	%esi
	pushl	%ebx
	pushl	%ecx
	pushl	%esi
	call	Bstring
	addl	$4,	%esp
	popl	%ecx
	popl	%ebx
	movl	%eax,	%esi
# CALL ("Ls", 1, false) / 

	pushl	%ebx
	pushl	%ecx
	pushl	%esi
	call	Ls
	addl	$4,	%esp
	popl	%ecx
	popl	%ebx
	movl	%eax,	%esi
# CALL ("Linbr", 3, false) / 

	pushl	%esi
	pushl	%ecx
	pushl	%ebx
	call	Linbr
	addl	$12,	%esp
	movl	%eax,	%ebx
# CLOSURE ("Llambda_76_110", []) / 

	pushl	%ebx
	pushl	$Llambda_76_110
	pushl	$1
	call	Bclosure
	addl	$8,	%esp
	movl	%eax,	%ecx
	popl	%ebx
# CALL ("Li__Infix_64", 2, true) / 

	pushl	%ecx
	pushl	%ebx
	call	Li__Infix_64
	addl	$8,	%esp
	movl	%eax,	%ebx
# LABEL ("L678") / 

L678:

# SLABEL ("L677") / 

L677:

# END / 

	movl	%ebx,	%eax
LLlambda_29_39_epilogue:

	movl	%ebp,	%esp
	popl	%ebp
	.cfi_restore	5

	.cfi_def_cfa	4, 4

	ret
	.cfi_endproc

	.set	LLlambda_29_39_SIZE,	0

	.set	LSLlambda_29_39_SIZE,	0

	.size Llambda_29_39, .-Llambda_29_39

# LABEL ("Llambda_76_110") / 

Llambda_76_110:

# BEGIN ("Llambda_76_110", 1, 0, [], ["lexpr"], [{ blab="L686"; elab="L687"; names=[]; subs=[{ blab="L689"; elab="L690"; names=[]; subs=[]; }]; }]) / 

	.type lambda_76_110, @function

	.stabs "lambda_76_110:F1",36,0,0,Llambda_76_110

	.stabs "lexpr:p1",160,0,0,8

	.cfi_startproc

	pushl	%ebp
	.cfi_def_cfa_offset	8

	.cfi_offset 5, -8

	movl	%esp,	%ebp
	.cfi_def_cfa_register	5

	subl	$LLlambda_76_110_SIZE,	%esp
	movl	%esp,	%edi
	movl	$filler,	%esi
	movl	$LSLlambda_76_110_SIZE,	%ecx
	rep movsl	
# SLABEL ("L686") / 

L686:

# SLABEL ("L689") / 

L689:

# CLOSURE ("Llambda_77_112", [Arg (0)]) / 

	pushl	8(%ebp)
	pushl	$Llambda_77_112
	pushl	$3
	call	Bclosure
	addl	$12,	%esp
	movl	%eax,	%ebx
# SLABEL ("L690") / 

L690:

# LABEL ("L688") / 

L688:

# SLABEL ("L687") / 

L687:

# END / 

	movl	%ebx,	%eax
LLlambda_76_110_epilogue:

	movl	%ebp,	%esp
	popl	%ebp
	.cfi_restore	5

	.cfi_def_cfa	4, 4

	ret
	.cfi_endproc

	.set	LLlambda_76_110_SIZE,	0

	.set	LSLlambda_76_110_SIZE,	0

	.size Llambda_76_110, .-Llambda_76_110

# LABEL ("Llambda_77_112") / 

Llambda_77_112:

# BEGIN ("Llambda_77_112", 1, 0, [Arg (0)], ["arg"], [{ blab="L691"; elab="L692"; names=[]; subs=[{ blab="L694"; elab="L695"; names=[]; subs=[]; }]; }]) / 

	.type lambda_77_112, @function

	.stabs "lambda_77_112:F1",36,0,0,Llambda_77_112

	.stabs "arg:p1",160,0,0,8

	.cfi_startproc

	pushl	%edx
	pushl	%ebp
	.cfi_def_cfa_offset	12

	.cfi_offset 5, -12

	movl	%esp,	%ebp
	.cfi_def_cfa_register	5

	subl	$LLlambda_77_112_SIZE,	%esp
	movl	%esp,	%edi
	movl	$filler,	%esi
	movl	$LSLlambda_77_112_SIZE,	%ecx
	rep movsl	
# SLABEL ("L691") / 

L691:

# SLABEL ("L694") / 

L694:

# LD (Access (0)) / 

	movl	4(%edx),	%ebx
# LD (Arg (0)) / 

	movl	12(%ebp),	%ecx
# CALLC (1, true) / 

	movl	%ecx,	12(%ebp)
	movl	%ebx,	%edx
	movl	(%edx),	%eax
	movl	%ebp,	%esp
	popl	%ebp
	popl	%ebx
	jmp	*%eax
# SLABEL ("L695") / 

L695:

# LABEL ("L693") / 

L693:

# SLABEL ("L692") / 

L692:

# END / 

	movl	%ebx,	%eax
LLlambda_77_112_epilogue:

	movl	%ebp,	%esp
	popl	%ebp
	popl	%edx
	.cfi_restore	5

	.cfi_def_cfa	4, 4

	ret
	.cfi_endproc

	.set	LLlambda_77_112_SIZE,	0

	.set	LSLlambda_77_112_SIZE,	0

	.size Llambda_77_112, .-Llambda_77_112

# LABEL ("Llambda_28_39") / 

Llambda_28_39:

# BEGIN ("Llambda_28_39", 1, 0, [], ["x"], [{ blab="L698"; elab="L699"; names=[]; subs=[{ blab="L701"; elab="L702"; names=[]; subs=[]; }]; }]) / 

	.type lambda_28_39, @function

	.stabs "lambda_28_39:F1",36,0,0,Llambda_28_39

	.stabs "x:p1",160,0,0,8

	.cfi_startproc

	pushl	%ebp
	.cfi_def_cfa_offset	8

	.cfi_offset 5, -8

	movl	%esp,	%ebp
	.cfi_def_cfa_register	5

	subl	$LLlambda_28_39_SIZE,	%esp
	movl	%esp,	%edi
	movl	$filler,	%esi
	movl	$LSLlambda_28_39_SIZE,	%ecx
	rep movsl	
# SLABEL ("L698") / 

L698:

# SLABEL ("L701") / 

L701:

# LINE (114) / 

	.stabn 68,0,114,0

	.stabn 68,0,114,.L66-Llambda_28_39

.L66:

# CLOSURE ("Llambda_78_116", [Arg (0)]) / 

	pushl	8(%ebp)
	pushl	$Llambda_78_116
	pushl	$3
	call	Bclosure
	addl	$12,	%esp
	movl	%eax,	%ebx
# SLABEL ("L702") / 

L702:

# LABEL ("L700") / 

L700:

# SLABEL ("L699") / 

L699:

# END / 

	movl	%ebx,	%eax
LLlambda_28_39_epilogue:

	movl	%ebp,	%esp
	popl	%ebp
	.cfi_restore	5

	.cfi_def_cfa	4, 4

	ret
	.cfi_endproc

	.set	LLlambda_28_39_SIZE,	0

	.set	LSLlambda_28_39_SIZE,	0

	.size Llambda_28_39, .-Llambda_28_39

# LABEL ("Llambda_78_116") / 

Llambda_78_116:

# BEGIN ("Llambda_78_116", 1, 0, [Arg (0)], ["a"], [{ blab="L703"; elab="L704"; names=[]; subs=[{ blab="L706"; elab="L707"; names=[]; subs=[{ blab="L727"; elab="L728"; names=[]; subs=[{ blab="L729"; elab="L730"; names=[]; subs=[]; }]; }; { blab="L721"; elab="L722"; names=[]; subs=[{ blab="L723"; elab="L724"; names=[]; subs=[]; }]; }; { blab="L713"; elab="L714"; names=[]; subs=[{ blab="L715"; elab="L716"; names=[]; subs=[]; }]; }]; }]; }]) / 

	.type lambda_78_116, @function

	.stabs "lambda_78_116:F1",36,0,0,Llambda_78_116

	.stabs "a:p1",160,0,0,8

	.cfi_startproc

	pushl	%edx
	pushl	%ebp
	.cfi_def_cfa_offset	12

	.cfi_offset 5, -12

	movl	%esp,	%ebp
	.cfi_def_cfa_register	5

	subl	$LLlambda_78_116_SIZE,	%esp
	movl	%esp,	%edi
	movl	$filler,	%esi
	movl	$LSLlambda_78_116_SIZE,	%ecx
	rep movsl	
# SLABEL ("L703") / 

L703:

# SLABEL ("L706") / 

L706:

# LINE (115) / 

	.stabn 68,0,115,0

	.stabn 68,0,115,.L67-Llambda_78_116

.L67:

# LD (Arg (0)) / 

	movl	12(%ebp),	%ebx
# DUP / 

	movl	%ebx,	%ecx
# SLABEL ("L713") / 

L713:

# DUP / 

	movl	%ecx,	%esi
# TAG ("Ref", 0) / 

	movl	$361101,	%edi
	movl	$1,	-4(%ebp)
	pushl	%edx
	pushl	%ebx
	pushl	%ecx
	pushl	-4(%ebp)
	pushl	%edi
	pushl	%esi
	call	Btag
	addl	$12,	%esp
	popl	%ecx
	popl	%ebx
	popl	%edx
	movl	%eax,	%esi
# CJMP ("nz", "L711") / 

	sarl	%esi
	cmpl	$0,	%esi
	jnz	L711
# LABEL ("L712") / 

L712:

# DROP / 

# JMP ("L710") / 

	jmp	L710
# LABEL ("L711") / 

L711:

# DROP / 

# DROP / 

# SLABEL ("L715") / 

L715:

# LINE (116) / 

	.stabn 68,0,116,.L68-Llambda_78_116

.L68:

# LD (Access (0)) / 

	movl	4(%edx),	%ebx
# SEXP ("Ref", 1) / 

	movl	$361101,	%ecx
	pushl	%edx
	pushl	%ecx
	pushl	%ebx
	pushl	$5
	call	Bsexp
	addl	$12,	%esp
	popl	%edx
	movl	%eax,	%ebx
# SLABEL ("L716") / 

L716:

# JMP ("L705") / 

	jmp	L705
# SLABEL ("L714") / 

L714:

# SLABEL ("L721") / 

L721:

# LABEL ("L710") / 

L710:

# DUP / 

	movl	%ebx,	%ecx
# DUP / 

	movl	%ecx,	%esi
# TAG ("Void", 0) / 

	movl	$25289865,	%edi
	movl	$1,	-4(%ebp)
	pushl	%edx
	pushl	%ebx
	pushl	%ecx
	pushl	-4(%ebp)
	pushl	%edi
	pushl	%esi
	call	Btag
	addl	$12,	%esp
	popl	%ecx
	popl	%ebx
	popl	%edx
	movl	%eax,	%esi
# CJMP ("nz", "L719") / 

	sarl	%esi
	cmpl	$0,	%esi
	jnz	L719
# LABEL ("L720") / 

L720:

# DROP / 

# JMP ("L718") / 

	jmp	L718
# LABEL ("L719") / 

L719:

# DROP / 

# DROP / 

# SLABEL ("L723") / 

L723:

# LINE (117) / 

	.stabn 68,0,117,.L69-Llambda_78_116

.L69:

# LD (Access (0)) / 

	movl	4(%edx),	%ebx
# SEXP ("Var", 1) / 

	movl	$393381,	%ecx
	pushl	%edx
	pushl	%ecx
	pushl	%ebx
	pushl	$5
	call	Bsexp
	addl	$12,	%esp
	popl	%edx
	movl	%eax,	%ebx
# SEXP ("Ignore", 1) / 

	movl	$1178191781,	%ecx
	pushl	%edx
	pushl	%ecx
	pushl	%ebx
	pushl	$5
	call	Bsexp
	addl	$12,	%esp
	popl	%edx
	movl	%eax,	%ebx
# SLABEL ("L724") / 

L724:

# JMP ("L705") / 

	jmp	L705
# SLABEL ("L722") / 

L722:

# SLABEL ("L727") / 

L727:

# LABEL ("L718") / 

L718:

# DUP / 

	movl	%ebx,	%ecx
# DROP / 

# DROP / 

# SLABEL ("L729") / 

L729:

# LINE (118) / 

	.stabn 68,0,118,.L70-Llambda_78_116

.L70:

# LD (Access (0)) / 

	movl	4(%edx),	%ebx
# SEXP ("Var", 1) / 

	movl	$393381,	%ecx
	pushl	%edx
	pushl	%ecx
	pushl	%ebx
	pushl	$5
	call	Bsexp
	addl	$12,	%esp
	popl	%edx
	movl	%eax,	%ebx
# SLABEL ("L730") / 

L730:

# SLABEL ("L728") / 

L728:

# JMP ("L705") / 

	jmp	L705
# SLABEL ("L707") / 

L707:

# LABEL ("L705") / 

L705:

# SLABEL ("L704") / 

L704:

# END / 

	movl	%ebx,	%eax
LLlambda_78_116_epilogue:

	movl	%ebp,	%esp
	popl	%ebp
	popl	%edx
	.cfi_restore	5

	.cfi_def_cfa	4, 4

	ret
	.cfi_endproc

	.set	LLlambda_78_116_SIZE,	4

	.set	LSLlambda_78_116_SIZE,	1

	.size Llambda_78_116, .-Llambda_78_116

# LABEL ("Llambda_27_39") / 

Llambda_27_39:

# BEGIN ("Llambda_27_39", 1, 0, [], ["loc"], [{ blab="L732"; elab="L733"; names=[]; subs=[]; }]) / 

	.type lambda_27_39, @function

	.stabs "lambda_27_39:F1",36,0,0,Llambda_27_39

	.stabs "loc:p1",160,0,0,8

	.cfi_startproc

	pushl	%ebp
	.cfi_def_cfa_offset	8

	.cfi_offset 5, -8

	movl	%esp,	%ebp
	.cfi_def_cfa_register	5

	subl	$LLlambda_27_39_SIZE,	%esp
	movl	%esp,	%edi
	movl	$filler,	%esi
	movl	$LSLlambda_27_39_SIZE,	%ecx
	rep movsl	
# SLABEL ("L732") / 

L732:

# LINE (111) / 

	.stabn 68,0,111,0

	.stabn 68,0,111,.L71-Llambda_27_39

.L71:

# LD (Global ("decimal")) / 

	movl	global_decimal,	%ebx
# CLOSURE ("Llambda_79_125", [Arg (0)]) / 

	pushl	%ebx
	pushl	8(%ebp)
	pushl	$Llambda_79_125
	pushl	$3
	call	Bclosure
	addl	$12,	%esp
	movl	%eax,	%ecx
	popl	%ebx
# CALL ("Li__Infix_64", 2, true) / 

	pushl	%ecx
	pushl	%ebx
	call	Li__Infix_64
	addl	$8,	%esp
	movl	%eax,	%ebx
# LABEL ("L734") / 

L734:

# SLABEL ("L733") / 

L733:

# END / 

	movl	%ebx,	%eax
LLlambda_27_39_epilogue:

	movl	%ebp,	%esp
	popl	%ebp
	.cfi_restore	5

	.cfi_def_cfa	4, 4

	ret
	.cfi_endproc

	.set	LLlambda_27_39_SIZE,	0

	.set	LSLlambda_27_39_SIZE,	0

	.size Llambda_27_39, .-Llambda_27_39

# LABEL ("Llambda_79_125") / 

Llambda_79_125:

# BEGIN ("Llambda_79_125", 1, 0, [Arg (0)], ["x"], [{ blab="L737"; elab="L738"; names=[]; subs=[{ blab="L740"; elab="L741"; names=[]; subs=[]; }]; }]) / 

	.type lambda_79_125, @function

	.stabs "lambda_79_125:F1",36,0,0,Llambda_79_125

	.stabs "x:p1",160,0,0,8

	.cfi_startproc

	pushl	%edx
	pushl	%ebp
	.cfi_def_cfa_offset	12

	.cfi_offset 5, -12

	movl	%esp,	%ebp
	.cfi_def_cfa_register	5

	subl	$LLlambda_79_125_SIZE,	%esp
	movl	%esp,	%edi
	movl	$filler,	%esi
	movl	$LSLlambda_79_125_SIZE,	%ecx
	rep movsl	
# SLABEL ("L737") / 

L737:

# SLABEL ("L740") / 

L740:

# CLOSURE ("Llambda_80_127", [Arg (0); Access (0)]) / 

	pushl	4(%edx)
	pushl	12(%ebp)
	pushl	$Llambda_80_127
	pushl	$5
	call	Bclosure
	addl	$16,	%esp
	movl	%eax,	%ebx
	movl	4(%ebp),	%edx
# SLABEL ("L741") / 

L741:

# LABEL ("L739") / 

L739:

# SLABEL ("L738") / 

L738:

# END / 

	movl	%ebx,	%eax
LLlambda_79_125_epilogue:

	movl	%ebp,	%esp
	popl	%ebp
	popl	%edx
	.cfi_restore	5

	.cfi_def_cfa	4, 4

	ret
	.cfi_endproc

	.set	LLlambda_79_125_SIZE,	0

	.set	LSLlambda_79_125_SIZE,	0

	.size Llambda_79_125, .-Llambda_79_125

# LABEL ("Llambda_80_127") / 

Llambda_80_127:

# BEGIN ("Llambda_80_127", 1, 0, [Arg (0); Access (0)], ["a"], [{ blab="L742"; elab="L743"; names=[]; subs=[{ blab="L745"; elab="L746"; names=[]; subs=[]; }]; }]) / 

	.type lambda_80_127, @function

	.stabs "lambda_80_127:F1",36,0,0,Llambda_80_127

	.stabs "a:p1",160,0,0,8

	.cfi_startproc

	pushl	%edx
	pushl	%ebp
	.cfi_def_cfa_offset	12

	.cfi_offset 5, -12

	movl	%esp,	%ebp
	.cfi_def_cfa_register	5

	subl	$LLlambda_80_127_SIZE,	%esp
	movl	%esp,	%edi
	movl	$filler,	%esi
	movl	$LSLlambda_80_127_SIZE,	%ecx
	rep movsl	
# SLABEL ("L742") / 

L742:

# SLABEL ("L745") / 

L745:

# LD (Arg (0)) / 

	movl	12(%ebp),	%ebx
# LD (Access (0)) / 

	movl	4(%edx),	%ecx
# CALL ("LstringInt", 1, false) / 

	pushl	%edx
	pushl	%ebx
	pushl	%ecx
	call	LstringInt
	addl	$4,	%esp
	popl	%ebx
	popl	%edx
	movl	%eax,	%ecx
# SEXP ("Const", 1) / 

	movl	$981060009,	%esi
	pushl	%edx
	pushl	%ebx
	pushl	%esi
	pushl	%ecx
	pushl	$5
	call	Bsexp
	addl	$12,	%esp
	popl	%ebx
	popl	%edx
	movl	%eax,	%ecx
# LD (Access (1)) / 

	movl	8(%edx),	%esi
# CALL ("LassertValue", 3, true) / 

	pushl	%edx
	pushl	%esi
	pushl	%ecx
	pushl	%ebx
	call	LassertValue
	addl	$12,	%esp
	popl	%edx
	movl	%eax,	%ebx
# SLABEL ("L746") / 

L746:

# LABEL ("L744") / 

L744:

# SLABEL ("L743") / 

L743:

# END / 

	movl	%ebx,	%eax
LLlambda_80_127_epilogue:

	movl	%ebp,	%esp
	popl	%ebp
	popl	%edx
	.cfi_restore	5

	.cfi_def_cfa	4, 4

	ret
	.cfi_endproc

	.set	LLlambda_80_127_SIZE,	0

	.set	LSLlambda_80_127_SIZE,	0

	.size Llambda_80_127, .-Llambda_80_127

# LABEL ("Lbinop") / 

Lbinop:

# BEGIN ("Lbinop", 1, 0, [], ["op"], [{ blab="L752"; elab="L753"; names=[]; subs=[{ blab="L755"; elab="L756"; names=[]; subs=[]; }]; }]) / 

	.type binop, @function

	.stabs "binop:F1",36,0,0,Lbinop

	.stabs "op:p1",160,0,0,8

	.cfi_startproc

	pushl	%ebp
	.cfi_def_cfa_offset	8

	.cfi_offset 5, -8

	movl	%esp,	%ebp
	.cfi_def_cfa_register	5

	subl	$LLbinop_SIZE,	%esp
	movl	%esp,	%edi
	movl	$filler,	%esi
	movl	$LSLbinop_SIZE,	%ecx
	rep movsl	
# SLABEL ("L752") / 

L752:

# SLABEL ("L755") / 

L755:

# LINE (101) / 

	.stabn 68,0,101,0

	.stabn 68,0,101,.L72-Lbinop

.L72:

# LD (Global ("pos")) / 

	movl	global_pos,	%ebx
# CLOSURE ("Llambda_81_131", [Arg (0)]) / 

	pushl	%ebx
	pushl	8(%ebp)
	pushl	$Llambda_81_131
	pushl	$3
	call	Bclosure
	addl	$12,	%esp
	movl	%eax,	%ecx
	popl	%ebx
# CALL ("Lseq", 2, false) / 

	pushl	%ecx
	pushl	%ebx
	call	Lseq
	addl	$8,	%esp
	movl	%eax,	%ebx
# CLOSURE ("Llambda_82_131", [Arg (0)]) / 

	pushl	%ebx
	pushl	8(%ebp)
	pushl	$Llambda_82_131
	pushl	$3
	call	Bclosure
	addl	$12,	%esp
	movl	%eax,	%ecx
	popl	%ebx
# CALL (".array", 2, true) / 

	pushl	%ecx
	pushl	%ebx
	pushl	$5
	call	Barray
	addl	$12,	%esp
	movl	%eax,	%ebx
# SLABEL ("L756") / 

L756:

# LABEL ("L754") / 

L754:

# SLABEL ("L753") / 

L753:

# END / 

	movl	%ebx,	%eax
LLbinop_epilogue:

	movl	%ebp,	%esp
	popl	%ebp
	.cfi_restore	5

	.cfi_def_cfa	4, 4

	ret
	.cfi_endproc

	.set	LLbinop_SIZE,	0

	.set	LSLbinop_SIZE,	0

	.size Lbinop, .-Lbinop

# LABEL ("Llambda_82_131") / 

Llambda_82_131:

# BEGIN ("Llambda_82_131", 3, 0, [Arg (0)], ["l"; "loc"; "r"], [{ blab="L761"; elab="L762"; names=[]; subs=[{ blab="L764"; elab="L765"; names=[]; subs=[]; }]; }]) / 

	.type lambda_82_131, @function

	.stabs "lambda_82_131:F1",36,0,0,Llambda_82_131

	.stabs "l:p1",160,0,0,8

	.stabs "loc:p1",160,0,0,12

	.stabs "r:p1",160,0,0,16

	.cfi_startproc

	pushl	%edx
	pushl	%ebp
	.cfi_def_cfa_offset	12

	.cfi_offset 5, -12

	movl	%esp,	%ebp
	.cfi_def_cfa_register	5

	subl	$LLlambda_82_131_SIZE,	%esp
	movl	%esp,	%edi
	movl	$filler,	%esi
	movl	$LSLlambda_82_131_SIZE,	%ecx
	rep movsl	
# SLABEL ("L761") / 

L761:

# SLABEL ("L764") / 

L764:

# LINE (102) / 

	.stabn 68,0,102,0

	.stabn 68,0,102,.L73-Llambda_82_131

.L73:

# CLOSURE ("Llambda_83_133", [Access (0); Arg (0); Arg (2); Arg (1)]) / 

	pushl	16(%ebp)
	pushl	20(%ebp)
	pushl	12(%ebp)
	pushl	4(%edx)
	pushl	$Llambda_83_133
	pushl	$9
	call	Bclosure
	addl	$24,	%esp
	movl	%eax,	%ebx
	movl	4(%ebp),	%edx
# SLABEL ("L765") / 

L765:

# LABEL ("L763") / 

L763:

# SLABEL ("L762") / 

L762:

# END / 

	movl	%ebx,	%eax
LLlambda_82_131_epilogue:

	movl	%ebp,	%esp
	popl	%ebp
	popl	%edx
	.cfi_restore	5

	.cfi_def_cfa	4, 4

	ret
	.cfi_endproc

	.set	LLlambda_82_131_SIZE,	0

	.set	LSLlambda_82_131_SIZE,	0

	.size Llambda_82_131, .-Llambda_82_131

# LABEL ("Llambda_83_133") / 

Llambda_83_133:

# BEGIN ("Llambda_83_133", 1, 0, [Access (0); Arg (0); Arg (2); Arg (1)], ["a"], [{ blab="L766"; elab="L767"; names=[]; subs=[{ blab="L769"; elab="L770"; names=[]; subs=[]; }]; }]) / 

	.type lambda_83_133, @function

	.stabs "lambda_83_133:F1",36,0,0,Llambda_83_133

	.stabs "a:p1",160,0,0,8

	.cfi_startproc

	pushl	%edx
	pushl	%ebp
	.cfi_def_cfa_offset	12

	.cfi_offset 5, -12

	movl	%esp,	%ebp
	.cfi_def_cfa_register	5

	subl	$LLlambda_83_133_SIZE,	%esp
	movl	%esp,	%edi
	movl	$filler,	%esi
	movl	$LSLlambda_83_133_SIZE,	%ecx
	rep movsl	
# SLABEL ("L766") / 

L766:

# SLABEL ("L769") / 

L769:

# LINE (103) / 

	.stabn 68,0,103,0

	.stabn 68,0,103,.L74-Llambda_83_133

.L74:

# LD (Arg (0)) / 

	movl	12(%ebp),	%ebx
# LD (Access (0)) / 

	movl	4(%edx),	%ecx
# LD (Access (1)) / 

	movl	8(%edx),	%esi
# SEXP ("Val", 0) / 

	movl	$393369,	%edi
	pushl	%edx
	pushl	%ebx
	pushl	%ecx
	pushl	%esi
	pushl	%edi
	pushl	$3
	call	Bsexp
	addl	$8,	%esp
	popl	%esi
	popl	%ecx
	popl	%ebx
	popl	%edx
	movl	%eax,	%edi
# CALLC (1, false) / 

	pushl	%edx
	pushl	%ebx
	pushl	%ecx
	pushl	%esi
	pushl	%edi
	movl	%esi,	%edx
	call	*(%esi)
	addl	$4,	%esp
	popl	%esi
	popl	%ecx
	popl	%ebx
	popl	%edx
	movl	%eax,	%esi
# LD (Access (2)) / 

	movl	12(%edx),	%edi
# SEXP ("Val", 0) / 

	movl	$393369,	-4(%ebp)
	pushl	%edx
	pushl	%ebx
	pushl	%ecx
	pushl	%esi
	pushl	%edi
	pushl	-4(%ebp)
	pushl	$3
	call	Bsexp
	addl	$8,	%esp
	popl	%edi
	popl	%esi
	popl	%ecx
	popl	%ebx
	popl	%edx
	movl	%eax,	-4(%ebp)
# CALLC (1, false) / 

	pushl	%edx
	pushl	%ebx
	pushl	%ecx
	pushl	%esi
	pushl	%edi
	pushl	-4(%ebp)
	movl	%edi,	%edx
	call	*(%edi)
	addl	$4,	%esp
	popl	%edi
	popl	%esi
	popl	%ecx
	popl	%ebx
	popl	%edx
	movl	%eax,	%edi
# SEXP ("Binop", 3) / 

	movl	$944359329,	-4(%ebp)
	pushl	%edx
	pushl	%ebx
	pushl	-4(%ebp)
	pushl	%edi
	pushl	%esi
	pushl	%ecx
	pushl	$9
	call	Bsexp
	addl	$20,	%esp
	popl	%ebx
	popl	%edx
	movl	%eax,	%ecx
# LD (Access (3)) / 

	movl	16(%edx),	%esi
# CALL ("LassertValue", 3, true) / 

	pushl	%edx
	pushl	%esi
	pushl	%ecx
	pushl	%ebx
	call	LassertValue
	addl	$12,	%esp
	popl	%edx
	movl	%eax,	%ebx
# SLABEL ("L770") / 

L770:

# LABEL ("L768") / 

L768:

# SLABEL ("L767") / 

L767:

# END / 

	movl	%ebx,	%eax
LLlambda_83_133_epilogue:

	movl	%ebp,	%esp
	popl	%ebp
	popl	%edx
	.cfi_restore	5

	.cfi_def_cfa	4, 4

	ret
	.cfi_endproc

	.set	LLlambda_83_133_SIZE,	4

	.set	LSLlambda_83_133_SIZE,	1

	.size Llambda_83_133, .-Llambda_83_133

# LABEL ("Llambda_81_131") / 

Llambda_81_131:

# BEGIN ("Llambda_81_131", 1, 0, [Arg (0)], ["__tmp24"], [{ blab="L783"; elab="L784"; names=[]; subs=[]; }]) / 

	.type lambda_81_131, @function

	.stabs "lambda_81_131:F1",36,0,0,Llambda_81_131

	.stabs "__tmp24:p1",160,0,0,8

	.cfi_startproc

	pushl	%edx
	pushl	%ebp
	.cfi_def_cfa_offset	12

	.cfi_offset 5, -12

	movl	%esp,	%ebp
	.cfi_def_cfa_register	5

	subl	$LLlambda_81_131_SIZE,	%esp
	movl	%esp,	%edi
	movl	$filler,	%esi
	movl	$LSLlambda_81_131_SIZE,	%ecx
	rep movsl	
# SLABEL ("L783") / 

L783:

# LINE (101) / 

	.stabn 68,0,101,0

	.stabn 68,0,101,.L75-Llambda_81_131

.L75:

# LD (Access (0)) / 

	movl	4(%edx),	%ebx
# CALL ("Ls", 1, false) / 

	pushl	%edx
	pushl	%ebx
	call	Ls
	addl	$4,	%esp
	popl	%edx
	movl	%eax,	%ebx
# CLOSURE ("Llambda_84_136", [Arg (0)]) / 

	pushl	%ebx
	pushl	12(%ebp)
	pushl	$Llambda_84_136
	pushl	$3
	call	Bclosure
	addl	$12,	%esp
	movl	%eax,	%ecx
	popl	%ebx
	movl	4(%ebp),	%edx
# CALL ("Li__Infix_64", 2, true) / 

	pushl	%edx
	pushl	%ecx
	pushl	%ebx
	call	Li__Infix_64
	addl	$8,	%esp
	popl	%edx
	movl	%eax,	%ebx
# LABEL ("L785") / 

L785:

# SLABEL ("L784") / 

L784:

# END / 

	movl	%ebx,	%eax
LLlambda_81_131_epilogue:

	movl	%ebp,	%esp
	popl	%ebp
	popl	%edx
	.cfi_restore	5

	.cfi_def_cfa	4, 4

	ret
	.cfi_endproc

	.set	LLlambda_81_131_SIZE,	0

	.set	LSLlambda_81_131_SIZE,	0

	.size Llambda_81_131, .-Llambda_81_131

# LABEL ("Llambda_84_136") / 

Llambda_84_136:

# BEGIN ("Llambda_84_136", 1, 0, [Arg (0)], ["__tmp25"], [{ blab="L789"; elab="L790"; names=[]; subs=[]; }]) / 

	.type lambda_84_136, @function

	.stabs "lambda_84_136:F1",36,0,0,Llambda_84_136

	.stabs "__tmp25:p1",160,0,0,8

	.cfi_startproc

	pushl	%edx
	pushl	%ebp
	.cfi_def_cfa_offset	12

	.cfi_offset 5, -12

	movl	%esp,	%ebp
	.cfi_def_cfa_register	5

	subl	$LLlambda_84_136_SIZE,	%esp
	movl	%esp,	%edi
	movl	$filler,	%esi
	movl	$LSLlambda_84_136_SIZE,	%ecx
	rep movsl	
# SLABEL ("L789") / 

L789:

# LD (Access (0)) / 

	movl	4(%edx),	%ebx
# LABEL ("L791") / 

L791:

# SLABEL ("L790") / 

L790:

# END / 

	movl	%ebx,	%eax
LLlambda_84_136_epilogue:

	movl	%ebp,	%esp
	popl	%ebp
	popl	%edx
	.cfi_restore	5

	.cfi_def_cfa	4, 4

	ret
	.cfi_endproc

	.set	LLlambda_84_136_SIZE,	0

	.set	LSLlambda_84_136_SIZE,	0

	.size Llambda_84_136, .-Llambda_84_136

# LABEL ("LassertVoid") / 

LassertVoid:

# BEGIN ("LassertVoid", 3, 0, [], ["atr"; "val"; "loc"], [{ blab="L792"; elab="L793"; names=[]; subs=[{ blab="L795"; elab="L796"; names=[]; subs=[{ blab="L817"; elab="L818"; names=[]; subs=[{ blab="L819"; elab="L820"; names=[]; subs=[]; }]; }; { blab="L809"; elab="L810"; names=[]; subs=[{ blab="L811"; elab="L812"; names=[]; subs=[]; }]; }; { blab="L802"; elab="L803"; names=[]; subs=[{ blab="L804"; elab="L805"; names=[]; subs=[]; }]; }]; }]; }]) / 

	.type assertVoid, @function

	.stabs "assertVoid:F1",36,0,0,LassertVoid

	.stabs "atr:p1",160,0,0,8

	.stabs "val:p1",160,0,0,12

	.stabs "loc:p1",160,0,0,16

	.cfi_startproc

	pushl	%ebp
	.cfi_def_cfa_offset	8

	.cfi_offset 5, -8

	movl	%esp,	%ebp
	.cfi_def_cfa_register	5

	subl	$LLassertVoid_SIZE,	%esp
	movl	%esp,	%edi
	movl	$filler,	%esi
	movl	$LSLassertVoid_SIZE,	%ecx
	rep movsl	
# SLABEL ("L792") / 

L792:

# SLABEL ("L795") / 

L795:

# LINE (90) / 

	.stabn 68,0,90,0

	.stabn 68,0,90,.L76-LassertVoid

.L76:

# LD (Arg (0)) / 

	movl	8(%ebp),	%ebx
# DUP / 

	movl	%ebx,	%ecx
# SLABEL ("L802") / 

L802:

# DUP / 

	movl	%ecx,	%esi
# TAG ("Void", 0) / 

	movl	$25289865,	%edi
	movl	$1,	-4(%ebp)
	pushl	%ebx
	pushl	%ecx
	pushl	-4(%ebp)
	pushl	%edi
	pushl	%esi
	call	Btag
	addl	$12,	%esp
	popl	%ecx
	popl	%ebx
	movl	%eax,	%esi
# CJMP ("nz", "L800") / 

	sarl	%esi
	cmpl	$0,	%esi
	jnz	L800
# LABEL ("L801") / 

L801:

# DROP / 

# JMP ("L799") / 

	jmp	L799
# LABEL ("L800") / 

L800:

# DROP / 

# DROP / 

# SLABEL ("L804") / 

L804:

# LINE (91) / 

	.stabn 68,0,91,.L77-LassertVoid

.L77:

# LD (Arg (1)) / 

	movl	12(%ebp),	%ebx
# SLABEL ("L805") / 

L805:

# JMP ("L794") / 

	jmp	L794
# SLABEL ("L803") / 

L803:

# SLABEL ("L809") / 

L809:

# LABEL ("L799") / 

L799:

# DUP / 

	movl	%ebx,	%ecx
# DUP / 

	movl	%ecx,	%esi
# TAG ("Val", 0) / 

	movl	$393369,	%edi
	movl	$1,	-4(%ebp)
	pushl	%ebx
	pushl	%ecx
	pushl	-4(%ebp)
	pushl	%edi
	pushl	%esi
	call	Btag
	addl	$12,	%esp
	popl	%ecx
	popl	%ebx
	movl	%eax,	%esi
# CJMP ("nz", "L807") / 

	sarl	%esi
	cmpl	$0,	%esi
	jnz	L807
# LABEL ("L808") / 

L808:

# DROP / 

# JMP ("L806") / 

	jmp	L806
# LABEL ("L807") / 

L807:

# DROP / 

# DROP / 

# SLABEL ("L811") / 

L811:

# LINE (92) / 

	.stabn 68,0,92,.L78-LassertVoid

.L78:

# STRING ("value expected") / 

	movl	$string_18,	%ebx
	pushl	%ebx
	call	Bstring
	addl	$4,	%esp
	movl	%eax,	%ebx
# LD (Arg (2)) / 

	movl	16(%ebp),	%ecx
# CALL ("Lerror", 2, true) / 

	pushl	%ecx
	pushl	%ebx
	call	Lerror
	addl	$8,	%esp
	movl	%eax,	%ebx
# SLABEL ("L812") / 

L812:

# JMP ("L794") / 

	jmp	L794
# SLABEL ("L810") / 

L810:

# SLABEL ("L817") / 

L817:

# LABEL ("L806") / 

L806:

# DUP / 

	movl	%ebx,	%ecx
# DUP / 

	movl	%ecx,	%esi
# TAG ("Ref", 0) / 

	movl	$361101,	%edi
	movl	$1,	-4(%ebp)
	pushl	%ebx
	pushl	%ecx
	pushl	-4(%ebp)
	pushl	%edi
	pushl	%esi
	call	Btag
	addl	$12,	%esp
	popl	%ecx
	popl	%ebx
	movl	%eax,	%esi
# CJMP ("nz", "L815") / 

	sarl	%esi
	cmpl	$0,	%esi
	jnz	L815
# LABEL ("L816") / 

L816:

# DROP / 

# JMP ("L797") / 

	jmp	L797
# LABEL ("L815") / 

L815:

# DROP / 

# DROP / 

# SLABEL ("L819") / 

L819:

# LINE (93) / 

	.stabn 68,0,93,.L79-LassertVoid

.L79:

# STRING ("reference expected") / 

	movl	$string_19,	%ebx
	pushl	%ebx
	call	Bstring
	addl	$4,	%esp
	movl	%eax,	%ebx
# LD (Arg (2)) / 

	movl	16(%ebp),	%ecx
# CALL ("Lerror", 2, true) / 

	pushl	%ecx
	pushl	%ebx
	call	Lerror
	addl	$8,	%esp
	movl	%eax,	%ebx
# SLABEL ("L820") / 

L820:

# SLABEL ("L818") / 

L818:

# JMP ("L794") / 

	jmp	L794
# LABEL ("L797") / 

L797:

# FAIL ((90, 7), true) / 

	pushl	$15
	pushl	$181
	pushl	$string_20
	pushl	%ebx
	call	Bmatch_failure
	addl	$12,	%esp
# JMP ("L794") / 

	jmp	L794
# SLABEL ("L796") / 

L796:

# LABEL ("L794") / 

L794:

# SLABEL ("L793") / 

L793:

# END / 

	movl	%ebx,	%eax
LLassertVoid_epilogue:

	movl	%ebp,	%esp
	popl	%ebp
	.cfi_restore	5

	.cfi_def_cfa	4, 4

	ret
	.cfi_endproc

	.set	LLassertVoid_SIZE,	4

	.set	LSLassertVoid_SIZE,	1

	.size LassertVoid, .-LassertVoid

# LABEL ("LassertValue") / 

LassertValue:

# BEGIN ("LassertValue", 3, 0, [], ["atr"; "val"; "loc"], [{ blab="L823"; elab="L824"; names=[]; subs=[{ blab="L826"; elab="L827"; names=[]; subs=[{ blab="L847"; elab="L848"; names=[]; subs=[{ blab="L849"; elab="L850"; names=[]; subs=[]; }]; }; { blab="L842"; elab="L843"; names=[]; subs=[{ blab="L844"; elab="L845"; names=[]; subs=[]; }]; }; { blab="L833"; elab="L834"; names=[]; subs=[{ blab="L835"; elab="L836"; names=[]; subs=[]; }]; }]; }]; }]) / 

	.type assertValue, @function

	.stabs "assertValue:F1",36,0,0,LassertValue

	.stabs "atr:p1",160,0,0,8

	.stabs "val:p1",160,0,0,12

	.stabs "loc:p1",160,0,0,16

	.cfi_startproc

	pushl	%ebp
	.cfi_def_cfa_offset	8

	.cfi_offset 5, -8

	movl	%esp,	%ebp
	.cfi_def_cfa_register	5

	subl	$LLassertValue_SIZE,	%esp
	movl	%esp,	%edi
	movl	$filler,	%esi
	movl	$LSLassertValue_SIZE,	%ecx
	rep movsl	
# SLABEL ("L823") / 

L823:

# SLABEL ("L826") / 

L826:

# LINE (82) / 

	.stabn 68,0,82,0

	.stabn 68,0,82,.L80-LassertValue

.L80:

# LD (Arg (0)) / 

	movl	8(%ebp),	%ebx
# DUP / 

	movl	%ebx,	%ecx
# SLABEL ("L833") / 

L833:

# DUP / 

	movl	%ecx,	%esi
# TAG ("Ref", 0) / 

	movl	$361101,	%edi
	movl	$1,	-4(%ebp)
	pushl	%ebx
	pushl	%ecx
	pushl	-4(%ebp)
	pushl	%edi
	pushl	%esi
	call	Btag
	addl	$12,	%esp
	popl	%ecx
	popl	%ebx
	movl	%eax,	%esi
# CJMP ("nz", "L831") / 

	sarl	%esi
	cmpl	$0,	%esi
	jnz	L831
# LABEL ("L832") / 

L832:

# DROP / 

# JMP ("L830") / 

	jmp	L830
# LABEL ("L831") / 

L831:

# DROP / 

# DROP / 

# SLABEL ("L835") / 

L835:

# LINE (83) / 

	.stabn 68,0,83,.L81-LassertValue

.L81:

# STRING ("reference expected") / 

	movl	$string_19,	%ebx
	pushl	%ebx
	call	Bstring
	addl	$4,	%esp
	movl	%eax,	%ebx
# LD (Arg (2)) / 

	movl	16(%ebp),	%ecx
# CALL ("Lerror", 2, true) / 

	pushl	%ecx
	pushl	%ebx
	call	Lerror
	addl	$8,	%esp
	movl	%eax,	%ebx
# SLABEL ("L836") / 

L836:

# JMP ("L825") / 

	jmp	L825
# SLABEL ("L834") / 

L834:

# SLABEL ("L842") / 

L842:

# LABEL ("L830") / 

L830:

# DUP / 

	movl	%ebx,	%ecx
# DUP / 

	movl	%ecx,	%esi
# TAG ("Void", 0) / 

	movl	$25289865,	%edi
	movl	$1,	-4(%ebp)
	pushl	%ebx
	pushl	%ecx
	pushl	-4(%ebp)
	pushl	%edi
	pushl	%esi
	call	Btag
	addl	$12,	%esp
	popl	%ecx
	popl	%ebx
	movl	%eax,	%esi
# CJMP ("nz", "L840") / 

	sarl	%esi
	cmpl	$0,	%esi
	jnz	L840
# LABEL ("L841") / 

L841:

# DROP / 

# JMP ("L839") / 

	jmp	L839
# LABEL ("L840") / 

L840:

# DROP / 

# DROP / 

# SLABEL ("L844") / 

L844:

# LINE (84) / 

	.stabn 68,0,84,.L82-LassertValue

.L82:

# LD (Arg (1)) / 

	movl	12(%ebp),	%ebx
# SEXP ("Ignore", 1) / 

	movl	$1178191781,	%ecx
	pushl	%ecx
	pushl	%ebx
	pushl	$5
	call	Bsexp
	addl	$12,	%esp
	movl	%eax,	%ebx
# SLABEL ("L845") / 

L845:

# JMP ("L825") / 

	jmp	L825
# SLABEL ("L843") / 

L843:

# SLABEL ("L847") / 

L847:

# LABEL ("L839") / 

L839:

# DUP / 

	movl	%ebx,	%ecx
# DROP / 

# DROP / 

# SLABEL ("L849") / 

L849:

# LINE (85) / 

	.stabn 68,0,85,.L83-LassertValue

.L83:

# LD (Arg (1)) / 

	movl	12(%ebp),	%ebx
# SLABEL ("L850") / 

L850:

# SLABEL ("L848") / 

L848:

# JMP ("L825") / 

	jmp	L825
# SLABEL ("L827") / 

L827:

# LABEL ("L825") / 

L825:

# SLABEL ("L824") / 

L824:

# END / 

	movl	%ebx,	%eax
LLassertValue_epilogue:

	movl	%ebp,	%esp
	popl	%ebp
	.cfi_restore	5

	.cfi_def_cfa	4, 4

	ret
	.cfi_endproc

	.set	LLassertValue_SIZE,	4

	.set	LSLassertValue_SIZE,	1

	.size LassertValue, .-LassertValue

# LABEL ("Lerror") / 

Lerror:

# BEGIN ("Lerror", 2, 0, [], ["msg"; "loc"], [{ blab="L851"; elab="L852"; names=[]; subs=[{ blab="L854"; elab="L855"; names=[]; subs=[]; }]; }]) / 

	.type error, @function

	.stabs "error:F1",36,0,0,Lerror

	.stabs "msg:p1",160,0,0,8

	.stabs "loc:p1",160,0,0,12

	.cfi_startproc

	pushl	%ebp
	.cfi_def_cfa_offset	8

	.cfi_offset 5, -8

	movl	%esp,	%ebp
	.cfi_def_cfa_register	5

	subl	$LLerror_SIZE,	%esp
	movl	%esp,	%edi
	movl	$filler,	%esi
	movl	$LSLerror_SIZE,	%ecx
	rep movsl	
# SLABEL ("L851") / 

L851:

# SLABEL ("L854") / 

L854:

# LINE (69) / 

	.stabn 68,0,69,0

	.stabn 68,0,69,.L84-Lerror

.L84:

# STRING ("%s at %d:%d\\n") / 

	movl	$string_21,	%ebx
	pushl	%ebx
	call	Bstring
	addl	$4,	%esp
	movl	%eax,	%ebx
# LINE (70) / 

	.stabn 68,0,70,.L85-Lerror

.L85:

# LD (Arg (0)) / 

	movl	8(%ebp),	%ecx
# LD (Arg (1)) / 

	movl	12(%ebp),	%esi
# CALL ("Lfst", 1, false) / 

	pushl	%ebx
	pushl	%ecx
	pushl	%esi
	call	Lfst
	addl	$4,	%esp
	popl	%ecx
	popl	%ebx
	movl	%eax,	%esi
# LD (Arg (1)) / 

	movl	12(%ebp),	%edi
# CALL ("Lsnd", 1, false) / 

	pushl	%ebx
	pushl	%ecx
	pushl	%esi
	pushl	%edi
	call	Lsnd
	addl	$4,	%esp
	popl	%esi
	popl	%ecx
	popl	%ebx
	movl	%eax,	%edi
# CALL ("Lfailure", 4, true) / 

	pushl	%edi
	pushl	%esi
	pushl	%ecx
	pushl	%ebx
	call	Lfailure
	addl	$16,	%esp
	movl	%eax,	%ebx
# SLABEL ("L855") / 

L855:

# LABEL ("L853") / 

L853:

# SLABEL ("L852") / 

L852:

# END / 

	movl	%ebx,	%eax
LLerror_epilogue:

	movl	%ebp,	%esp
	popl	%ebp
	.cfi_restore	5

	.cfi_def_cfa	4, 4

	ret
	.cfi_endproc

	.set	LLerror_SIZE,	0

	.set	LSLerror_SIZE,	0

	.size Lerror, .-Lerror

# LABEL ("Linbr") / 

Linbr:

# BEGIN ("Linbr", 3, 0, [], ["l"; "p"; "r"], [{ blab="L862"; elab="L863"; names=[]; subs=[{ blab="L865"; elab="L866"; names=[]; subs=[]; }]; }]) / 

	.type inbr, @function

	.stabs "inbr:F1",36,0,0,Linbr

	.stabs "l:p1",160,0,0,8

	.stabs "p:p1",160,0,0,12

	.stabs "r:p1",160,0,0,16

	.cfi_startproc

	pushl	%ebp
	.cfi_def_cfa_offset	8

	.cfi_offset 5, -8

	movl	%esp,	%ebp
	.cfi_def_cfa_register	5

	subl	$LLinbr_SIZE,	%esp
	movl	%esp,	%edi
	movl	$filler,	%esi
	movl	$LSLinbr_SIZE,	%ecx
	rep movsl	
# SLABEL ("L862") / 

L862:

# SLABEL ("L865") / 

L865:

# LINE (12) / 

	.stabn 68,0,12,0

	.stabn 68,0,12,.L86-Linbr

.L86:

# LD (Arg (0)) / 

	movl	8(%ebp),	%ebx
# CLOSURE ("Llambda_85_157", [Arg (1); Arg (2)]) / 

	pushl	%ebx
	pushl	16(%ebp)
	pushl	12(%ebp)
	pushl	$Llambda_85_157
	pushl	$5
	call	Bclosure
	addl	$16,	%esp
	movl	%eax,	%ecx
	popl	%ebx
# CALL ("Lseq", 2, true) / 

	pushl	%ecx
	pushl	%ebx
	call	Lseq
	addl	$8,	%esp
	movl	%eax,	%ebx
# SLABEL ("L866") / 

L866:

# LABEL ("L864") / 

L864:

# SLABEL ("L863") / 

L863:

# END / 

	movl	%ebx,	%eax
LLinbr_epilogue:

	movl	%ebp,	%esp
	popl	%ebp
	.cfi_restore	5

	.cfi_def_cfa	4, 4

	ret
	.cfi_endproc

	.set	LLinbr_SIZE,	0

	.set	LSLinbr_SIZE,	0

	.size Linbr, .-Linbr

# LABEL ("Llambda_85_157") / 

Llambda_85_157:

# BEGIN ("Llambda_85_157", 1, 0, [Arg (1); Arg (2)], ["__tmp20"], [{ blab="L869"; elab="L870"; names=[]; subs=[]; }]) / 

	.type lambda_85_157, @function

	.stabs "lambda_85_157:F1",36,0,0,Llambda_85_157

	.stabs "__tmp20:p1",160,0,0,8

	.cfi_startproc

	pushl	%edx
	pushl	%ebp
	.cfi_def_cfa_offset	12

	.cfi_offset 5, -12

	movl	%esp,	%ebp
	.cfi_def_cfa_register	5

	subl	$LLlambda_85_157_SIZE,	%esp
	movl	%esp,	%edi
	movl	$filler,	%esi
	movl	$LSLlambda_85_157_SIZE,	%ecx
	rep movsl	
# SLABEL ("L869") / 

L869:

# LD (Access (0)) / 

	movl	4(%edx),	%ebx
# CLOSURE ("Llambda_86_158", [Access (1)]) / 

	pushl	%ebx
	pushl	8(%edx)
	pushl	$Llambda_86_158
	pushl	$3
	call	Bclosure
	addl	$12,	%esp
	movl	%eax,	%ecx
	popl	%ebx
	movl	4(%ebp),	%edx
# CALL ("Lseq", 2, true) / 

	pushl	%edx
	pushl	%ecx
	pushl	%ebx
	call	Lseq
	addl	$8,	%esp
	popl	%edx
	movl	%eax,	%ebx
# LABEL ("L871") / 

L871:

# SLABEL ("L870") / 

L870:

# END / 

	movl	%ebx,	%eax
LLlambda_85_157_epilogue:

	movl	%ebp,	%esp
	popl	%ebp
	popl	%edx
	.cfi_restore	5

	.cfi_def_cfa	4, 4

	ret
	.cfi_endproc

	.set	LLlambda_85_157_SIZE,	0

	.set	LSLlambda_85_157_SIZE,	0

	.size Llambda_85_157, .-Llambda_85_157

# LABEL ("Llambda_86_158") / 

Llambda_86_158:

# BEGIN ("Llambda_86_158", 1, 0, [Access (1)], ["__tmp18"], [{ blab="L874"; elab="L875"; names=[]; subs=[]; }]) / 

	.type lambda_86_158, @function

	.stabs "lambda_86_158:F1",36,0,0,Llambda_86_158

	.stabs "__tmp18:p1",160,0,0,8

	.cfi_startproc

	pushl	%edx
	pushl	%ebp
	.cfi_def_cfa_offset	12

	.cfi_offset 5, -12

	movl	%esp,	%ebp
	.cfi_def_cfa_register	5

	subl	$LLlambda_86_158_SIZE,	%esp
	movl	%esp,	%edi
	movl	$filler,	%esi
	movl	$LSLlambda_86_158_SIZE,	%ecx
	rep movsl	
# SLABEL ("L874") / 

L874:

# LD (Access (0)) / 

	movl	4(%edx),	%ebx
# CLOSURE ("Llambda_87_159", [Arg (0)]) / 

	pushl	%ebx
	pushl	12(%ebp)
	pushl	$Llambda_87_159
	pushl	$3
	call	Bclosure
	addl	$12,	%esp
	movl	%eax,	%ecx
	popl	%ebx
	movl	4(%ebp),	%edx
# CALL ("Li__Infix_64", 2, true) / 

	pushl	%edx
	pushl	%ecx
	pushl	%ebx
	call	Li__Infix_64
	addl	$8,	%esp
	popl	%edx
	movl	%eax,	%ebx
# LABEL ("L876") / 

L876:

# SLABEL ("L875") / 

L875:

# END / 

	movl	%ebx,	%eax
LLlambda_86_158_epilogue:

	movl	%ebp,	%esp
	popl	%ebp
	popl	%edx
	.cfi_restore	5

	.cfi_def_cfa	4, 4

	ret
	.cfi_endproc

	.set	LLlambda_86_158_SIZE,	0

	.set	LSLlambda_86_158_SIZE,	0

	.size Llambda_86_158, .-Llambda_86_158

# LABEL ("Llambda_87_159") / 

Llambda_87_159:

# BEGIN ("Llambda_87_159", 1, 0, [Arg (0)], ["__tmp19"], [{ blab="L879"; elab="L880"; names=[]; subs=[]; }]) / 

	.type lambda_87_159, @function

	.stabs "lambda_87_159:F1",36,0,0,Llambda_87_159

	.stabs "__tmp19:p1",160,0,0,8

	.cfi_startproc

	pushl	%edx
	pushl	%ebp
	.cfi_def_cfa_offset	12

	.cfi_offset 5, -12

	movl	%esp,	%ebp
	.cfi_def_cfa_register	5

	subl	$LLlambda_87_159_SIZE,	%esp
	movl	%esp,	%edi
	movl	$filler,	%esi
	movl	$LSLlambda_87_159_SIZE,	%ecx
	rep movsl	
# SLABEL ("L879") / 

L879:

# LD (Access (0)) / 

	movl	4(%edx),	%ebx
# LABEL ("L881") / 

L881:

# SLABEL ("L880") / 

L880:

# END / 

	movl	%ebx,	%eax
LLlambda_87_159_epilogue:

	movl	%ebp,	%esp
	popl	%ebp
	popl	%edx
	.cfi_restore	5

	.cfi_def_cfa	4, 4

	ret
	.cfi_endproc

	.set	LLlambda_87_159_SIZE,	0

	.set	LSLlambda_87_159_SIZE,	0

	.size Llambda_87_159, .-Llambda_87_159

