	.file "/compilers-2020/src/Stmt.lama"

	.stabs "/compilers-2020/src/Stmt.lama",100,0,0,.Ltext

	.globl	LevalStmt

	.globl	initStmt

	.data

string_0:	.string	"Stmt.lama"

_init:	.int 0

	.section custom_data,"aw",@progbits

filler:	.fill	8, 4, 1

	.text

.Ltext:

	.stabs "data:t1=r1;0;4294967295;",128,0,0,0

# PUBLIC ("initStmt") / 

# PUBLIC ("LevalStmt") / 

# EXTERN ("LgetOutput") / 

# EXTERN ("LreadWorld") / 

# EXTERN ("LwriteWorld") / 

# EXTERN ("LcreateWorld") / 

# EXTERN ("LevalExpr") / 

# EXTERN ("Lparse_bin_operation") / 

# EXTERN ("Li__Infix_6045") / 

# EXTERN ("LemptyState") / 

# EXTERN ("Lfilter") / 

# EXTERN ("Lremove") / 

# EXTERN ("Lunzip") / 

# EXTERN ("Lzip") / 

# EXTERN ("LdeepFlatten") / 

# EXTERN ("Lflatten") / 

# EXTERN ("Lfind") / 

# EXTERN ("Lassoc") / 

# EXTERN ("Lreverse") / 

# EXTERN ("Li__Infix_434343") / 

# EXTERN ("Lmap") / 

# EXTERN ("Liter") / 

# EXTERN ("Lfoldr") / 

# EXTERN ("Lfoldl") / 

# EXTERN ("Lsize") / 

# EXTERN ("Lsingleton") / 

# EXTERN ("LtagHash") / 

# EXTERN ("LflatCompare") / 

# EXTERN ("LcompareTags") / 

# EXTERN ("LkindOf") / 

# EXTERN ("Ltime") / 

# EXTERN ("Lrandom") / 

# EXTERN ("LdisableGC") / 

# EXTERN ("LenableGC") / 

# EXTERN ("Ls__Infix_37") / 

# EXTERN ("Ls__Infix_47") / 

# EXTERN ("Ls__Infix_42") / 

# EXTERN ("Ls__Infix_45") / 

# EXTERN ("Ls__Infix_43") / 

# EXTERN ("Ls__Infix_62") / 

# EXTERN ("Ls__Infix_6261") / 

# EXTERN ("Ls__Infix_60") / 

# EXTERN ("Ls__Infix_6061") / 

# EXTERN ("Ls__Infix_3361") / 

# EXTERN ("Ls__Infix_6161") / 

# EXTERN ("Ls__Infix_3838") / 

# EXTERN ("Ls__Infix_3333") / 

# EXTERN ("Ls__Infix_58") / 

# EXTERN ("Li__Infix_4343") / 

# EXTERN ("Lcompare") / 

# EXTERN ("Lwrite") / 

# EXTERN ("Lread") / 

# EXTERN ("Lfailure") / 

# EXTERN ("Lfwrite") / 

# EXTERN ("Lfread") / 

# EXTERN ("Lfclose") / 

# EXTERN ("Lfopen") / 

# EXTERN ("Lfprintf") / 

# EXTERN ("Lprintf") / 

# EXTERN ("LmakeString") / 

# EXTERN ("Lsprintf") / 

# EXTERN ("LregexpMatch") / 

# EXTERN ("Lregexp") / 

# EXTERN ("Lsubstring") / 

# EXTERN ("LmatchSubString") / 

# EXTERN ("Lstringcat") / 

# EXTERN ("LreadLine") / 

# EXTERN ("Ltl") / 

# EXTERN ("Lhd") / 

# EXTERN ("Lsnd") / 

# EXTERN ("Lfst") / 

# EXTERN ("Lhash") / 

# EXTERN ("Lclone") / 

# EXTERN ("LmakeArray") / 

# EXTERN ("LstringInt") / 

# EXTERN ("global_sysargs") / 

# EXTERN ("Lsystem") / 

# EXTERN ("LgetEnv") / 

# LABEL ("initStmt") / 

initStmt:

# BEGIN ("initStmt", 0, 0, [], [], []) / 

	.type initStmt, @function

	.stabs "initStmt:F1",36,0,0,initStmt

	.cfi_startproc

	movl	_init,	%eax
	test	%eax,	%eax
	jz	_continue
	ret
_continue:

	movl	$1,	_init
	pushl	%ebp
	.cfi_def_cfa_offset	8

	.cfi_offset 5, -8

	movl	%esp,	%ebp
	.cfi_def_cfa_register	5

	subl	$LinitStmt_SIZE,	%esp
	movl	%esp,	%edi
	movl	$filler,	%esi
	movl	$LSinitStmt_SIZE,	%ecx
	rep movsl	
	call	initList
	call	initState
	call	initExpr
	call	initWorld
# SLABEL ("L1") / 

L1:

# CONST (0) / 

	movl	$1,	%ebx
# SLABEL ("L2") / 

L2:

# END / 

	movl	%ebx,	%eax
LinitStmt_epilogue:

	movl	%ebp,	%esp
	popl	%ebp
	.cfi_restore	5

	.cfi_def_cfa	4, 4

	ret
	.cfi_endproc

	.set	LinitStmt_SIZE,	0

	.set	LSinitStmt_SIZE,	0

	.size initStmt, .-initStmt

# LABEL ("LevalStmt") / 

LevalStmt:

# BEGIN ("LevalStmt", 2, 0, [], ["input"; "stmt"], [{ blab="L4"; elab="L5"; names=[]; subs=[{ blab="L7"; elab="L8"; names=[]; subs=[]; }]; }]) / 

	.type evalStmt, @function

	.stabs "evalStmt:F1",36,0,0,LevalStmt

	.stabs "input:p1",160,0,0,8

	.stabs "stmt:p1",160,0,0,12

	.cfi_startproc

	pushl	%ebp
	.cfi_def_cfa_offset	8

	.cfi_offset 5, -8

	movl	%esp,	%ebp
	.cfi_def_cfa_register	5

	subl	$LLevalStmt_SIZE,	%esp
	movl	%esp,	%edi
	movl	$filler,	%esi
	movl	$LSLevalStmt_SIZE,	%ecx
	rep movsl	
# SLABEL ("L4") / 

L4:

# SLABEL ("L7") / 

L7:

# LINE (49) / 

	.stabn 68,0,49,0

	.stabn 68,0,49,.L0-LevalStmt

.L0:

# LINE (50) / 

	.stabn 68,0,50,.L1-LevalStmt

.L1:

# CLOSURE ("LemptyState", []) / 

	pushl	$LemptyState
	pushl	$1
	call	Bclosure
	addl	$8,	%esp
	movl	%eax,	%ebx
# LD (Arg (0)) / 

	movl	8(%ebp),	%ecx
# CALL ("LcreateWorld", 1, false) / 

	pushl	%ebx
	pushl	%ecx
	call	LcreateWorld
	addl	$4,	%esp
	popl	%ebx
	movl	%eax,	%ecx
# CALL (".array", 2, false) / 

	pushl	%ecx
	pushl	%ebx
	pushl	$5
	call	Barray
	addl	$12,	%esp
	movl	%eax,	%ebx
# LD (Arg (1)) / 

	movl	12(%ebp),	%ecx
# CALL ("Leval", 2, false) / 

	pushl	%ecx
	pushl	%ebx
	call	Leval
	addl	$8,	%esp
	movl	%eax,	%ebx
# CALL ("Lsnd", 1, false) / 

	pushl	%ebx
	call	Lsnd
	addl	$4,	%esp
	movl	%eax,	%ebx
# CALL ("LgetOutput", 1, true) / 

	pushl	%ebx
	call	LgetOutput
	addl	$4,	%esp
	movl	%eax,	%ebx
# SLABEL ("L8") / 

L8:

# LABEL ("L6") / 

L6:

# SLABEL ("L5") / 

L5:

# END / 

	movl	%ebx,	%eax
LLevalStmt_epilogue:

	movl	%ebp,	%esp
	popl	%ebp
	.cfi_restore	5

	.cfi_def_cfa	4, 4

	ret
	.cfi_endproc

	.set	LLevalStmt_SIZE,	0

	.set	LSLevalStmt_SIZE,	0

	.size LevalStmt, .-LevalStmt

# LABEL ("Leval") / 

Leval:

# BEGIN ("Leval", 2, 7, [], ["condition"; "statement"], [{ blab="L16"; elab="L17"; names=[]; subs=[{ blab="L19"; elab="L20"; names=[]; subs=[{ blab="L27"; elab="L28"; names=[("state", 2); ("in", 1); ("out", 0)]; subs=[{ blab="L29"; elab="L30"; names=[]; subs=[{ blab="L158"; elab="L159"; names=[("s1", 4); ("elem", 3)]; subs=[{ blab="L160"; elab="L161"; names=[]; subs=[{ blab="L168"; elab="L169"; names=[("condition", 6); ("state", 5)]; subs=[{ blab="L170"; elab="L171"; names=[]; subs=[{ blab="L185"; elab="L186"; names=[]; subs=[{ blab="L187"; elab="L188"; names=[]; subs=[]; }]; }; { blab="L177"; elab="L178"; names=[]; subs=[{ blab="L179"; elab="L180"; names=[]; subs=[]; }]; }]; }]; }]; }]; }; { blab="L133"; elab="L134"; names=[("expr", 4); ("s", 3)]; subs=[{ blab="L135"; elab="L136"; names=[]; subs=[{ blab="L146"; elab="L147"; names=[]; subs=[{ blab="L148"; elab="L149"; names=[]; subs=[]; }]; }; { blab="L142"; elab="L143"; names=[]; subs=[{ blab="L144"; elab="L145"; names=[]; subs=[]; }]; }]; }]; }; { blab="L109"; elab="L110"; names=[("elem", 5); ("s1", 4); ("s2", 3)]; subs=[{ blab="L111"; elab="L112"; names=[]; subs=[{ blab="L124"; elab="L125"; names=[]; subs=[{ blab="L126"; elab="L127"; names=[]; subs=[]; }]; }; { blab="L118"; elab="L119"; names=[]; subs=[{ blab="L120"; elab="L121"; names=[]; subs=[]; }]; }]; }]; }; { blab="L98"; elab="L99"; names=[("s1", 4); ("s2", 3)]; subs=[{ blab="L100"; elab="L101"; names=[]; subs=[]; }]; }; { blab="L81"; elab="L82"; names=[("elem", 4); ("e", 3)]; subs=[{ blab="L83"; elab="L84"; names=[]; subs=[]; }]; }; { blab="L66"; elab="L67"; names=[("elem", 3)]; subs=[{ blab="L68"; elab="L69"; names=[]; subs=[]; }]; }; { blab="L43"; elab="L44"; names=[("elem", 3)]; subs=[{ blab="L45"; elab="L46"; names=[]; subs=[{ blab="L51"; elab="L52"; names=[("el", 5); ("inn", 4)]; subs=[{ blab="L53"; elab="L54"; names=[]; subs=[]; }]; }]; }]; }; { blab="L36"; elab="L37"; names=[]; subs=[{ blab="L38"; elab="L39"; names=[]; subs=[]; }]; }]; }]; }]; }]; }]) / 

	.type eval, @function

	.stabs "eval:F1",36,0,0,Leval

	.stabs "condition:p1",160,0,0,8

	.stabs "statement:p1",160,0,0,12

	.stabs "state:1",128,0,0,-12

	.stabs "in:1",128,0,0,-8

	.stabs "out:1",128,0,0,-4

	.stabn 192,0,0,L27-Leval

	.stabs "s1:1",128,0,0,-20

	.stabs "elem:1",128,0,0,-16

	.stabn 192,0,0,L158-Leval

	.stabs "condition:1",128,0,0,-28

	.stabs "state:1",128,0,0,-24

	.stabn 192,0,0,L168-Leval

	.stabn 224,0,0,L169-Leval

	.stabn 224,0,0,L159-Leval

	.stabs "expr:1",128,0,0,-20

	.stabs "s:1",128,0,0,-16

	.stabn 192,0,0,L133-Leval

	.stabn 224,0,0,L134-Leval

	.stabs "elem:1",128,0,0,-24

	.stabs "s1:1",128,0,0,-20

	.stabs "s2:1",128,0,0,-16

	.stabn 192,0,0,L109-Leval

	.stabn 224,0,0,L110-Leval

	.stabs "s1:1",128,0,0,-20

	.stabs "s2:1",128,0,0,-16

	.stabn 192,0,0,L98-Leval

	.stabn 224,0,0,L99-Leval

	.stabs "elem:1",128,0,0,-20

	.stabs "e:1",128,0,0,-16

	.stabn 192,0,0,L81-Leval

	.stabn 224,0,0,L82-Leval

	.stabs "elem:1",128,0,0,-16

	.stabn 192,0,0,L66-Leval

	.stabn 224,0,0,L67-Leval

	.stabs "elem:1",128,0,0,-16

	.stabn 192,0,0,L43-Leval

	.stabs "el:1",128,0,0,-24

	.stabs "inn:1",128,0,0,-20

	.stabn 192,0,0,L51-Leval

	.stabn 224,0,0,L52-Leval

	.stabn 224,0,0,L44-Leval

	.stabn 224,0,0,L28-Leval

	.cfi_startproc

	pushl	%ebp
	.cfi_def_cfa_offset	8

	.cfi_offset 5, -8

	movl	%esp,	%ebp
	.cfi_def_cfa_register	5

	subl	$LLeval_SIZE,	%esp
	movl	%esp,	%edi
	movl	$filler,	%esi
	movl	$LSLeval_SIZE,	%ecx
	rep movsl	
# SLABEL ("L16") / 

L16:

# SLABEL ("L19") / 

L19:

# LINE (22) / 

	.stabn 68,0,22,0

	.stabn 68,0,22,.L2-Leval

.L2:

# LD (Arg (0)) / 

	movl	8(%ebp),	%ebx
# DUP / 

	movl	%ebx,	%ecx
# SLABEL ("L27") / 

L27:

# DUP / 

	movl	%ecx,	%esi
# ARRAY (2) / 

	movl	$5,	%edi
	pushl	%ebx
	pushl	%ecx
	pushl	%edi
	pushl	%esi
	call	Barray_patt
	addl	$8,	%esp
	popl	%ecx
	popl	%ebx
	movl	%eax,	%esi
# CJMP ("nz", "L23") / 

	sarl	%esi
	cmpl	$0,	%esi
	jnz	L23
# LABEL ("L24") / 

L24:

# DROP / 

# JMP ("L21") / 

	jmp	L21
# LABEL ("L23") / 

L23:

# DUP / 

	movl	%ecx,	%esi
# CONST (0) / 

	movl	$1,	%edi
# CALL (".elem", 2, false) / 

	pushl	%ebx
	pushl	%ecx
	pushl	%edi
	pushl	%esi
	call	Belem
	addl	$8,	%esp
	popl	%ecx
	popl	%ebx
	movl	%eax,	%esi
# DROP / 

# DUP / 

	movl	%ecx,	%esi
# CONST (1) / 

	movl	$3,	%edi
# CALL (".elem", 2, false) / 

	pushl	%ebx
	pushl	%ecx
	pushl	%edi
	pushl	%esi
	call	Belem
	addl	$8,	%esp
	popl	%ecx
	popl	%ebx
	movl	%eax,	%esi
# DUP / 

	movl	%esi,	%edi
# ARRAY (2) / 

	movl	$5,	-32(%ebp)
	pushl	%ebx
	pushl	%ecx
	pushl	%esi
	pushl	-32(%ebp)
	pushl	%edi
	call	Barray_patt
	addl	$8,	%esp
	popl	%esi
	popl	%ecx
	popl	%ebx
	movl	%eax,	%edi
# CJMP ("nz", "L25") / 

	sarl	%edi
	cmpl	$0,	%edi
	jnz	L25
# LABEL ("L26") / 

L26:

# DROP / 

# JMP ("L24") / 

	jmp	L24
# LABEL ("L25") / 

L25:

# DUP / 

	movl	%esi,	%edi
# CONST (0) / 

	movl	$1,	-32(%ebp)
# CALL (".elem", 2, false) / 

	pushl	%ebx
	pushl	%ecx
	pushl	%esi
	pushl	-32(%ebp)
	pushl	%edi
	call	Belem
	addl	$8,	%esp
	popl	%esi
	popl	%ecx
	popl	%ebx
	movl	%eax,	%edi
# DROP / 

# DUP / 

	movl	%esi,	%edi
# CONST (1) / 

	movl	$3,	-32(%ebp)
# CALL (".elem", 2, false) / 

	pushl	%ebx
	pushl	%ecx
	pushl	%esi
	pushl	-32(%ebp)
	pushl	%edi
	call	Belem
	addl	$8,	%esp
	popl	%esi
	popl	%ecx
	popl	%ebx
	movl	%eax,	%edi
# DROP / 

# DROP / 

# DROP / 

# DUP / 

	movl	%ebx,	%ecx
# CONST (0) / 

	movl	$1,	%esi
# CALL (".elem", 2, false) / 

	pushl	%ebx
	pushl	%esi
	pushl	%ecx
	call	Belem
	addl	$8,	%esp
	popl	%ebx
	movl	%eax,	%ecx
# ST (Local (2)) / 

	movl	%ecx,	-12(%ebp)
# DROP / 

# DUP / 

	movl	%ebx,	%ecx
# CONST (1) / 

	movl	$3,	%esi
# CALL (".elem", 2, false) / 

	pushl	%ebx
	pushl	%esi
	pushl	%ecx
	call	Belem
	addl	$8,	%esp
	popl	%ebx
	movl	%eax,	%ecx
# CONST (0) / 

	movl	$1,	%esi
# CALL (".elem", 2, false) / 

	pushl	%ebx
	pushl	%esi
	pushl	%ecx
	call	Belem
	addl	$8,	%esp
	popl	%ebx
	movl	%eax,	%ecx
# ST (Local (1)) / 

	movl	%ecx,	-8(%ebp)
# DROP / 

# DUP / 

	movl	%ebx,	%ecx
# CONST (1) / 

	movl	$3,	%esi
# CALL (".elem", 2, false) / 

	pushl	%ebx
	pushl	%esi
	pushl	%ecx
	call	Belem
	addl	$8,	%esp
	popl	%ebx
	movl	%eax,	%ecx
# CONST (1) / 

	movl	$3,	%esi
# CALL (".elem", 2, false) / 

	pushl	%ebx
	pushl	%esi
	pushl	%ecx
	call	Belem
	addl	$8,	%esp
	popl	%ebx
	movl	%eax,	%ecx
# ST (Local (0)) / 

	movl	%ecx,	-4(%ebp)
# DROP / 

# DROP / 

# SLABEL ("L29") / 

L29:

# LINE (23) / 

	.stabn 68,0,23,.L3-Leval

.L3:

# LD (Arg (1)) / 

	movl	12(%ebp),	%ebx
# DUP / 

	movl	%ebx,	%ecx
# SLABEL ("L36") / 

L36:

# DUP / 

	movl	%ecx,	%esi
# TAG ("Skip", 0) / 

	movl	$23684257,	%edi
	movl	$1,	-32(%ebp)
	pushl	%ebx
	pushl	%ecx
	pushl	-32(%ebp)
	pushl	%edi
	pushl	%esi
	call	Btag
	addl	$12,	%esp
	popl	%ecx
	popl	%ebx
	movl	%eax,	%esi
# CJMP ("nz", "L34") / 

	sarl	%esi
	cmpl	$0,	%esi
	jnz	L34
# LABEL ("L35") / 

L35:

# DROP / 

# JMP ("L33") / 

	jmp	L33
# LABEL ("L34") / 

L34:

# DROP / 

# DROP / 

# SLABEL ("L38") / 

L38:

# LINE (24) / 

	.stabn 68,0,24,.L4-Leval

.L4:

# LD (Arg (0)) / 

	movl	8(%ebp),	%ebx
# SLABEL ("L39") / 

L39:

# JMP ("L18") / 

	jmp	L18
# SLABEL ("L37") / 

L37:

# SLABEL ("L43") / 

L43:

# LABEL ("L33") / 

L33:

# DUP / 

	movl	%ebx,	%ecx
# DUP / 

	movl	%ecx,	%esi
# TAG ("Read", 1) / 

	movl	$23109769,	%edi
	movl	$3,	-32(%ebp)
	pushl	%ebx
	pushl	%ecx
	pushl	-32(%ebp)
	pushl	%edi
	pushl	%esi
	call	Btag
	addl	$12,	%esp
	popl	%ecx
	popl	%ebx
	movl	%eax,	%esi
# CJMP ("nz", "L41") / 

	sarl	%esi
	cmpl	$0,	%esi
	jnz	L41
# LABEL ("L42") / 

L42:

# DROP / 

# JMP ("L40") / 

	jmp	L40
# LABEL ("L41") / 

L41:

# DUP / 

	movl	%ecx,	%esi
# CONST (0) / 

	movl	$1,	%edi
# CALL (".elem", 2, false) / 

	pushl	%ebx
	pushl	%ecx
	pushl	%edi
	pushl	%esi
	call	Belem
	addl	$8,	%esp
	popl	%ecx
	popl	%ebx
	movl	%eax,	%esi
# DROP / 

# DROP / 

# DUP / 

	movl	%ebx,	%ecx
# CONST (0) / 

	movl	$1,	%esi
# CALL (".elem", 2, false) / 

	pushl	%ebx
	pushl	%esi
	pushl	%ecx
	call	Belem
	addl	$8,	%esp
	popl	%ebx
	movl	%eax,	%ecx
# ST (Local (3)) / 

	movl	%ecx,	-16(%ebp)
# DROP / 

# DROP / 

# SLABEL ("L45") / 

L45:

# LINE (25) / 

	.stabn 68,0,25,.L5-Leval

.L5:

# LD (Local (1)) / 

	movl	-8(%ebp),	%ebx
# DUP / 

	movl	%ebx,	%ecx
# SLABEL ("L51") / 

L51:

# DUP / 

	movl	%ecx,	%esi
# TAG ("cons", 2) / 

	movl	$1697575,	%edi
	movl	$5,	-32(%ebp)
	pushl	%ebx
	pushl	%ecx
	pushl	-32(%ebp)
	pushl	%edi
	pushl	%esi
	call	Btag
	addl	$12,	%esp
	popl	%ecx
	popl	%ebx
	movl	%eax,	%esi
# CJMP ("nz", "L49") / 

	sarl	%esi
	cmpl	$0,	%esi
	jnz	L49
# LABEL ("L50") / 

L50:

# DROP / 

# JMP ("L47") / 

	jmp	L47
# LABEL ("L49") / 

L49:

# DUP / 

	movl	%ecx,	%esi
# CONST (0) / 

	movl	$1,	%edi
# CALL (".elem", 2, false) / 

	pushl	%ebx
	pushl	%ecx
	pushl	%edi
	pushl	%esi
	call	Belem
	addl	$8,	%esp
	popl	%ecx
	popl	%ebx
	movl	%eax,	%esi
# DROP / 

# DUP / 

	movl	%ecx,	%esi
# CONST (1) / 

	movl	$3,	%edi
# CALL (".elem", 2, false) / 

	pushl	%ebx
	pushl	%ecx
	pushl	%edi
	pushl	%esi
	call	Belem
	addl	$8,	%esp
	popl	%ecx
	popl	%ebx
	movl	%eax,	%esi
# DROP / 

# DROP / 

# DUP / 

	movl	%ebx,	%ecx
# CONST (0) / 

	movl	$1,	%esi
# CALL (".elem", 2, false) / 

	pushl	%ebx
	pushl	%esi
	pushl	%ecx
	call	Belem
	addl	$8,	%esp
	popl	%ebx
	movl	%eax,	%ecx
# ST (Local (5)) / 

	movl	%ecx,	-24(%ebp)
# DROP / 

# DUP / 

	movl	%ebx,	%ecx
# CONST (1) / 

	movl	$3,	%esi
# CALL (".elem", 2, false) / 

	pushl	%ebx
	pushl	%esi
	pushl	%ecx
	call	Belem
	addl	$8,	%esp
	popl	%ebx
	movl	%eax,	%ecx
# ST (Local (4)) / 

	movl	%ecx,	-20(%ebp)
# DROP / 

# DROP / 

# SLABEL ("L53") / 

L53:

# LD (Local (2)) / 

	movl	-12(%ebp),	%ebx
# LD (Local (3)) / 

	movl	-16(%ebp),	%ecx
# LD (Local (5)) / 

	movl	-24(%ebp),	%esi
# CALL (".array", 2, false) / 

	pushl	%ebx
	pushl	%esi
	pushl	%ecx
	pushl	$5
	call	Barray
	addl	$12,	%esp
	popl	%ebx
	movl	%eax,	%ecx
# CALL ("Li__Infix_6045", 2, false) / 

	pushl	%ecx
	pushl	%ebx
	call	Li__Infix_6045
	addl	$8,	%esp
	movl	%eax,	%ebx
# LD (Local (4)) / 

	movl	-20(%ebp),	%ecx
# LD (Local (0)) / 

	movl	-4(%ebp),	%esi
# CALL (".array", 2, false) / 

	pushl	%ebx
	pushl	%esi
	pushl	%ecx
	pushl	$5
	call	Barray
	addl	$12,	%esp
	popl	%ebx
	movl	%eax,	%ecx
# CALL (".array", 2, true) / 

	pushl	%ecx
	pushl	%ebx
	pushl	$5
	call	Barray
	addl	$12,	%esp
	movl	%eax,	%ebx
# SLABEL ("L54") / 

L54:

# SLABEL ("L52") / 

L52:

# JMP ("L18") / 

	jmp	L18
# LABEL ("L47") / 

L47:

# FAIL ((25, 24), true) / 

	pushl	$49
	pushl	$51
	pushl	$string_0
	pushl	%ebx
	call	Bmatch_failure
	addl	$12,	%esp
# JMP ("L18") / 

	jmp	L18
# SLABEL ("L46") / 

L46:

# JMP ("L18") / 

# SLABEL ("L44") / 

L44:

# SLABEL ("L66") / 

L66:

# LABEL ("L40") / 

L40:

# DUP / 

	movl	%ebx,	%ecx
# DUP / 

	movl	%ecx,	%esi
# TAG ("Write", 1) / 

	movl	$1653680651,	%edi
	movl	$3,	-32(%ebp)
	pushl	%ebx
	pushl	%ecx
	pushl	-32(%ebp)
	pushl	%edi
	pushl	%esi
	call	Btag
	addl	$12,	%esp
	popl	%ecx
	popl	%ebx
	movl	%eax,	%esi
# CJMP ("nz", "L64") / 

	sarl	%esi
	cmpl	$0,	%esi
	jnz	L64
# LABEL ("L65") / 

L65:

# DROP / 

# JMP ("L63") / 

	jmp	L63
# LABEL ("L64") / 

L64:

# DUP / 

	movl	%ecx,	%esi
# CONST (0) / 

	movl	$1,	%edi
# CALL (".elem", 2, false) / 

	pushl	%ebx
	pushl	%ecx
	pushl	%edi
	pushl	%esi
	call	Belem
	addl	$8,	%esp
	popl	%ecx
	popl	%ebx
	movl	%eax,	%esi
# DROP / 

# DROP / 

# DUP / 

	movl	%ebx,	%ecx
# CONST (0) / 

	movl	$1,	%esi
# CALL (".elem", 2, false) / 

	pushl	%ebx
	pushl	%esi
	pushl	%ecx
	call	Belem
	addl	$8,	%esp
	popl	%ebx
	movl	%eax,	%ecx
# ST (Local (3)) / 

	movl	%ecx,	-16(%ebp)
# DROP / 

# DROP / 

# SLABEL ("L68") / 

L68:

# LINE (26) / 

	.stabn 68,0,26,.L6-Leval

.L6:

# LD (Local (2)) / 

	movl	-12(%ebp),	%ebx
# LD (Local (1)) / 

	movl	-8(%ebp),	%ecx
# LD (Local (2)) / 

	movl	-12(%ebp),	%esi
# LD (Local (3)) / 

	movl	-16(%ebp),	%edi
# CALL ("LevalExpr", 2, false) / 

	pushl	%ebx
	pushl	%ecx
	pushl	%edi
	pushl	%esi
	call	LevalExpr
	addl	$8,	%esp
	popl	%ecx
	popl	%ebx
	movl	%eax,	%esi
# LD (Local (0)) / 

	movl	-4(%ebp),	%edi
# SEXP ("cons", 2) / 

	movl	$1697575,	-32(%ebp)
	pushl	%ebx
	pushl	%ecx
	pushl	-32(%ebp)
	pushl	%edi
	pushl	%esi
	pushl	$7
	call	Bsexp
	addl	$16,	%esp
	popl	%ecx
	popl	%ebx
	movl	%eax,	%esi
# CALL (".array", 2, false) / 

	pushl	%ebx
	pushl	%esi
	pushl	%ecx
	pushl	$5
	call	Barray
	addl	$12,	%esp
	popl	%ebx
	movl	%eax,	%ecx
# CALL (".array", 2, true) / 

	pushl	%ecx
	pushl	%ebx
	pushl	$5
	call	Barray
	addl	$12,	%esp
	movl	%eax,	%ebx
# SLABEL ("L69") / 

L69:

# JMP ("L18") / 

	jmp	L18
# SLABEL ("L67") / 

L67:

# SLABEL ("L81") / 

L81:

# LABEL ("L63") / 

L63:

# DUP / 

	movl	%ebx,	%ecx
# DUP / 

	movl	%ecx,	%esi
# TAG ("Assn", 2) / 

	movl	$14313885,	%edi
	movl	$5,	-32(%ebp)
	pushl	%ebx
	pushl	%ecx
	pushl	-32(%ebp)
	pushl	%edi
	pushl	%esi
	call	Btag
	addl	$12,	%esp
	popl	%ecx
	popl	%ebx
	movl	%eax,	%esi
# CJMP ("nz", "L79") / 

	sarl	%esi
	cmpl	$0,	%esi
	jnz	L79
# LABEL ("L80") / 

L80:

# DROP / 

# JMP ("L78") / 

	jmp	L78
# LABEL ("L79") / 

L79:

# DUP / 

	movl	%ecx,	%esi
# CONST (0) / 

	movl	$1,	%edi
# CALL (".elem", 2, false) / 

	pushl	%ebx
	pushl	%ecx
	pushl	%edi
	pushl	%esi
	call	Belem
	addl	$8,	%esp
	popl	%ecx
	popl	%ebx
	movl	%eax,	%esi
# DROP / 

# DUP / 

	movl	%ecx,	%esi
# CONST (1) / 

	movl	$3,	%edi
# CALL (".elem", 2, false) / 

	pushl	%ebx
	pushl	%ecx
	pushl	%edi
	pushl	%esi
	call	Belem
	addl	$8,	%esp
	popl	%ecx
	popl	%ebx
	movl	%eax,	%esi
# DROP / 

# DROP / 

# DUP / 

	movl	%ebx,	%ecx
# CONST (0) / 

	movl	$1,	%esi
# CALL (".elem", 2, false) / 

	pushl	%ebx
	pushl	%esi
	pushl	%ecx
	call	Belem
	addl	$8,	%esp
	popl	%ebx
	movl	%eax,	%ecx
# ST (Local (4)) / 

	movl	%ecx,	-20(%ebp)
# DROP / 

# DUP / 

	movl	%ebx,	%ecx
# CONST (1) / 

	movl	$3,	%esi
# CALL (".elem", 2, false) / 

	pushl	%ebx
	pushl	%esi
	pushl	%ecx
	call	Belem
	addl	$8,	%esp
	popl	%ebx
	movl	%eax,	%ecx
# ST (Local (3)) / 

	movl	%ecx,	-16(%ebp)
# DROP / 

# DROP / 

# SLABEL ("L83") / 

L83:

# LINE (27) / 

	.stabn 68,0,27,.L7-Leval

.L7:

# LD (Local (2)) / 

	movl	-12(%ebp),	%ebx
# LD (Local (4)) / 

	movl	-20(%ebp),	%ecx
# LD (Local (2)) / 

	movl	-12(%ebp),	%esi
# LD (Local (3)) / 

	movl	-16(%ebp),	%edi
# CALL ("LevalExpr", 2, false) / 

	pushl	%ebx
	pushl	%ecx
	pushl	%edi
	pushl	%esi
	call	LevalExpr
	addl	$8,	%esp
	popl	%ecx
	popl	%ebx
	movl	%eax,	%esi
# CALL (".array", 2, false) / 

	pushl	%ebx
	pushl	%esi
	pushl	%ecx
	pushl	$5
	call	Barray
	addl	$12,	%esp
	popl	%ebx
	movl	%eax,	%ecx
# CALL ("Li__Infix_6045", 2, false) / 

	pushl	%ecx
	pushl	%ebx
	call	Li__Infix_6045
	addl	$8,	%esp
	movl	%eax,	%ebx
# LD (Local (1)) / 

	movl	-8(%ebp),	%ecx
# LD (Local (0)) / 

	movl	-4(%ebp),	%esi
# CALL (".array", 2, false) / 

	pushl	%ebx
	pushl	%esi
	pushl	%ecx
	pushl	$5
	call	Barray
	addl	$12,	%esp
	popl	%ebx
	movl	%eax,	%ecx
# CALL (".array", 2, true) / 

	pushl	%ecx
	pushl	%ebx
	pushl	$5
	call	Barray
	addl	$12,	%esp
	movl	%eax,	%ebx
# SLABEL ("L84") / 

L84:

# JMP ("L18") / 

	jmp	L18
# SLABEL ("L82") / 

L82:

# SLABEL ("L98") / 

L98:

# LABEL ("L78") / 

L78:

# DUP / 

	movl	%ebx,	%ecx
# DUP / 

	movl	%ecx,	%esi
# TAG ("Seq", 2) / 

	movl	$369315,	%edi
	movl	$5,	-32(%ebp)
	pushl	%ebx
	pushl	%ecx
	pushl	-32(%ebp)
	pushl	%edi
	pushl	%esi
	call	Btag
	addl	$12,	%esp
	popl	%ecx
	popl	%ebx
	movl	%eax,	%esi
# CJMP ("nz", "L96") / 

	sarl	%esi
	cmpl	$0,	%esi
	jnz	L96
# LABEL ("L97") / 

L97:

# DROP / 

# JMP ("L95") / 

	jmp	L95
# LABEL ("L96") / 

L96:

# DUP / 

	movl	%ecx,	%esi
# CONST (0) / 

	movl	$1,	%edi
# CALL (".elem", 2, false) / 

	pushl	%ebx
	pushl	%ecx
	pushl	%edi
	pushl	%esi
	call	Belem
	addl	$8,	%esp
	popl	%ecx
	popl	%ebx
	movl	%eax,	%esi
# DROP / 

# DUP / 

	movl	%ecx,	%esi
# CONST (1) / 

	movl	$3,	%edi
# CALL (".elem", 2, false) / 

	pushl	%ebx
	pushl	%ecx
	pushl	%edi
	pushl	%esi
	call	Belem
	addl	$8,	%esp
	popl	%ecx
	popl	%ebx
	movl	%eax,	%esi
# DROP / 

# DROP / 

# DUP / 

	movl	%ebx,	%ecx
# CONST (0) / 

	movl	$1,	%esi
# CALL (".elem", 2, false) / 

	pushl	%ebx
	pushl	%esi
	pushl	%ecx
	call	Belem
	addl	$8,	%esp
	popl	%ebx
	movl	%eax,	%ecx
# ST (Local (4)) / 

	movl	%ecx,	-20(%ebp)
# DROP / 

# DUP / 

	movl	%ebx,	%ecx
# CONST (1) / 

	movl	$3,	%esi
# CALL (".elem", 2, false) / 

	pushl	%ebx
	pushl	%esi
	pushl	%ecx
	call	Belem
	addl	$8,	%esp
	popl	%ebx
	movl	%eax,	%ecx
# ST (Local (3)) / 

	movl	%ecx,	-16(%ebp)
# DROP / 

# DROP / 

# SLABEL ("L100") / 

L100:

# LINE (28) / 

	.stabn 68,0,28,.L8-Leval

.L8:

# LD (Arg (0)) / 

	movl	8(%ebp),	%ebx
# LD (Local (4)) / 

	movl	-20(%ebp),	%ecx
# CALL ("Leval", 2, false) / 

	pushl	%ecx
	pushl	%ebx
	call	Leval
	addl	$8,	%esp
	movl	%eax,	%ebx
# LD (Local (3)) / 

	movl	-16(%ebp),	%ecx
# CALL ("Leval", 2, true) / 

	movl	%ebx,	8(%ebp)
	movl	%ecx,	12(%ebp)
	movl	%ebp,	%esp
	popl	%ebp
	jmp	Leval
# SLABEL ("L101") / 

L101:

# JMP ("L18") / 

	jmp	L18
# SLABEL ("L99") / 

L99:

# SLABEL ("L109") / 

L109:

# LABEL ("L95") / 

L95:

# DUP / 

	movl	%ebx,	%ecx
# DUP / 

	movl	%ecx,	%esi
# TAG ("If", 3) / 

	movl	$4493,	%edi
	movl	$7,	-32(%ebp)
	pushl	%ebx
	pushl	%ecx
	pushl	-32(%ebp)
	pushl	%edi
	pushl	%esi
	call	Btag
	addl	$12,	%esp
	popl	%ecx
	popl	%ebx
	movl	%eax,	%esi
# CJMP ("nz", "L107") / 

	sarl	%esi
	cmpl	$0,	%esi
	jnz	L107
# LABEL ("L108") / 

L108:

# DROP / 

# JMP ("L106") / 

	jmp	L106
# LABEL ("L107") / 

L107:

# DUP / 

	movl	%ecx,	%esi
# CONST (0) / 

	movl	$1,	%edi
# CALL (".elem", 2, false) / 

	pushl	%ebx
	pushl	%ecx
	pushl	%edi
	pushl	%esi
	call	Belem
	addl	$8,	%esp
	popl	%ecx
	popl	%ebx
	movl	%eax,	%esi
# DROP / 

# DUP / 

	movl	%ecx,	%esi
# CONST (1) / 

	movl	$3,	%edi
# CALL (".elem", 2, false) / 

	pushl	%ebx
	pushl	%ecx
	pushl	%edi
	pushl	%esi
	call	Belem
	addl	$8,	%esp
	popl	%ecx
	popl	%ebx
	movl	%eax,	%esi
# DROP / 

# DUP / 

	movl	%ecx,	%esi
# CONST (2) / 

	movl	$5,	%edi
# CALL (".elem", 2, false) / 

	pushl	%ebx
	pushl	%ecx
	pushl	%edi
	pushl	%esi
	call	Belem
	addl	$8,	%esp
	popl	%ecx
	popl	%ebx
	movl	%eax,	%esi
# DROP / 

# DROP / 

# DUP / 

	movl	%ebx,	%ecx
# CONST (0) / 

	movl	$1,	%esi
# CALL (".elem", 2, false) / 

	pushl	%ebx
	pushl	%esi
	pushl	%ecx
	call	Belem
	addl	$8,	%esp
	popl	%ebx
	movl	%eax,	%ecx
# ST (Local (5)) / 

	movl	%ecx,	-24(%ebp)
# DROP / 

# DUP / 

	movl	%ebx,	%ecx
# CONST (1) / 

	movl	$3,	%esi
# CALL (".elem", 2, false) / 

	pushl	%ebx
	pushl	%esi
	pushl	%ecx
	call	Belem
	addl	$8,	%esp
	popl	%ebx
	movl	%eax,	%ecx
# ST (Local (4)) / 

	movl	%ecx,	-20(%ebp)
# DROP / 

# DUP / 

	movl	%ebx,	%ecx
# CONST (2) / 

	movl	$5,	%esi
# CALL (".elem", 2, false) / 

	pushl	%ebx
	pushl	%esi
	pushl	%ecx
	call	Belem
	addl	$8,	%esp
	popl	%ebx
	movl	%eax,	%ecx
# ST (Local (3)) / 

	movl	%ecx,	-16(%ebp)
# DROP / 

# DROP / 

# SLABEL ("L111") / 

L111:

# LINE (29) / 

	.stabn 68,0,29,.L9-Leval

.L9:

# LD (Local (2)) / 

	movl	-12(%ebp),	%ebx
# LD (Local (5)) / 

	movl	-24(%ebp),	%ecx
# CALL ("LevalExpr", 2, false) / 

	pushl	%ecx
	pushl	%ebx
	call	LevalExpr
	addl	$8,	%esp
	movl	%eax,	%ebx
# DUP / 

	movl	%ebx,	%ecx
# SLABEL ("L118") / 

L118:

# CONST (0) / 

	movl	$1,	%esi
# BINOP ("==") / 

	xorl	%eax,	%eax
	cmpl	%esi,	%ecx
	sete	%al
	sall	%eax
	orl	$0x0001,	%eax
	movl	%eax,	%ecx
# CJMP ("z", "L117") / 

	sarl	%ecx
	cmpl	$0,	%ecx
	jz	L117
# DROP / 

# SLABEL ("L120") / 

L120:

# LINE (30) / 

	.stabn 68,0,30,.L10-Leval

.L10:

# LD (Arg (0)) / 

	movl	8(%ebp),	%ebx
# LD (Local (3)) / 

	movl	-16(%ebp),	%ecx
# CALL ("Leval", 2, true) / 

	movl	%ebx,	8(%ebp)
	movl	%ecx,	12(%ebp)
	movl	%ebp,	%esp
	popl	%ebp
	jmp	Leval
# SLABEL ("L121") / 

L121:

# JMP ("L18") / 

	jmp	L18
# SLABEL ("L119") / 

L119:

# SLABEL ("L124") / 

L124:

# LABEL ("L117") / 

L117:

# DUP / 

	movl	%ebx,	%ecx
# DROP / 

# DROP / 

# SLABEL ("L126") / 

L126:

# LINE (31) / 

	.stabn 68,0,31,.L11-Leval

.L11:

# LD (Arg (0)) / 

	movl	8(%ebp),	%ebx
# LD (Local (4)) / 

	movl	-20(%ebp),	%ecx
# CALL ("Leval", 2, true) / 

	movl	%ebx,	8(%ebp)
	movl	%ecx,	12(%ebp)
	movl	%ebp,	%esp
	popl	%ebp
	jmp	Leval
# SLABEL ("L127") / 

L127:

# SLABEL ("L125") / 

L125:

# JMP ("L18") / 

	jmp	L18
# SLABEL ("L112") / 

L112:

# JMP ("L18") / 

# SLABEL ("L110") / 

L110:

# SLABEL ("L133") / 

L133:

# LABEL ("L106") / 

L106:

# DUP / 

	movl	%ebx,	%ecx
# DUP / 

	movl	%ecx,	%esi
# TAG ("While", 2) / 

	movl	$1648436747,	%edi
	movl	$5,	-32(%ebp)
	pushl	%ebx
	pushl	%ecx
	pushl	-32(%ebp)
	pushl	%edi
	pushl	%esi
	call	Btag
	addl	$12,	%esp
	popl	%ecx
	popl	%ebx
	movl	%eax,	%esi
# CJMP ("nz", "L131") / 

	sarl	%esi
	cmpl	$0,	%esi
	jnz	L131
# LABEL ("L132") / 

L132:

# DROP / 

# JMP ("L130") / 

	jmp	L130
# LABEL ("L131") / 

L131:

# DUP / 

	movl	%ecx,	%esi
# CONST (0) / 

	movl	$1,	%edi
# CALL (".elem", 2, false) / 

	pushl	%ebx
	pushl	%ecx
	pushl	%edi
	pushl	%esi
	call	Belem
	addl	$8,	%esp
	popl	%ecx
	popl	%ebx
	movl	%eax,	%esi
# DROP / 

# DUP / 

	movl	%ecx,	%esi
# CONST (1) / 

	movl	$3,	%edi
# CALL (".elem", 2, false) / 

	pushl	%ebx
	pushl	%ecx
	pushl	%edi
	pushl	%esi
	call	Belem
	addl	$8,	%esp
	popl	%ecx
	popl	%ebx
	movl	%eax,	%esi
# DROP / 

# DROP / 

# DUP / 

	movl	%ebx,	%ecx
# CONST (0) / 

	movl	$1,	%esi
# CALL (".elem", 2, false) / 

	pushl	%ebx
	pushl	%esi
	pushl	%ecx
	call	Belem
	addl	$8,	%esp
	popl	%ebx
	movl	%eax,	%ecx
# ST (Local (4)) / 

	movl	%ecx,	-20(%ebp)
# DROP / 

# DUP / 

	movl	%ebx,	%ecx
# CONST (1) / 

	movl	$3,	%esi
# CALL (".elem", 2, false) / 

	pushl	%ebx
	pushl	%esi
	pushl	%ecx
	call	Belem
	addl	$8,	%esp
	popl	%ebx
	movl	%eax,	%ecx
# ST (Local (3)) / 

	movl	%ecx,	-16(%ebp)
# DROP / 

# DROP / 

# SLABEL ("L135") / 

L135:

# LINE (33) / 

	.stabn 68,0,33,.L12-Leval

.L12:

# LD (Local (2)) / 

	movl	-12(%ebp),	%ebx
# LD (Local (4)) / 

	movl	-20(%ebp),	%ecx
# CALL ("LevalExpr", 2, false) / 

	pushl	%ecx
	pushl	%ebx
	call	LevalExpr
	addl	$8,	%esp
	movl	%eax,	%ebx
# DUP / 

	movl	%ebx,	%ecx
# SLABEL ("L142") / 

L142:

# CONST (0) / 

	movl	$1,	%esi
# BINOP ("==") / 

	xorl	%eax,	%eax
	cmpl	%esi,	%ecx
	sete	%al
	sall	%eax
	orl	$0x0001,	%eax
	movl	%eax,	%ecx
# CJMP ("z", "L141") / 

	sarl	%ecx
	cmpl	$0,	%ecx
	jz	L141
# DROP / 

# SLABEL ("L144") / 

L144:

# LINE (34) / 

	.stabn 68,0,34,.L13-Leval

.L13:

# LD (Arg (0)) / 

	movl	8(%ebp),	%ebx
# SLABEL ("L145") / 

L145:

# JMP ("L18") / 

	jmp	L18
# SLABEL ("L143") / 

L143:

# SLABEL ("L146") / 

L146:

# LABEL ("L141") / 

L141:

# DUP / 

	movl	%ebx,	%ecx
# DROP / 

# DROP / 

# SLABEL ("L148") / 

L148:

# LINE (35) / 

	.stabn 68,0,35,.L14-Leval

.L14:

# LD (Arg (0)) / 

	movl	8(%ebp),	%ebx
# LD (Local (3)) / 

	movl	-16(%ebp),	%ecx
# CALL ("Leval", 2, false) / 

	pushl	%ecx
	pushl	%ebx
	call	Leval
	addl	$8,	%esp
	movl	%eax,	%ebx
# LD (Local (4)) / 

	movl	-20(%ebp),	%ecx
# LD (Local (3)) / 

	movl	-16(%ebp),	%esi
# SEXP ("While", 2) / 

	movl	$1648436747,	%edi
	pushl	%ebx
	pushl	%edi
	pushl	%esi
	pushl	%ecx
	pushl	$7
	call	Bsexp
	addl	$16,	%esp
	popl	%ebx
	movl	%eax,	%ecx
# CALL ("Leval", 2, true) / 

	movl	%ebx,	8(%ebp)
	movl	%ecx,	12(%ebp)
	movl	%ebp,	%esp
	popl	%ebp
	jmp	Leval
# SLABEL ("L149") / 

L149:

# SLABEL ("L147") / 

L147:

# JMP ("L18") / 

	jmp	L18
# SLABEL ("L136") / 

L136:

# JMP ("L18") / 

# SLABEL ("L134") / 

L134:

# SLABEL ("L158") / 

L158:

# LABEL ("L130") / 

L130:

# DUP / 

	movl	%ebx,	%ecx
# DUP / 

	movl	%ecx,	%esi
# TAG ("Repeat", 2) / 

	movl	$1479148163,	%edi
	movl	$5,	-32(%ebp)
	pushl	%ebx
	pushl	%ecx
	pushl	-32(%ebp)
	pushl	%edi
	pushl	%esi
	call	Btag
	addl	$12,	%esp
	popl	%ecx
	popl	%ebx
	movl	%eax,	%esi
# CJMP ("nz", "L156") / 

	sarl	%esi
	cmpl	$0,	%esi
	jnz	L156
# LABEL ("L157") / 

L157:

# DROP / 

# JMP ("L31") / 

	jmp	L31
# LABEL ("L156") / 

L156:

# DUP / 

	movl	%ecx,	%esi
# CONST (0) / 

	movl	$1,	%edi
# CALL (".elem", 2, false) / 

	pushl	%ebx
	pushl	%ecx
	pushl	%edi
	pushl	%esi
	call	Belem
	addl	$8,	%esp
	popl	%ecx
	popl	%ebx
	movl	%eax,	%esi
# DROP / 

# DUP / 

	movl	%ecx,	%esi
# CONST (1) / 

	movl	$3,	%edi
# CALL (".elem", 2, false) / 

	pushl	%ebx
	pushl	%ecx
	pushl	%edi
	pushl	%esi
	call	Belem
	addl	$8,	%esp
	popl	%ecx
	popl	%ebx
	movl	%eax,	%esi
# DROP / 

# DROP / 

# DUP / 

	movl	%ebx,	%ecx
# CONST (0) / 

	movl	$1,	%esi
# CALL (".elem", 2, false) / 

	pushl	%ebx
	pushl	%esi
	pushl	%ecx
	call	Belem
	addl	$8,	%esp
	popl	%ebx
	movl	%eax,	%ecx
# ST (Local (4)) / 

	movl	%ecx,	-20(%ebp)
# DROP / 

# DUP / 

	movl	%ebx,	%ecx
# CONST (1) / 

	movl	$3,	%esi
# CALL (".elem", 2, false) / 

	pushl	%ebx
	pushl	%esi
	pushl	%ecx
	call	Belem
	addl	$8,	%esp
	popl	%ebx
	movl	%eax,	%ecx
# ST (Local (3)) / 

	movl	%ecx,	-16(%ebp)
# DROP / 

# DROP / 

# SLABEL ("L160") / 

L160:

# LINE (37) / 

	.stabn 68,0,37,.L15-Leval

.L15:

# LD (Arg (0)) / 

	movl	8(%ebp),	%ebx
# LD (Local (4)) / 

	movl	-20(%ebp),	%ecx
# CALL ("Leval", 2, false) / 

	pushl	%ecx
	pushl	%ebx
	call	Leval
	addl	$8,	%esp
	movl	%eax,	%ebx
# DUP / 

	movl	%ebx,	%ecx
# SLABEL ("L168") / 

L168:

# DUP / 

	movl	%ecx,	%esi
# ARRAY (2) / 

	movl	$5,	%edi
	pushl	%ebx
	pushl	%ecx
	pushl	%edi
	pushl	%esi
	call	Barray_patt
	addl	$8,	%esp
	popl	%ecx
	popl	%ebx
	movl	%eax,	%esi
# CJMP ("nz", "L166") / 

	sarl	%esi
	cmpl	$0,	%esi
	jnz	L166
# LABEL ("L167") / 

L167:

# DROP / 

# JMP ("L162") / 

	jmp	L162
# LABEL ("L166") / 

L166:

# DUP / 

	movl	%ecx,	%esi
# CONST (0) / 

	movl	$1,	%edi
# CALL (".elem", 2, false) / 

	pushl	%ebx
	pushl	%ecx
	pushl	%edi
	pushl	%esi
	call	Belem
	addl	$8,	%esp
	popl	%ecx
	popl	%ebx
	movl	%eax,	%esi
# DROP / 

# DUP / 

	movl	%ecx,	%esi
# CONST (1) / 

	movl	$3,	%edi
# CALL (".elem", 2, false) / 

	pushl	%ebx
	pushl	%ecx
	pushl	%edi
	pushl	%esi
	call	Belem
	addl	$8,	%esp
	popl	%ecx
	popl	%ebx
	movl	%eax,	%esi
# DROP / 

# DROP / 

# DUP / 

	movl	%ebx,	%ecx
# ST (Local (6)) / 

	movl	%ecx,	-28(%ebp)
# DROP / 

# DUP / 

	movl	%ebx,	%ecx
# CONST (0) / 

	movl	$1,	%esi
# CALL (".elem", 2, false) / 

	pushl	%ebx
	pushl	%esi
	pushl	%ecx
	call	Belem
	addl	$8,	%esp
	popl	%ebx
	movl	%eax,	%ecx
# ST (Local (5)) / 

	movl	%ecx,	-24(%ebp)
# DROP / 

# DROP / 

# SLABEL ("L170") / 

L170:

# LINE (38) / 

	.stabn 68,0,38,.L16-Leval

.L16:

# LD (Local (5)) / 

	movl	-24(%ebp),	%ebx
# LD (Local (3)) / 

	movl	-16(%ebp),	%ecx
# CALL ("LevalExpr", 2, false) / 

	pushl	%ecx
	pushl	%ebx
	call	LevalExpr
	addl	$8,	%esp
	movl	%eax,	%ebx
# DUP / 

	movl	%ebx,	%ecx
# SLABEL ("L177") / 

L177:

# CONST (0) / 

	movl	$1,	%esi
# BINOP ("==") / 

	xorl	%eax,	%eax
	cmpl	%esi,	%ecx
	sete	%al
	sall	%eax
	orl	$0x0001,	%eax
	movl	%eax,	%ecx
# CJMP ("z", "L176") / 

	sarl	%ecx
	cmpl	$0,	%ecx
	jz	L176
# DROP / 

# SLABEL ("L179") / 

L179:

# LINE (39) / 

	.stabn 68,0,39,.L17-Leval

.L17:

# LD (Local (6)) / 

	movl	-28(%ebp),	%ebx
# LD (Local (4)) / 

	movl	-20(%ebp),	%ecx
# LD (Local (3)) / 

	movl	-16(%ebp),	%esi
# SEXP ("Repeat", 2) / 

	movl	$1479148163,	%edi
	pushl	%ebx
	pushl	%edi
	pushl	%esi
	pushl	%ecx
	pushl	$7
	call	Bsexp
	addl	$16,	%esp
	popl	%ebx
	movl	%eax,	%ecx
# CALL ("Leval", 2, true) / 

	movl	%ebx,	8(%ebp)
	movl	%ecx,	12(%ebp)
	movl	%ebp,	%esp
	popl	%ebp
	jmp	Leval
# SLABEL ("L180") / 

L180:

# JMP ("L18") / 

	jmp	L18
# SLABEL ("L178") / 

L178:

# SLABEL ("L185") / 

L185:

# LABEL ("L176") / 

L176:

# DUP / 

	movl	%ebx,	%ecx
# DROP / 

# DROP / 

# SLABEL ("L187") / 

L187:

# LINE (40) / 

	.stabn 68,0,40,.L18-Leval

.L18:

# LD (Local (6)) / 

	movl	-28(%ebp),	%ebx
# SLABEL ("L188") / 

L188:

# SLABEL ("L186") / 

L186:

# JMP ("L18") / 

	jmp	L18
# SLABEL ("L171") / 

L171:

# SLABEL ("L169") / 

L169:

# JMP ("L18") / 

# LABEL ("L162") / 

L162:

# FAIL ((37, 31), true) / 

	pushl	$63
	pushl	$75
	pushl	$string_0
	pushl	%ebx
	call	Bmatch_failure
	addl	$12,	%esp
# JMP ("L18") / 

	jmp	L18
# SLABEL ("L161") / 

L161:

# SLABEL ("L159") / 

L159:

# JMP ("L18") / 

# LABEL ("L31") / 

L31:

# FAIL ((23, 7), true) / 

	pushl	$15
	pushl	$47
	pushl	$string_0
	pushl	%ebx
	call	Bmatch_failure
	addl	$12,	%esp
# JMP ("L18") / 

	jmp	L18
# SLABEL ("L30") / 

L30:

# SLABEL ("L28") / 

L28:

# JMP ("L18") / 

# LABEL ("L21") / 

L21:

# FAIL ((22, 6), true) / 

	pushl	$13
	pushl	$45
	pushl	$string_0
	pushl	%ebx
	call	Bmatch_failure
	addl	$12,	%esp
# JMP ("L18") / 

	jmp	L18
# SLABEL ("L20") / 

L20:

# LABEL ("L18") / 

L18:

# SLABEL ("L17") / 

L17:

# END / 

	movl	%ebx,	%eax
LLeval_epilogue:

	movl	%ebp,	%esp
	popl	%ebp
	.cfi_restore	5

	.cfi_def_cfa	4, 4

	ret
	.cfi_endproc

	.set	LLeval_SIZE,	32

	.set	LSLeval_SIZE,	8

	.size Leval, .-Leval

