	.file "/home/natashka/Desktop/compilers-2020/src/X86.lama"

	.stabs "/home/natashka/Desktop/compilers-2020/src/X86.lama",100,0,0,.Ltext

	.globl	LcompileX86

	.globl	initX86

	.data

string_15:	.string	" "

string_28:	.string	"!!"

string_39:	.string	"!="

string_17:	.string	"# "

string_63:	.string	"$%d"

string_22:	.string	"%"

string_27:	.string	"%al"

string_4:	.string	"%eax"

string_6:	.string	"%ebp"

string_0:	.string	"%ebx"

string_1:	.string	"%ecx"

string_3:	.string	"%edi"

string_5:	.string	"%edx"

string_2:	.string	"%esi"

string_7:	.string	"%esp"

string_59:	.string	"%s:\n"

string_45:	.string	"%s:\t.int\t0\n"

string_23:	.string	"&&"

string_24:	.string	"*"

string_32:	.string	"+"

string_33:	.string	"-"

string_62:	.string	"-%d(%%ebp)"

string_10:	.string	"../runtime/"

string_8:	.string	".s"

string_21:	.string	"/"

string_11:	.string	"/runtime.o"

string_34:	.string	"<"

string_36:	.string	"<="

string_38:	.string	"=="

string_42:	.string	">"

string_40:	.string	">="

string_9:	.string	"LAMA_RUNTIME"

string_19:	.string	"Lread"

string_20:	.string	"Lwrite"

string_48:	.string	"Stack     : %s\nStackSlots: %d\nGlobals   : %s\n"

string_16:	.string	"X86.lama"

string_18:	.string	"\n"

string_53:	.string	"\t%s\t%s,\t%s\n"

string_46:	.string	"\t.data\n"

string_12:	.string	"\t.global\tmain\n"

string_47:	.string	"\t.text\n"

string_58:	.string	"\tcall\t%s\n"

string_50:	.string	"\tcltd\n"

string_52:	.string	"\tidivl\t%s\n"

string_61:	.string	"\tj%s\t%s\n"

string_60:	.string	"\tjmp\t%s\n"

string_54:	.string	"\tmovl\t%s,\t%s\n"

string_56:	.string	"\tpopl\t%s\n"

string_55:	.string	"\tpushl\t%s\n"

string_57:	.string	"\tret\n"

string_51:	.string	"\tset%s\t%s\n"

string_44:	.string	"^"

string_64:	.string	"addl"

string_67:	.string	"andl"

string_25:	.string	"cmp"

string_70:	.string	"cmpl"

string_30:	.string	"e"

string_43:	.string	"g"

string_14:	.string	"gcc -g -m32 -o "

string_41:	.string	"ge"

string_49:	.string	"global_"

string_66:	.string	"imull"

string_35:	.string	"l"

string_37:	.string	"le"

string_13:	.string	"main:\n"

string_26:	.string	"ne"

string_31:	.string	"nz"

string_68:	.string	"orl"

string_65:	.string	"subl"

string_69:	.string	"xorl"

string_29:	.string	"z"

_init:	.int 0

	.section custom_data,"aw",@progbits

filler:	.fill	12, 4, 1

	.stabs "eax:S1",40,0,0,global_eax

global_eax:	.int	1

	.stabs "ebp:S1",40,0,0,global_ebp

global_ebp:	.int	1

	.stabs "ebx:S1",40,0,0,global_ebx

global_ebx:	.int	1

	.stabs "ecx:S1",40,0,0,global_ecx

global_ecx:	.int	1

	.stabs "edi:S1",40,0,0,global_edi

global_edi:	.int	1

	.stabs "edx:S1",40,0,0,global_edx

global_edx:	.int	1

	.stabs "esi:S1",40,0,0,global_esi

global_esi:	.int	1

	.stabs "esp:S1",40,0,0,global_esp

global_esp:	.int	1

	.stabs "nRegs:S1",40,0,0,global_nRegs

global_nRegs:	.int	1

	.stabs "regs:S1",40,0,0,global_regs

global_regs:	.int	1

	.stabs "wordSize:S1",40,0,0,global_wordSize

global_wordSize:	.int	1

	.text

.Ltext:

	.stabs "data:t1=r1;0;4294967295;",128,0,0,0

# PUBLIC ("initX86") / 

# PUBLIC ("LcompileX86") / 

# EXTERN ("LgetBaseName") / 

# EXTERN ("LdumpSM") / 

# EXTERN ("LgetInFile") / 

# EXTERN ("LgetMode") / 

# EXTERN ("Lfix") / 

# EXTERN ("Li__Infix_35") / 

# EXTERN ("Li__Infix_36") / 

# EXTERN ("Lid") / 

# EXTERN ("LgetBuffer") / 

# EXTERN ("Li__Infix_6043") / 

# EXTERN ("Li__Infix_604362") / 

# EXTERN ("LconcatBuffer") / 

# EXTERN ("LaddBuffer") / 

# EXTERN ("LlistBuffer") / 

# EXTERN ("LsingletonBuffer") / 

# EXTERN ("LemptyBuffer") / 

# EXTERN ("Lfilter") / 

# EXTERN ("Lremove") / 

# EXTERN ("Lunzip") / 

# EXTERN ("Lzip") / 

# EXTERN ("Lflatten") / 

# EXTERN ("Lfind") / 

# EXTERN ("Lassoc") / 

# EXTERN ("Lreverse") / 

# EXTERN ("Li__Infix_434343") / 

# EXTERN ("Lmap") / 

# EXTERN ("Liter") / 

# EXTERN ("Lfoldr") / 

# EXTERN ("Lfoldl") / 

# EXTERN ("Lsize") / 

# EXTERN ("Lsingleton") / 

# EXTERN ("LhashOf") / 

# EXTERN ("LremoveHashTab") / 

# EXTERN ("LfindHashTab") / 

# EXTERN ("LaddHashTab") / 

# EXTERN ("LemptyHashTab") / 

# EXTERN ("LlookupMemo") / 

# EXTERN ("LemptyMemo") / 

# EXTERN ("LfoldSet") / 

# EXTERN ("LmapSet") / 

# EXTERN ("LiterSet") / 

# EXTERN ("LlistSet") / 

# EXTERN ("Ldiff") / 

# EXTERN ("Lunion") / 

# EXTERN ("Lelements") / 

# EXTERN ("LremoveSet") / 

# EXTERN ("LmemSet") / 

# EXTERN ("LaddSet") / 

# EXTERN ("LemptySet") / 

# EXTERN ("LfoldMap") / 

# EXTERN ("LmapMap") / 

# EXTERN ("LiterMap") / 

# EXTERN ("LlistMap") / 

# EXTERN ("Lbindings") / 

# EXTERN ("LremoveMap") / 

# EXTERN ("LfindMap") / 

# EXTERN ("LaddMap") / 

# EXTERN ("LemptyMap") / 

# EXTERN ("LcompareOf") / 

# EXTERN ("LinternalOf") / 

# EXTERN ("LvalidateColl") / 

# EXTERN ("LcompileSM") / 

# EXTERN ("LevalSM") / 

# EXTERN ("LshowSM") / 

# EXTERN ("LshowSMInsn") / 

# EXTERN ("LtagHash") / 

# EXTERN ("LflatCompare") / 

# EXTERN ("LcompareTags") / 

# EXTERN ("LkindOf") / 

# EXTERN ("Ltime") / 

# EXTERN ("Lrandom") / 

# EXTERN ("LdisableGC") / 

# EXTERN ("LenableGC") / 

# EXTERN ("Ls__Infix_37") / 

# EXTERN ("Ls__Infix_47") / 

# EXTERN ("Ls__Infix_42") / 

# EXTERN ("Ls__Infix_45") / 

# EXTERN ("Ls__Infix_43") / 

# EXTERN ("Ls__Infix_62") / 

# EXTERN ("Ls__Infix_6261") / 

# EXTERN ("Ls__Infix_60") / 

# EXTERN ("Ls__Infix_6061") / 

# EXTERN ("Ls__Infix_3361") / 

# EXTERN ("Ls__Infix_6161") / 

# EXTERN ("Ls__Infix_3838") / 

# EXTERN ("Ls__Infix_3333") / 

# EXTERN ("Ls__Infix_58") / 

# EXTERN ("Li__Infix_4343") / 

# EXTERN ("Lcompare") / 

# EXTERN ("Lwrite") / 

# EXTERN ("Lread") / 

# EXTERN ("Lfailure") / 

# EXTERN ("Lfwrite") / 

# EXTERN ("Lfread") / 

# EXTERN ("Lfclose") / 

# EXTERN ("Lfopen") / 

# EXTERN ("Lfprintf") / 

# EXTERN ("Lprintf") / 

# EXTERN ("LmakeString") / 

# EXTERN ("Lsprintf") / 

# EXTERN ("LregexpMatch") / 

# EXTERN ("Lregexp") / 

# EXTERN ("Lsubstring") / 

# EXTERN ("LmatchSubString") / 

# EXTERN ("Lstringcat") / 

# EXTERN ("LreadLine") / 

# EXTERN ("Ltl") / 

# EXTERN ("Lhd") / 

# EXTERN ("Lsnd") / 

# EXTERN ("Lfst") / 

# EXTERN ("Lhash") / 

# EXTERN ("Lclone") / 

# EXTERN ("LmakeArray") / 

# EXTERN ("LstringInt") / 

# EXTERN ("global_sysargs") / 

# EXTERN ("Lsystem") / 

# EXTERN ("LgetEnv") / 

# LABEL ("initX86") / 

initX86:

# BEGIN ("initX86", 0, 0, [], [], []) / 

	.type initX86, @function

	.stabs "initX86:F1",36,0,0,initX86

	.cfi_startproc

	.cfi_adjust_cfa_offset	4

	movl	_init,	%eax
	test	%eax,	%eax
	jz	_continue
	ret
_continue:

	movl	$1,	_init
	pushl	%ebp
	.cfi_adjust_cfa_offset	4

	movl	%esp,	%ebp
	.cfi_def_cfa_register	5

	subl	$LinitX86_SIZE,	%esp
	movl	%esp,	%edi
	movl	$filler,	%esi
	movl	$LSinitX86_SIZE,	%ecx
	rep movsl	
	call	initSM
	call	initCollection
	call	initList
	call	initBuffer
	call	initFun
	call	initManifest
# SLABEL ("L1") / 

L1:

# LINE (12) / 

	.stabn 68,0,12,0

	.stabn 68,0,12,.L0-initX86

.L0:

# LDA (Global ("regs")) / 

	leal	global_regs,	%ebx
# STRING ("%ebx") / 

	movl	$string_0,	%ecx
	pushl	%ebx
	pushl	%ecx
	call	Bstring
	addl	$4,	%esp
	popl	%ebx
	movl	%eax,	%ecx
# STRING ("%ecx") / 

	movl	$string_1,	%esi
	pushl	%ebx
	pushl	%ecx
	pushl	%esi
	call	Bstring
	addl	$4,	%esp
	popl	%ecx
	popl	%ebx
	movl	%eax,	%esi
# STRING ("%esi") / 

	movl	$string_2,	%edi
	pushl	%ebx
	pushl	%ecx
	pushl	%esi
	pushl	%edi
	call	Bstring
	addl	$4,	%esp
	popl	%esi
	popl	%ecx
	popl	%ebx
	movl	%eax,	%edi
# STRING ("%edi") / 

	movl	$string_3,	-4(%ebp)
	pushl	%ebx
	pushl	%ecx
	pushl	%esi
	pushl	%edi
	pushl	-4(%ebp)
	call	Bstring
	addl	$4,	%esp
	popl	%edi
	popl	%esi
	popl	%ecx
	popl	%ebx
	movl	%eax,	-4(%ebp)
# STRING ("%eax") / 

	movl	$string_4,	-8(%ebp)
	pushl	%ebx
	pushl	%ecx
	pushl	%esi
	pushl	%edi
	pushl	-8(%ebp)
	call	Bstring
	addl	$4,	%esp
	popl	%edi
	popl	%esi
	popl	%ecx
	popl	%ebx
	movl	%eax,	-8(%ebp)
# STRING ("%edx") / 

	movl	$string_5,	-12(%ebp)
	pushl	%ebx
	pushl	%ecx
	pushl	%esi
	pushl	%edi
	pushl	-12(%ebp)
	call	Bstring
	addl	$4,	%esp
	popl	%edi
	popl	%esi
	popl	%ecx
	popl	%ebx
	movl	%eax,	-12(%ebp)
# STRING ("%ebp") / 

	movl	$string_6,	-16(%ebp)
	pushl	%ebx
	pushl	%ecx
	pushl	%esi
	pushl	%edi
	pushl	-16(%ebp)
	call	Bstring
	addl	$4,	%esp
	popl	%edi
	popl	%esi
	popl	%ecx
	popl	%ebx
	movl	%eax,	-16(%ebp)
# STRING ("%esp") / 

	movl	$string_7,	-20(%ebp)
	pushl	%ebx
	pushl	%ecx
	pushl	%esi
	pushl	%edi
	pushl	-20(%ebp)
	call	Bstring
	addl	$4,	%esp
	popl	%edi
	popl	%esi
	popl	%ecx
	popl	%ebx
	movl	%eax,	-20(%ebp)
# CALL (".array", 8, false) / 

	pushl	%ebx
	pushl	-20(%ebp)
	pushl	-16(%ebp)
	pushl	-12(%ebp)
	pushl	-8(%ebp)
	pushl	-4(%ebp)
	pushl	%edi
	pushl	%esi
	pushl	%ecx
	pushl	$17
	call	Barray
	addl	$36,	%esp
	popl	%ebx
	movl	%eax,	%ecx
# STI / 

	movl	%ecx,	%eax
	movl	%eax,	(%ebx)
	movl	%eax,	%ebx
# DROP / 

# LINE (15) / 

	.stabn 68,0,15,.L1-initX86

.L1:

# LDA (Global ("nRegs")) / 

	leal	global_nRegs,	%ebx
# LD (Global ("regs")) / 

	movl	global_regs,	%ecx
# CALL (".length", 1, false) / 

	pushl	%ebx
	pushl	%ecx
	call	Blength
	addl	$4,	%esp
	popl	%ebx
	movl	%eax,	%ecx
# CONST (5) / 

	movl	$11,	%esi
# BINOP ("-") / 

	subl	%esi,	%ecx
	orl	$0x0001,	%ecx
# STI / 

	movl	%ecx,	%eax
	movl	%eax,	(%ebx)
	movl	%eax,	%ebx
# DROP / 

# LINE (18) / 

	.stabn 68,0,18,.L2-initX86

.L2:

# LDA (Global ("ebx")) / 

	leal	global_ebx,	%ebx
# CONST (0) / 

	movl	$1,	%ecx
# SEXP ("R", 1) / 

	movl	$89,	%esi
	pushl	%ebx
	pushl	%esi
	pushl	%ecx
	pushl	$5
	call	Bsexp
	addl	$12,	%esp
	popl	%ebx
	movl	%eax,	%ecx
# STI / 

	movl	%ecx,	%eax
	movl	%eax,	(%ebx)
	movl	%eax,	%ebx
# DROP / 

# LINE (19) / 

	.stabn 68,0,19,.L3-initX86

.L3:

# LDA (Global ("ecx")) / 

	leal	global_ecx,	%ebx
# CONST (1) / 

	movl	$3,	%ecx
# SEXP ("R", 1) / 

	movl	$89,	%esi
	pushl	%ebx
	pushl	%esi
	pushl	%ecx
	pushl	$5
	call	Bsexp
	addl	$12,	%esp
	popl	%ebx
	movl	%eax,	%ecx
# STI / 

	movl	%ecx,	%eax
	movl	%eax,	(%ebx)
	movl	%eax,	%ebx
# DROP / 

# LINE (20) / 

	.stabn 68,0,20,.L4-initX86

.L4:

# LDA (Global ("esi")) / 

	leal	global_esi,	%ebx
# CONST (2) / 

	movl	$5,	%ecx
# SEXP ("R", 1) / 

	movl	$89,	%esi
	pushl	%ebx
	pushl	%esi
	pushl	%ecx
	pushl	$5
	call	Bsexp
	addl	$12,	%esp
	popl	%ebx
	movl	%eax,	%ecx
# STI / 

	movl	%ecx,	%eax
	movl	%eax,	(%ebx)
	movl	%eax,	%ebx
# DROP / 

# LINE (21) / 

	.stabn 68,0,21,.L5-initX86

.L5:

# LDA (Global ("edi")) / 

	leal	global_edi,	%ebx
# CONST (3) / 

	movl	$7,	%ecx
# SEXP ("R", 1) / 

	movl	$89,	%esi
	pushl	%ebx
	pushl	%esi
	pushl	%ecx
	pushl	$5
	call	Bsexp
	addl	$12,	%esp
	popl	%ebx
	movl	%eax,	%ecx
# STI / 

	movl	%ecx,	%eax
	movl	%eax,	(%ebx)
	movl	%eax,	%ebx
# DROP / 

# LINE (22) / 

	.stabn 68,0,22,.L6-initX86

.L6:

# LDA (Global ("eax")) / 

	leal	global_eax,	%ebx
# CONST (4) / 

	movl	$9,	%ecx
# SEXP ("R", 1) / 

	movl	$89,	%esi
	pushl	%ebx
	pushl	%esi
	pushl	%ecx
	pushl	$5
	call	Bsexp
	addl	$12,	%esp
	popl	%ebx
	movl	%eax,	%ecx
# STI / 

	movl	%ecx,	%eax
	movl	%eax,	(%ebx)
	movl	%eax,	%ebx
# DROP / 

# LINE (23) / 

	.stabn 68,0,23,.L7-initX86

.L7:

# LDA (Global ("edx")) / 

	leal	global_edx,	%ebx
# CONST (5) / 

	movl	$11,	%ecx
# SEXP ("R", 1) / 

	movl	$89,	%esi
	pushl	%ebx
	pushl	%esi
	pushl	%ecx
	pushl	$5
	call	Bsexp
	addl	$12,	%esp
	popl	%ebx
	movl	%eax,	%ecx
# STI / 

	movl	%ecx,	%eax
	movl	%eax,	(%ebx)
	movl	%eax,	%ebx
# DROP / 

# LINE (24) / 

	.stabn 68,0,24,.L8-initX86

.L8:

# LDA (Global ("ebp")) / 

	leal	global_ebp,	%ebx
# CONST (6) / 

	movl	$13,	%ecx
# SEXP ("R", 1) / 

	movl	$89,	%esi
	pushl	%ebx
	pushl	%esi
	pushl	%ecx
	pushl	$5
	call	Bsexp
	addl	$12,	%esp
	popl	%ebx
	movl	%eax,	%ecx
# STI / 

	movl	%ecx,	%eax
	movl	%eax,	(%ebx)
	movl	%eax,	%ebx
# DROP / 

# LINE (25) / 

	.stabn 68,0,25,.L9-initX86

.L9:

# LDA (Global ("esp")) / 

	leal	global_esp,	%ebx
# CONST (7) / 

	movl	$15,	%ecx
# SEXP ("R", 1) / 

	movl	$89,	%esi
	pushl	%ebx
	pushl	%esi
	pushl	%ecx
	pushl	$5
	call	Bsexp
	addl	$12,	%esp
	popl	%ebx
	movl	%eax,	%ecx
# STI / 

	movl	%ecx,	%eax
	movl	%eax,	(%ebx)
	movl	%eax,	%ebx
# DROP / 

# LINE (28) / 

	.stabn 68,0,28,.L10-initX86

.L10:

# LDA (Global ("wordSize")) / 

	leal	global_wordSize,	%ebx
# CONST (4) / 

	movl	$9,	%ecx
# STI / 

	movl	%ecx,	%eax
	movl	%eax,	(%ebx)
	movl	%eax,	%ebx
# DROP / 

# CONST (0) / 

	movl	$1,	%ebx
# SLABEL ("L2") / 

L2:

# END / 

	movl	%ebx,	%eax
LinitX86_epilogue:

	movl	%ebp,	%esp
	popl	%ebp
	.cfi_restore	5

	.cfi_def_cfa	4, 4

	ret
	.cfi_endproc

	.set	LinitX86_SIZE,	20

	.set	LSinitX86_SIZE,	5

	.size initX86, .-initX86

# LABEL ("LcompileX86") / 

LcompileX86:

# BEGIN ("LcompileX86", 2, 5, [], ["args"; "code"], [{ blab="L67"; elab="L68"; names=[]; subs=[{ blab="L70"; elab="L71"; names=[]; subs=[{ blab="L79"; elab="L80"; names=[("env", 1); ("code", 0)]; subs=[{ blab="L81"; elab="L82"; names=[("asmFile", 3); ("runtime", 2)]; subs=[{ blab="L104"; elab="L105"; names=[("path", 4)]; subs=[{ blab="L106"; elab="L107"; names=[]; subs=[]; }]; }; { blab="L100"; elab="L101"; names=[]; subs=[{ blab="L102"; elab="L103"; names=[]; subs=[]; }]; }]; }]; }]; }]; }]) / 

	.type compileX86, @function

	.stabs "compileX86:F1",36,0,0,LcompileX86

	.stabs "args:p1",160,0,0,8

	.stabs "code:p1",160,0,0,12

	.stabs "env:1",128,0,0,-8

	.stabs "code:1",128,0,0,-4

	.stabn 192,0,0,L79-LcompileX86

	.stabs "asmFile:1",128,0,0,-16

	.stabs "runtime:1",128,0,0,-12

	.stabn 192,0,0,L81-LcompileX86

	.stabs "path:1",128,0,0,-20

	.stabn 192,0,0,L104-LcompileX86

	.stabn 224,0,0,L105-LcompileX86

	.stabn 224,0,0,L82-LcompileX86

	.stabn 224,0,0,L80-LcompileX86

	.cfi_startproc

	.cfi_adjust_cfa_offset	4

	pushl	%ebp
	.cfi_adjust_cfa_offset	4

	movl	%esp,	%ebp
	.cfi_def_cfa_register	5

	subl	$LLcompileX86_SIZE,	%esp
	movl	%esp,	%edi
	movl	$filler,	%esi
	movl	$LSLcompileX86_SIZE,	%ecx
	rep movsl	
# SLABEL ("L67") / 

L67:

# SLABEL ("L70") / 

L70:

# LINE (360) / 

	.stabn 68,0,360,0

	.stabn 68,0,360,.L11-LcompileX86

.L11:

# CALL ("LinitEnv", 0, false) / 

	call	LinitEnv
	addl	$0,	%esp
	movl	%eax,	%ebx
# LD (Arg (1)) / 

	movl	12(%ebp),	%ecx
# CALL ("Lcompile", 2, false) / 

	pushl	%ecx
	pushl	%ebx
	call	Lcompile
	addl	$8,	%esp
	movl	%eax,	%ebx
# DUP / 

	movl	%ebx,	%ecx
# SLABEL ("L79") / 

L79:

# DUP / 

	movl	%ecx,	%esi
# ARRAY (2) / 

	movl	$5,	%edi
	pushl	%ebx
	pushl	%ecx
	pushl	%edi
	pushl	%esi
	call	Barray_patt
	addl	$8,	%esp
	popl	%ecx
	popl	%ebx
	movl	%eax,	%esi
# CJMP ("nz", "L77") / 

	sarl	%esi
	cmpl	$0,	%esi
	jnz	L77
# LABEL ("L78") / 

L78:

# DROP / 

# JMP ("L72") / 

	jmp	L72
# LABEL ("L77") / 

L77:

# DUP / 

	movl	%ecx,	%esi
# CONST (0) / 

	movl	$1,	%edi
# CALL (".elem", 2, false) / 

	pushl	%ebx
	pushl	%ecx
	pushl	%edi
	pushl	%esi
	call	Belem
	addl	$8,	%esp
	popl	%ecx
	popl	%ebx
	movl	%eax,	%esi
# DROP / 

# DUP / 

	movl	%ecx,	%esi
# CONST (1) / 

	movl	$3,	%edi
# CALL (".elem", 2, false) / 

	pushl	%ebx
	pushl	%ecx
	pushl	%edi
	pushl	%esi
	call	Belem
	addl	$8,	%esp
	popl	%ecx
	popl	%ebx
	movl	%eax,	%esi
# DROP / 

# DROP / 

# DUP / 

	movl	%ebx,	%ecx
# CONST (0) / 

	movl	$1,	%esi
# CALL (".elem", 2, false) / 

	pushl	%ebx
	pushl	%esi
	pushl	%ecx
	call	Belem
	addl	$8,	%esp
	popl	%ebx
	movl	%eax,	%ecx
# ST (Local (1)) / 

	movl	%ecx,	-8(%ebp)
# DROP / 

# DUP / 

	movl	%ebx,	%ecx
# CONST (1) / 

	movl	$3,	%esi
# CALL (".elem", 2, false) / 

	pushl	%ebx
	pushl	%esi
	pushl	%ecx
	call	Belem
	addl	$8,	%esp
	popl	%ebx
	movl	%eax,	%ecx
# ST (Local (0)) / 

	movl	%ecx,	-4(%ebp)
# DROP / 

# DROP / 

# SLABEL ("L81") / 

L81:

# LINE (362) / 

	.stabn 68,0,362,.L12-LcompileX86

.L12:

# LDA (Local (3)) / 

	leal	-16(%ebp),	%ebx
# LD (Arg (0)) / 

	movl	8(%ebp),	%ecx
# CALL ("LgetBaseName", 1, false) / 

	pushl	%ebx
	pushl	%ecx
	call	LgetBaseName
	addl	$4,	%esp
	popl	%ebx
	movl	%eax,	%ecx
# STRING (".s") / 

	movl	$string_8,	%esi
	pushl	%ebx
	pushl	%ecx
	pushl	%esi
	call	Bstring
	addl	$4,	%esp
	popl	%ecx
	popl	%ebx
	movl	%eax,	%esi
# CALL ("Li__Infix_4343", 2, false) / 

	pushl	%ebx
	pushl	%esi
	pushl	%ecx
	call	Li__Infix_4343
	addl	$8,	%esp
	popl	%ebx
	movl	%eax,	%ecx
# STI / 

	movl	%ecx,	%eax
	movl	%eax,	(%ebx)
	movl	%eax,	%ebx
# DROP / 

# LINE (363) / 

	.stabn 68,0,363,.L13-LcompileX86

.L13:

# LDA (Local (2)) / 

	leal	-12(%ebp),	%ebx
# STRING ("LAMA_RUNTIME") / 

	movl	$string_9,	%ecx
	pushl	%ebx
	pushl	%ecx
	call	Bstring
	addl	$4,	%esp
	popl	%ebx
	movl	%eax,	%ecx
# CALL ("LgetEnv", 1, false) / 

	pushl	%ebx
	pushl	%ecx
	call	LgetEnv
	addl	$4,	%esp
	popl	%ebx
	movl	%eax,	%ecx
# DUP / 

	movl	%ecx,	%esi
# SLABEL ("L100") / 

L100:

# PATT (UnBoxed) / 

	pushl	%ebx
	pushl	%ecx
	pushl	%esi
	call	Bunboxed_patt
	addl	$4,	%esp
	popl	%ecx
	popl	%ebx
	movl	%eax,	%esi
# CJMP ("z", "L99") / 

	sarl	%esi
	cmpl	$0,	%esi
	jz	L99
# DROP / 

# SLABEL ("L102") / 

L102:

# STRING ("../runtime/") / 

	movl	$string_10,	%ecx
	pushl	%ebx
	pushl	%ecx
	call	Bstring
	addl	$4,	%esp
	popl	%ebx
	movl	%eax,	%ecx
# SLABEL ("L103") / 

L103:

# JMP ("L95") / 

	jmp	L95
# SLABEL ("L101") / 

L101:

# SLABEL ("L104") / 

L104:

# LABEL ("L99") / 

L99:

# DUP / 

	movl	%ecx,	%esi
# DROP / 

# DUP / 

	movl	%ecx,	%esi
# ST (Local (4)) / 

	movl	%esi,	-20(%ebp)
# DROP / 

# DROP / 

# SLABEL ("L106") / 

L106:

# LINE (365) / 

	.stabn 68,0,365,.L14-LcompileX86

.L14:

# LD (Local (4)) / 

	movl	-20(%ebp),	%ecx
# SLABEL ("L107") / 

L107:

# SLABEL ("L105") / 

L105:

# JMP ("L95") / 

	jmp	L95
# LABEL ("L95") / 

L95:

# STRING ("/runtime.o") / 

	movl	$string_11,	%esi
	pushl	%ebx
	pushl	%ecx
	pushl	%esi
	call	Bstring
	addl	$4,	%esp
	popl	%ecx
	popl	%ebx
	movl	%eax,	%esi
# CALL ("Li__Infix_4343", 2, false) / 

	pushl	%ebx
	pushl	%esi
	pushl	%ecx
	call	Li__Infix_4343
	addl	$8,	%esp
	popl	%ebx
	movl	%eax,	%ecx
# STI / 

	movl	%ecx,	%eax
	movl	%eax,	(%ebx)
	movl	%eax,	%ebx
# DROP / 

# LINE (368) / 

	.stabn 68,0,368,.L15-LcompileX86

.L15:

# LD (Local (3)) / 

	movl	-16(%ebp),	%ebx
# LINE (369) / 

	.stabn 68,0,369,.L16-LcompileX86

.L16:

# CLOSURE ("LinsnString", []) / 

	pushl	%ebx
	pushl	$LinsnString
	pushl	$1
	call	Bclosure
	addl	$8,	%esp
	movl	%eax,	%ecx
	popl	%ebx
# LINE (370) / 

	.stabn 68,0,370,.L17-LcompileX86

.L17:

# CLOSURE ("LgetBuffer", []) / 

	pushl	%ebx
	pushl	%ecx
	pushl	$LgetBuffer
	pushl	$1
	call	Bclosure
	addl	$8,	%esp
	movl	%eax,	%esi
	popl	%ecx
	popl	%ebx
# LINE (371) / 

	.stabn 68,0,371,.L18-LcompileX86

.L18:

# STRING ("\\t.global\\tmain\\n") / 

	movl	$string_12,	%edi
	pushl	%ebx
	pushl	%ecx
	pushl	%esi
	pushl	%edi
	call	Bstring
	addl	$4,	%esp
	popl	%esi
	popl	%ecx
	popl	%ebx
	movl	%eax,	%edi
# SEXP ("Meta", 1) / 

	movl	$20490755,	-24(%ebp)
	pushl	%ebx
	pushl	%ecx
	pushl	%esi
	pushl	-24(%ebp)
	pushl	%edi
	pushl	$5
	call	Bsexp
	addl	$12,	%esp
	popl	%esi
	popl	%ecx
	popl	%ebx
	movl	%eax,	%edi
# CALL ("LsingletonBuffer", 1, false) / 

	pushl	%ebx
	pushl	%ecx
	pushl	%esi
	pushl	%edi
	call	LsingletonBuffer
	addl	$4,	%esp
	popl	%esi
	popl	%ecx
	popl	%ebx
	movl	%eax,	%edi
# LINE (372) / 

	.stabn 68,0,372,.L19-LcompileX86

.L19:

# CLOSURE ("LlistBuffer", []) / 

	pushl	%ebx
	pushl	%ecx
	pushl	%esi
	pushl	%edi
	pushl	$LlistBuffer
	pushl	$1
	call	Bclosure
	addl	$8,	%esp
	movl	%eax,	-24(%ebp)
	popl	%edi
	popl	%esi
	popl	%ecx
	popl	%ebx
# CLOSURE ("LdataDef", []) / 

	pushl	%ebx
	pushl	%ecx
	pushl	%esi
	pushl	%edi
	pushl	$LdataDef
	pushl	$1
	call	Bclosure
	addl	$8,	%esp
	movl	%eax,	-28(%ebp)
	popl	%edi
	popl	%esi
	popl	%ecx
	popl	%ebx
# LD (Local (1)) / 

	movl	-8(%ebp),	%eax
	movl	%eax,	-32(%ebp)
# CALL ("LgetGlobals", 1, false) / 

	pushl	%ebx
	pushl	%ecx
	pushl	%esi
	pushl	%edi
	pushl	-32(%ebp)
	call	LgetGlobals
	addl	$4,	%esp
	popl	%edi
	popl	%esi
	popl	%ecx
	popl	%ebx
	movl	%eax,	-32(%ebp)
# CALL ("Lmap", 2, false) / 

	pushl	%ebx
	pushl	%ecx
	pushl	%esi
	pushl	%edi
	pushl	-32(%ebp)
	pushl	-28(%ebp)
	call	Lmap
	addl	$8,	%esp
	popl	%edi
	popl	%esi
	popl	%ecx
	popl	%ebx
	movl	%eax,	-28(%ebp)
# CALL ("Li__Infix_36", 2, false) / 

	pushl	%ebx
	pushl	%ecx
	pushl	%esi
	pushl	%edi
	pushl	-28(%ebp)
	pushl	-24(%ebp)
	call	Li__Infix_36
	addl	$8,	%esp
	popl	%edi
	popl	%esi
	popl	%ecx
	popl	%ebx
	movl	%eax,	-24(%ebp)
# CALL ("LdataSection", 1, false) / 

	pushl	%ebx
	pushl	%ecx
	pushl	%esi
	pushl	%edi
	pushl	-24(%ebp)
	call	LdataSection
	addl	$4,	%esp
	popl	%edi
	popl	%esi
	popl	%ecx
	popl	%ebx
	movl	%eax,	-24(%ebp)
# CALL ("Li__Infix_604362", 2, false) / 

	pushl	%ebx
	pushl	%ecx
	pushl	%esi
	pushl	-24(%ebp)
	pushl	%edi
	call	Li__Infix_604362
	addl	$8,	%esp
	popl	%esi
	popl	%ecx
	popl	%ebx
	movl	%eax,	%edi
# LINE (373) / 

	.stabn 68,0,373,.L20-LcompileX86

.L20:

# LINE (374) / 

	.stabn 68,0,374,.L21-LcompileX86

.L21:

# STRING ("main:\\n") / 

	movl	$string_13,	-24(%ebp)
	pushl	%ebx
	pushl	%ecx
	pushl	%esi
	pushl	%edi
	pushl	-24(%ebp)
	call	Bstring
	addl	$4,	%esp
	popl	%edi
	popl	%esi
	popl	%ecx
	popl	%ebx
	movl	%eax,	-24(%ebp)
# SEXP ("Meta", 1) / 

	movl	$20490755,	-28(%ebp)
	pushl	%ebx
	pushl	%ecx
	pushl	%esi
	pushl	%edi
	pushl	-28(%ebp)
	pushl	-24(%ebp)
	pushl	$5
	call	Bsexp
	addl	$12,	%esp
	popl	%edi
	popl	%esi
	popl	%ecx
	popl	%ebx
	movl	%eax,	-24(%ebp)
# CALL ("LsingletonBuffer", 1, false) / 

	pushl	%ebx
	pushl	%ecx
	pushl	%esi
	pushl	%edi
	pushl	-24(%ebp)
	call	LsingletonBuffer
	addl	$4,	%esp
	popl	%edi
	popl	%esi
	popl	%ecx
	popl	%ebx
	movl	%eax,	-24(%ebp)
# LINE (375) / 

	.stabn 68,0,375,.L22-LcompileX86

.L22:

# LD (Local (1)) / 

	movl	-8(%ebp),	%eax
	movl	%eax,	-28(%ebp)
# CALL ("LgetStackSize", 1, false) / 

	pushl	%ebx
	pushl	%ecx
	pushl	%esi
	pushl	%edi
	pushl	-28(%ebp)
	call	LgetStackSize
	addl	$4,	%esp
	popl	%edi
	popl	%esi
	popl	%ecx
	popl	%ebx
	movl	%eax,	-28(%ebp)
# CALL ("Lprologue", 1, false) / 

	pushl	%ebx
	pushl	%ecx
	pushl	%esi
	pushl	%edi
	pushl	-28(%ebp)
	call	Lprologue
	addl	$4,	%esp
	popl	%edi
	popl	%esi
	popl	%ecx
	popl	%ebx
	movl	%eax,	-28(%ebp)
# CALL ("Li__Infix_604362", 2, false) / 

	pushl	%ebx
	pushl	%ecx
	pushl	%esi
	pushl	%edi
	pushl	-28(%ebp)
	pushl	-24(%ebp)
	call	Li__Infix_604362
	addl	$8,	%esp
	popl	%edi
	popl	%esi
	popl	%ecx
	popl	%ebx
	movl	%eax,	-24(%ebp)
# LINE (376) / 

	.stabn 68,0,376,.L23-LcompileX86

.L23:

# LD (Local (0)) / 

	movl	-4(%ebp),	%eax
	movl	%eax,	-28(%ebp)
# CALL ("Li__Infix_604362", 2, false) / 

	pushl	%ebx
	pushl	%ecx
	pushl	%esi
	pushl	%edi
	pushl	-28(%ebp)
	pushl	-24(%ebp)
	call	Li__Infix_604362
	addl	$8,	%esp
	popl	%edi
	popl	%esi
	popl	%ecx
	popl	%ebx
	movl	%eax,	-24(%ebp)
# LINE (377) / 

	.stabn 68,0,377,.L24-LcompileX86

.L24:

# CALL ("Lepilogue", 0, false) / 

	pushl	%ebx
	pushl	%ecx
	pushl	%esi
	pushl	%edi
	call	Lepilogue
	addl	$0,	%esp
	popl	%edi
	popl	%esi
	popl	%ecx
	popl	%ebx
	movl	%eax,	-28(%ebp)
# CALL ("Li__Infix_604362", 2, false) / 

	pushl	%ebx
	pushl	%ecx
	pushl	%esi
	pushl	%edi
	pushl	-28(%ebp)
	pushl	-24(%ebp)
	call	Li__Infix_604362
	addl	$8,	%esp
	popl	%edi
	popl	%esi
	popl	%ecx
	popl	%ebx
	movl	%eax,	-24(%ebp)
# CALL ("LcodeSection", 1, false) / 

	pushl	%ebx
	pushl	%ecx
	pushl	%esi
	pushl	%edi
	pushl	-24(%ebp)
	call	LcodeSection
	addl	$4,	%esp
	popl	%edi
	popl	%esi
	popl	%ecx
	popl	%ebx
	movl	%eax,	-24(%ebp)
# CALL ("Li__Infix_604362", 2, false) / 

	pushl	%ebx
	pushl	%ecx
	pushl	%esi
	pushl	-24(%ebp)
	pushl	%edi
	call	Li__Infix_604362
	addl	$8,	%esp
	popl	%esi
	popl	%ecx
	popl	%ebx
	movl	%eax,	%edi
# CALL ("Li__Infix_36", 2, false) / 

	pushl	%ebx
	pushl	%ecx
	pushl	%edi
	pushl	%esi
	call	Li__Infix_36
	addl	$8,	%esp
	popl	%ecx
	popl	%ebx
	movl	%eax,	%esi
# CALL ("Lmap", 2, false) / 

	pushl	%ebx
	pushl	%esi
	pushl	%ecx
	call	Lmap
	addl	$8,	%esp
	popl	%ebx
	movl	%eax,	%ecx
# CALL ("Lstringcat", 1, false) / 

	pushl	%ebx
	pushl	%ecx
	call	Lstringcat
	addl	$4,	%esp
	popl	%ebx
	movl	%eax,	%ecx
# CALL ("Lfwrite", 2, false) / 

	pushl	%ecx
	pushl	%ebx
	call	Lfwrite
	addl	$8,	%esp
	movl	%eax,	%ebx
# DROP / 

# LINE (381) / 

	.stabn 68,0,381,.L25-LcompileX86

.L25:

# STRING ("gcc -g -m32 -o ") / 

	movl	$string_14,	%ebx
	pushl	%ebx
	call	Bstring
	addl	$4,	%esp
	movl	%eax,	%ebx
# LD (Arg (0)) / 

	movl	8(%ebp),	%ecx
# CALL ("LgetBaseName", 1, false) / 

	pushl	%ebx
	pushl	%ecx
	call	LgetBaseName
	addl	$4,	%esp
	popl	%ebx
	movl	%eax,	%ecx
# STRING (" ") / 

	movl	$string_15,	%esi
	pushl	%ebx
	pushl	%ecx
	pushl	%esi
	call	Bstring
	addl	$4,	%esp
	popl	%ecx
	popl	%ebx
	movl	%eax,	%esi
# LD (Local (2)) / 

	movl	-12(%ebp),	%edi
# STRING (" ") / 

	movl	$string_15,	-24(%ebp)
	pushl	%ebx
	pushl	%ecx
	pushl	%esi
	pushl	%edi
	pushl	-24(%ebp)
	call	Bstring
	addl	$4,	%esp
	popl	%edi
	popl	%esi
	popl	%ecx
	popl	%ebx
	movl	%eax,	-24(%ebp)
# LD (Local (3)) / 

	movl	-16(%ebp),	%eax
	movl	%eax,	-28(%ebp)
# CONST (0) / 

	movl	$1,	-32(%ebp)
# SEXP ("cons", 2) / 

	movl	$1697575,	-36(%ebp)
	pushl	%ebx
	pushl	%ecx
	pushl	%esi
	pushl	%edi
	pushl	-36(%ebp)
	pushl	-32(%ebp)
	pushl	-28(%ebp)
	pushl	$7
	call	Bsexp
	addl	$16,	%esp
	popl	%edi
	popl	%esi
	popl	%ecx
	popl	%ebx
	movl	%eax,	-28(%ebp)
# SEXP ("cons", 2) / 

	movl	$1697575,	-32(%ebp)
	pushl	%ebx
	pushl	%ecx
	pushl	%esi
	pushl	%edi
	pushl	-32(%ebp)
	pushl	-28(%ebp)
	pushl	-24(%ebp)
	pushl	$7
	call	Bsexp
	addl	$16,	%esp
	popl	%edi
	popl	%esi
	popl	%ecx
	popl	%ebx
	movl	%eax,	-24(%ebp)
# SEXP ("cons", 2) / 

	movl	$1697575,	-28(%ebp)
	pushl	%ebx
	pushl	%ecx
	pushl	%esi
	pushl	-28(%ebp)
	pushl	-24(%ebp)
	pushl	%edi
	pushl	$7
	call	Bsexp
	addl	$16,	%esp
	popl	%esi
	popl	%ecx
	popl	%ebx
	movl	%eax,	%edi
# SEXP ("cons", 2) / 

	movl	$1697575,	-24(%ebp)
	pushl	%ebx
	pushl	%ecx
	pushl	-24(%ebp)
	pushl	%edi
	pushl	%esi
	pushl	$7
	call	Bsexp
	addl	$16,	%esp
	popl	%ecx
	popl	%ebx
	movl	%eax,	%esi
# SEXP ("cons", 2) / 

	movl	$1697575,	%edi
	pushl	%ebx
	pushl	%edi
	pushl	%esi
	pushl	%ecx
	pushl	$7
	call	Bsexp
	addl	$16,	%esp
	popl	%ebx
	movl	%eax,	%ecx
# SEXP ("cons", 2) / 

	movl	$1697575,	%esi
	pushl	%esi
	pushl	%ecx
	pushl	%ebx
	pushl	$7
	call	Bsexp
	addl	$16,	%esp
	movl	%eax,	%ebx
# CALL ("Lstringcat", 1, false) / 

	pushl	%ebx
	call	Lstringcat
	addl	$4,	%esp
	movl	%eax,	%ebx
# CALL ("Lsystem", 1, true) / 

	pushl	%ebx
	call	Lsystem
	addl	$4,	%esp
	movl	%eax,	%ebx
# SLABEL ("L82") / 

L82:

# SLABEL ("L80") / 

L80:

# JMP ("L69") / 

	jmp	L69
# LABEL ("L72") / 

L72:

# FAIL ((360, 8), true) / 

	pushl	$17
	pushl	$721
	pushl	$string_16
	pushl	%ebx
	call	Bmatch_failure
	addl	$12,	%esp
# JMP ("L69") / 

	jmp	L69
# SLABEL ("L71") / 

L71:

# LABEL ("L69") / 

L69:

# SLABEL ("L68") / 

L68:

# END / 

	movl	%ebx,	%eax
LLcompileX86_epilogue:

	movl	%ebp,	%esp
	popl	%ebp
	.cfi_restore	5

	.cfi_def_cfa	4, 4

	ret
	.cfi_endproc

	.set	LLcompileX86_SIZE,	36

	.set	LSLcompileX86_SIZE,	9

	.size LcompileX86, .-LcompileX86

# LABEL ("Lcompile") / 

Lcompile:

# BEGIN ("Lcompile", 2, 0, [], ["env"; "code"], [{ blab="L156"; elab="L157"; names=[]; subs=[{ blab="L159"; elab="L160"; names=[]; subs=[]; }]; }]) / 

	.type compile, @function

	.stabs "compile:F1",36,0,0,Lcompile

	.stabs "env:p1",160,0,0,8

	.stabs "code:p1",160,0,0,12

	.cfi_startproc

	.cfi_adjust_cfa_offset	4

	pushl	%ebp
	.cfi_adjust_cfa_offset	4

	movl	%esp,	%ebp
	.cfi_def_cfa_register	5

	subl	$LLcompile_SIZE,	%esp
	movl	%esp,	%edi
	movl	$filler,	%esi
	movl	$LSLcompile_SIZE,	%ecx
	rep movsl	
# SLABEL ("L156") / 

L156:

# SLABEL ("L159") / 

L159:

# LINE (354) / 

	.stabn 68,0,354,0

	.stabn 68,0,354,.L26-Lcompile

.L26:

# LD (Arg (0)) / 

	movl	8(%ebp),	%ebx
# LD (Arg (1)) / 

	movl	12(%ebp),	%ecx
# CALL ("Lcompile_11", 2, true) / 

	movl	%ebx,	8(%ebp)
	movl	%ecx,	12(%ebp)
	movl	%ebp,	%esp
	popl	%ebp
	jmp	Lcompile_11
# SLABEL ("L160") / 

L160:

# SLABEL ("L157") / 

L157:

# END / 

	movl	%ebx,	%eax
LLcompile_epilogue:

	movl	%ebp,	%esp
	popl	%ebp
	.cfi_restore	5

	.cfi_def_cfa	4, 4

	ret
	.cfi_endproc

	.set	LLcompile_SIZE,	0

	.set	LSLcompile_SIZE,	0

	.size Lcompile, .-Lcompile

# LABEL ("Lcompile_11") / 

Lcompile_11:

# BEGIN ("Lcompile_11", 2, 0, [], ["env"; "code"], [{ blab="L163"; elab="L164"; names=[]; subs=[{ blab="L166"; elab="L167"; names=[]; subs=[]; }]; }]) / 

	.type compile_11, @function

	.stabs "compile_11:F1",36,0,0,Lcompile_11

	.stabs "env:p1",160,0,0,8

	.stabs "code:p1",160,0,0,12

	.cfi_startproc

	.cfi_adjust_cfa_offset	4

	pushl	%ebp
	.cfi_adjust_cfa_offset	4

	movl	%esp,	%ebp
	.cfi_def_cfa_register	5

	subl	$LLcompile_11_SIZE,	%esp
	movl	%esp,	%edi
	movl	$filler,	%esi
	movl	$LSLcompile_11_SIZE,	%ecx
	rep movsl	
# SLABEL ("L163") / 

L163:

# SLABEL ("L166") / 

L166:

# LINE (300) / 

	.stabn 68,0,300,0

	.stabn 68,0,300,.L27-Lcompile_11

.L27:

# LINE (301) / 

	.stabn 68,0,301,.L28-Lcompile_11

.L28:

# CLOSURE ("Llambda_0_13", []) / 

	pushl	$Llambda_0_13
	pushl	$1
	call	Bclosure
	addl	$8,	%esp
	movl	%eax,	%ebx
# LINE (351) / 

	.stabn 68,0,351,.L29-Lcompile_11

.L29:

# LD (Arg (0)) / 

	movl	8(%ebp),	%ecx
# CALL ("LemptyBuffer", 0, false) / 

	pushl	%ebx
	pushl	%ecx
	call	LemptyBuffer
	addl	$0,	%esp
	popl	%ecx
	popl	%ebx
	movl	%eax,	%esi
# CALL (".array", 2, false) / 

	pushl	%ebx
	pushl	%esi
	pushl	%ecx
	pushl	$5
	call	Barray
	addl	$12,	%esp
	popl	%ebx
	movl	%eax,	%ecx
# LD (Arg (1)) / 

	movl	12(%ebp),	%esi
# CALL ("Lfoldl", 3, true) / 

	pushl	%esi
	pushl	%ecx
	pushl	%ebx
	call	Lfoldl
	addl	$12,	%esp
	movl	%eax,	%ebx
# SLABEL ("L167") / 

L167:

# SLABEL ("L164") / 

L164:

# END / 

	movl	%ebx,	%eax
LLcompile_11_epilogue:

	movl	%ebp,	%esp
	popl	%ebp
	.cfi_restore	5

	.cfi_def_cfa	4, 4

	ret
	.cfi_endproc

	.set	LLcompile_11_SIZE,	0

	.set	LSLcompile_11_SIZE,	0

	.size Lcompile_11, .-Lcompile_11

# LABEL ("Llambda_0_13") / 

Llambda_0_13:

# BEGIN ("Llambda_0_13", 2, 10, [], ["__tmp0"; "i"], [{ blab="L174"; elab="L175"; names=[]; subs=[{ blab="L181"; elab="L182"; names=[("env", 1); ("scode", 0)]; subs=[{ blab="L183"; elab="L184"; names=[("code", 2)]; subs=[{ blab="L545"; elab="L546"; names=[("znz", 4); ("l", 3)]; subs=[{ blab="L547"; elab="L548"; names=[]; subs=[{ blab="L554"; elab="L555"; names=[("s", 6); ("env", 5)]; subs=[{ blab="L556"; elab="L557"; names=[]; subs=[]; }]; }]; }]; }; { blab="L534"; elab="L535"; names=[("l", 3)]; subs=[{ blab="L536"; elab="L537"; names=[]; subs=[]; }]; }; { blab="L522"; elab="L523"; names=[("l", 3)]; subs=[{ blab="L524"; elab="L525"; names=[]; subs=[]; }]; }; { blab="L327"; elab="L328"; names=[("op", 3)]; subs=[{ blab="L329"; elab="L330"; names=[]; subs=[{ blab="L336"; elab="L337"; names=[("s2", 6); ("s1", 5); ("env", 4)]; subs=[{ blab="L338"; elab="L339"; names=[]; subs=[{ blab="L345"; elab="L346"; names=[("s", 8); ("env", 7)]; subs=[{ blab="L347"; elab="L348"; names=[]; subs=[{ blab="L463"; elab="L464"; names=[("op", 9)]; subs=[{ blab="L465"; elab="L466"; names=[]; subs=[{ blab="L490"; elab="L491"; names=[]; subs=[{ blab="L492"; elab="L493"; names=[]; subs=[]; }]; }; { blab="L471"; elab="L472"; names=[]; subs=[{ blab="L473"; elab="L474"; names=[]; subs=[]; }]; }]; }]; }; { blab="L429"; elab="L430"; names=[]; subs=[{ blab="L431"; elab="L432"; names=[]; subs=[]; }]; }; { blab="L394"; elab="L395"; names=[]; subs=[{ blab="L396"; elab="L397"; names=[]; subs=[]; }]; }; { blab="L373"; elab="L374"; names=[]; subs=[{ blab="L375"; elab="L376"; names=[]; subs=[]; }]; }; { blab="L352"; elab="L353"; names=[]; subs=[{ blab="L354"; elab="L355"; names=[]; subs=[]; }]; }]; }]; }]; }]; }]; }]; }; { blab="L303"; elab="L304"; names=[("x", 3)]; subs=[{ blab="L305"; elab="L306"; names=[]; subs=[{ blab="L312"; elab="L313"; names=[("s", 5); ("env", 4)]; subs=[{ blab="L314"; elab="L315"; names=[]; subs=[]; }]; }]; }]; }; { blab="L277"; elab="L278"; names=[("x", 3)]; subs=[{ blab="L279"; elab="L280"; names=[]; subs=[{ blab="L288"; elab="L289"; names=[("s", 5); ("env", 4)]; subs=[{ blab="L290"; elab="L291"; names=[]; subs=[]; }]; }]; }]; }; { blab="L254"; elab="L255"; names=[("x", 3)]; subs=[{ blab="L256"; elab="L257"; names=[]; subs=[{ blab="L263"; elab="L264"; names=[("s", 5); ("env", 4)]; subs=[{ blab="L265"; elab="L266"; names=[]; subs=[]; }]; }]; }]; }; { blab="L227"; elab="L228"; names=[]; subs=[{ blab="L229"; elab="L230"; names=[]; subs=[{ blab="L236"; elab="L237"; names=[("s", 4); ("env", 3)]; subs=[{ blab="L238"; elab="L239"; names=[]; subs=[]; }]; }]; }]; }; { blab="L202"; elab="L203"; names=[]; subs=[{ blab="L204"; elab="L205"; names=[]; subs=[{ blab="L211"; elab="L212"; names=[("s", 4); ("env", 3)]; subs=[{ blab="L213"; elab="L214"; names=[]; subs=[]; }]; }]; }]; }]; }]; }]; }]) / 

	.type lambda_0_13, @function

	.stabs "lambda_0_13:F1",36,0,0,Llambda_0_13

	.stabs "__tmp0:p1",160,0,0,8

	.stabs "i:p1",160,0,0,12

	.stabs "env:1",128,0,0,-8

	.stabs "scode:1",128,0,0,-4

	.stabn 192,0,0,L181-Llambda_0_13

	.stabs "code:1",128,0,0,-12

	.stabn 192,0,0,L183-Llambda_0_13

	.stabs "znz:1",128,0,0,-20

	.stabs "l:1",128,0,0,-16

	.stabn 192,0,0,L545-Llambda_0_13

	.stabs "s:1",128,0,0,-28

	.stabs "env:1",128,0,0,-24

	.stabn 192,0,0,L554-Llambda_0_13

	.stabn 224,0,0,L555-Llambda_0_13

	.stabn 224,0,0,L546-Llambda_0_13

	.stabs "l:1",128,0,0,-16

	.stabn 192,0,0,L534-Llambda_0_13

	.stabn 224,0,0,L535-Llambda_0_13

	.stabs "l:1",128,0,0,-16

	.stabn 192,0,0,L522-Llambda_0_13

	.stabn 224,0,0,L523-Llambda_0_13

	.stabs "op:1",128,0,0,-16

	.stabn 192,0,0,L327-Llambda_0_13

	.stabs "s2:1",128,0,0,-28

	.stabs "s1:1",128,0,0,-24

	.stabs "env:1",128,0,0,-20

	.stabn 192,0,0,L336-Llambda_0_13

	.stabs "s:1",128,0,0,-36

	.stabs "env:1",128,0,0,-32

	.stabn 192,0,0,L345-Llambda_0_13

	.stabs "op:1",128,0,0,-40

	.stabn 192,0,0,L463-Llambda_0_13

	.stabn 224,0,0,L464-Llambda_0_13

	.stabn 224,0,0,L346-Llambda_0_13

	.stabn 224,0,0,L337-Llambda_0_13

	.stabn 224,0,0,L328-Llambda_0_13

	.stabs "x:1",128,0,0,-16

	.stabn 192,0,0,L303-Llambda_0_13

	.stabs "s:1",128,0,0,-24

	.stabs "env:1",128,0,0,-20

	.stabn 192,0,0,L312-Llambda_0_13

	.stabn 224,0,0,L313-Llambda_0_13

	.stabn 224,0,0,L304-Llambda_0_13

	.stabs "x:1",128,0,0,-16

	.stabn 192,0,0,L277-Llambda_0_13

	.stabs "s:1",128,0,0,-24

	.stabs "env:1",128,0,0,-20

	.stabn 192,0,0,L288-Llambda_0_13

	.stabn 224,0,0,L289-Llambda_0_13

	.stabn 224,0,0,L278-Llambda_0_13

	.stabs "x:1",128,0,0,-16

	.stabn 192,0,0,L254-Llambda_0_13

	.stabs "s:1",128,0,0,-24

	.stabs "env:1",128,0,0,-20

	.stabn 192,0,0,L263-Llambda_0_13

	.stabn 224,0,0,L264-Llambda_0_13

	.stabn 224,0,0,L255-Llambda_0_13

	.stabs "s:1",128,0,0,-20

	.stabs "env:1",128,0,0,-16

	.stabn 192,0,0,L236-Llambda_0_13

	.stabn 224,0,0,L237-Llambda_0_13

	.stabs "s:1",128,0,0,-20

	.stabs "env:1",128,0,0,-16

	.stabn 192,0,0,L211-Llambda_0_13

	.stabn 224,0,0,L212-Llambda_0_13

	.stabn 224,0,0,L184-Llambda_0_13

	.stabn 224,0,0,L182-Llambda_0_13

	.cfi_startproc

	.cfi_adjust_cfa_offset	4

	pushl	%ebp
	.cfi_adjust_cfa_offset	4

	movl	%esp,	%ebp
	.cfi_def_cfa_register	5

	subl	$LLlambda_0_13_SIZE,	%esp
	movl	%esp,	%edi
	movl	$filler,	%esi
	movl	$LSLlambda_0_13_SIZE,	%ecx
	rep movsl	
# SLABEL ("L174") / 

L174:

# LD (Arg (0)) / 

	movl	8(%ebp),	%ebx
# DUP / 

	movl	%ebx,	%ecx
# SLABEL ("L181") / 

L181:

# DUP / 

	movl	%ecx,	%esi
# ARRAY (2) / 

	movl	$5,	%edi
	pushl	%ebx
	pushl	%ecx
	pushl	%edi
	pushl	%esi
	call	Barray_patt
	addl	$8,	%esp
	popl	%ecx
	popl	%ebx
	movl	%eax,	%esi
# CJMP ("nz", "L179") / 

	sarl	%esi
	cmpl	$0,	%esi
	jnz	L179
# LABEL ("L180") / 

L180:

# DROP / 

# JMP ("L177") / 

	jmp	L177
# LABEL ("L179") / 

L179:

# DUP / 

	movl	%ecx,	%esi
# CONST (0) / 

	movl	$1,	%edi
# CALL (".elem", 2, false) / 

	pushl	%ebx
	pushl	%ecx
	pushl	%edi
	pushl	%esi
	call	Belem
	addl	$8,	%esp
	popl	%ecx
	popl	%ebx
	movl	%eax,	%esi
# DROP / 

# DUP / 

	movl	%ecx,	%esi
# CONST (1) / 

	movl	$3,	%edi
# CALL (".elem", 2, false) / 

	pushl	%ebx
	pushl	%ecx
	pushl	%edi
	pushl	%esi
	call	Belem
	addl	$8,	%esp
	popl	%ecx
	popl	%ebx
	movl	%eax,	%esi
# DROP / 

# DROP / 

# DUP / 

	movl	%ebx,	%ecx
# CONST (0) / 

	movl	$1,	%esi
# CALL (".elem", 2, false) / 

	pushl	%ebx
	pushl	%esi
	pushl	%ecx
	call	Belem
	addl	$8,	%esp
	popl	%ebx
	movl	%eax,	%ecx
# ST (Local (1)) / 

	movl	%ecx,	-8(%ebp)
# DROP / 

# DUP / 

	movl	%ebx,	%ecx
# CONST (1) / 

	movl	$3,	%esi
# CALL (".elem", 2, false) / 

	pushl	%ebx
	pushl	%esi
	pushl	%ecx
	call	Belem
	addl	$8,	%esp
	popl	%ebx
	movl	%eax,	%ecx
# ST (Local (0)) / 

	movl	%ecx,	-4(%ebp)
# DROP / 

# DROP / 

# SLABEL ("L183") / 

L183:

# LINE (302) / 

	.stabn 68,0,302,0

	.stabn 68,0,302,.L30-Llambda_0_13

.L30:

# LDA (Local (2)) / 

	leal	-12(%ebp),	%ebx
# LD (Local (0)) / 

	movl	-4(%ebp),	%ecx
# STRING ("# ") / 

	movl	$string_17,	%esi
	pushl	%ebx
	pushl	%ecx
	pushl	%esi
	call	Bstring
	addl	$4,	%esp
	popl	%ecx
	popl	%ebx
	movl	%eax,	%esi
# LD (Arg (1)) / 

	movl	12(%ebp),	%edi
# CALL ("LshowSMInsn", 1, false) / 

	pushl	%ebx
	pushl	%ecx
	pushl	%esi
	pushl	%edi
	call	LshowSMInsn
	addl	$4,	%esp
	popl	%esi
	popl	%ecx
	popl	%ebx
	movl	%eax,	%edi
# CALL ("Li__Infix_4343", 2, false) / 

	pushl	%ebx
	pushl	%ecx
	pushl	%edi
	pushl	%esi
	call	Li__Infix_4343
	addl	$8,	%esp
	popl	%ecx
	popl	%ebx
	movl	%eax,	%esi
# STRING ("\\n") / 

	movl	$string_18,	%edi
	pushl	%ebx
	pushl	%ecx
	pushl	%esi
	pushl	%edi
	call	Bstring
	addl	$4,	%esp
	popl	%esi
	popl	%ecx
	popl	%ebx
	movl	%eax,	%edi
# CALL ("Li__Infix_4343", 2, false) / 

	pushl	%ebx
	pushl	%ecx
	pushl	%edi
	pushl	%esi
	call	Li__Infix_4343
	addl	$8,	%esp
	popl	%ecx
	popl	%ebx
	movl	%eax,	%esi
# SEXP ("Meta", 1) / 

	movl	$20490755,	%edi
	pushl	%ebx
	pushl	%ecx
	pushl	%edi
	pushl	%esi
	pushl	$5
	call	Bsexp
	addl	$12,	%esp
	popl	%ecx
	popl	%ebx
	movl	%eax,	%esi
# CALL ("Li__Infix_6043", 2, false) / 

	pushl	%ebx
	pushl	%esi
	pushl	%ecx
	call	Li__Infix_6043
	addl	$8,	%esp
	popl	%ebx
	movl	%eax,	%ecx
# STI / 

	movl	%ecx,	%eax
	movl	%eax,	(%ebx)
	movl	%eax,	%ebx
# DROP / 

# LINE (303) / 

	.stabn 68,0,303,.L31-Llambda_0_13

.L31:

# LD (Arg (1)) / 

	movl	12(%ebp),	%ebx
# DUP / 

	movl	%ebx,	%ecx
# SLABEL ("L202") / 

L202:

# DUP / 

	movl	%ecx,	%esi
# TAG ("READ", 0) / 

	movl	$23326141,	%edi
	movl	$1,	-44(%ebp)
	pushl	%ebx
	pushl	%ecx
	pushl	-44(%ebp)
	pushl	%edi
	pushl	%esi
	call	Btag
	addl	$12,	%esp
	popl	%ecx
	popl	%ebx
	movl	%eax,	%esi
# CJMP ("nz", "L200") / 

	sarl	%esi
	cmpl	$0,	%esi
	jnz	L200
# LABEL ("L201") / 

L201:

# DROP / 

# JMP ("L199") / 

	jmp	L199
# LABEL ("L200") / 

L200:

# DROP / 

# DROP / 

# SLABEL ("L204") / 

L204:

# LINE (305) / 

	.stabn 68,0,305,.L32-Llambda_0_13

.L32:

# LD (Local (1)) / 

	movl	-8(%ebp),	%ebx
# CALL ("Lallocate", 1, false) / 

	pushl	%ebx
	call	Lallocate
	addl	$4,	%esp
	movl	%eax,	%ebx
# DUP / 

	movl	%ebx,	%ecx
# SLABEL ("L211") / 

L211:

# DUP / 

	movl	%ecx,	%esi
# ARRAY (2) / 

	movl	$5,	%edi
	pushl	%ebx
	pushl	%ecx
	pushl	%edi
	pushl	%esi
	call	Barray_patt
	addl	$8,	%esp
	popl	%ecx
	popl	%ebx
	movl	%eax,	%esi
# CJMP ("nz", "L209") / 

	sarl	%esi
	cmpl	$0,	%esi
	jnz	L209
# LABEL ("L210") / 

L210:

# DROP / 

# JMP ("L206") / 

	jmp	L206
# LABEL ("L209") / 

L209:

# DUP / 

	movl	%ecx,	%esi
# CONST (0) / 

	movl	$1,	%edi
# CALL (".elem", 2, false) / 

	pushl	%ebx
	pushl	%ecx
	pushl	%edi
	pushl	%esi
	call	Belem
	addl	$8,	%esp
	popl	%ecx
	popl	%ebx
	movl	%eax,	%esi
# DROP / 

# DUP / 

	movl	%ecx,	%esi
# CONST (1) / 

	movl	$3,	%edi
# CALL (".elem", 2, false) / 

	pushl	%ebx
	pushl	%ecx
	pushl	%edi
	pushl	%esi
	call	Belem
	addl	$8,	%esp
	popl	%ecx
	popl	%ebx
	movl	%eax,	%esi
# DROP / 

# DROP / 

# DUP / 

	movl	%ebx,	%ecx
# CONST (0) / 

	movl	$1,	%esi
# CALL (".elem", 2, false) / 

	pushl	%ebx
	pushl	%esi
	pushl	%ecx
	call	Belem
	addl	$8,	%esp
	popl	%ebx
	movl	%eax,	%ecx
# ST (Local (4)) / 

	movl	%ecx,	-20(%ebp)
# DROP / 

# DUP / 

	movl	%ebx,	%ecx
# CONST (1) / 

	movl	$3,	%esi
# CALL (".elem", 2, false) / 

	pushl	%ebx
	pushl	%esi
	pushl	%ecx
	call	Belem
	addl	$8,	%esp
	popl	%ebx
	movl	%eax,	%ecx
# ST (Local (3)) / 

	movl	%ecx,	-16(%ebp)
# DROP / 

# DROP / 

# SLABEL ("L213") / 

L213:

# LINE (306) / 

	.stabn 68,0,306,.L33-Llambda_0_13

.L33:

# LD (Local (3)) / 

	movl	-16(%ebp),	%ebx
# LD (Local (2)) / 

	movl	-12(%ebp),	%ecx
# STRING ("Lread") / 

	movl	$string_19,	%esi
	pushl	%ebx
	pushl	%ecx
	pushl	%esi
	call	Bstring
	addl	$4,	%esp
	popl	%ecx
	popl	%ebx
	movl	%eax,	%esi
# SEXP ("Call", 1) / 

	movl	$15214105,	%edi
	pushl	%ebx
	pushl	%ecx
	pushl	%edi
	pushl	%esi
	pushl	$5
	call	Bsexp
	addl	$12,	%esp
	popl	%ecx
	popl	%ebx
	movl	%eax,	%esi
# CALL ("Li__Infix_6043", 2, false) / 

	pushl	%ebx
	pushl	%esi
	pushl	%ecx
	call	Li__Infix_6043
	addl	$8,	%esp
	popl	%ebx
	movl	%eax,	%ecx
# LD (Global ("eax")) / 

	movl	global_eax,	%esi
# LD (Local (4)) / 

	movl	-20(%ebp),	%edi
# SEXP ("Mov", 2) / 

	movl	$321453,	-44(%ebp)
	pushl	%ebx
	pushl	%ecx
	pushl	-44(%ebp)
	pushl	%edi
	pushl	%esi
	pushl	$7
	call	Bsexp
	addl	$16,	%esp
	popl	%ecx
	popl	%ebx
	movl	%eax,	%esi
# CALL ("Li__Infix_6043", 2, false) / 

	pushl	%ebx
	pushl	%esi
	pushl	%ecx
	call	Li__Infix_6043
	addl	$8,	%esp
	popl	%ebx
	movl	%eax,	%ecx
# CALL (".array", 2, true) / 

	pushl	%ecx
	pushl	%ebx
	pushl	$5
	call	Barray
	addl	$12,	%esp
	movl	%eax,	%ebx
# SLABEL ("L214") / 

L214:

# SLABEL ("L212") / 

L212:

# JMP ("L176") / 

	jmp	L176
# LABEL ("L206") / 

L206:

# FAIL ((305, 18), true) / 

	pushl	$37
	pushl	$611
	pushl	$string_16
	pushl	%ebx
	call	Bmatch_failure
	addl	$12,	%esp
# JMP ("L176") / 

	jmp	L176
# SLABEL ("L205") / 

L205:

# JMP ("L176") / 

	jmp	L176
# SLABEL ("L203") / 

L203:

# SLABEL ("L227") / 

L227:

# LABEL ("L199") / 

L199:

# DUP / 

	movl	%ebx,	%ecx
# DUP / 

	movl	%ecx,	%esi
# TAG ("WRITE", 0) / 

	movl	$1667528511,	%edi
	movl	$1,	-44(%ebp)
	pushl	%ebx
	pushl	%ecx
	pushl	-44(%ebp)
	pushl	%edi
	pushl	%esi
	call	Btag
	addl	$12,	%esp
	popl	%ecx
	popl	%ebx
	movl	%eax,	%esi
# CJMP ("nz", "L225") / 

	sarl	%esi
	cmpl	$0,	%esi
	jnz	L225
# LABEL ("L226") / 

L226:

# DROP / 

# JMP ("L224") / 

	jmp	L224
# LABEL ("L225") / 

L225:

# DROP / 

# DROP / 

# SLABEL ("L229") / 

L229:

# LINE (309) / 

	.stabn 68,0,309,.L34-Llambda_0_13

.L34:

# LD (Local (1)) / 

	movl	-8(%ebp),	%ebx
# CALL ("Lpop", 1, false) / 

	pushl	%ebx
	call	Lpop
	addl	$4,	%esp
	movl	%eax,	%ebx
# DUP / 

	movl	%ebx,	%ecx
# SLABEL ("L236") / 

L236:

# DUP / 

	movl	%ecx,	%esi
# ARRAY (2) / 

	movl	$5,	%edi
	pushl	%ebx
	pushl	%ecx
	pushl	%edi
	pushl	%esi
	call	Barray_patt
	addl	$8,	%esp
	popl	%ecx
	popl	%ebx
	movl	%eax,	%esi
# CJMP ("nz", "L234") / 

	sarl	%esi
	cmpl	$0,	%esi
	jnz	L234
# LABEL ("L235") / 

L235:

# DROP / 

# JMP ("L231") / 

	jmp	L231
# LABEL ("L234") / 

L234:

# DUP / 

	movl	%ecx,	%esi
# CONST (0) / 

	movl	$1,	%edi
# CALL (".elem", 2, false) / 

	pushl	%ebx
	pushl	%ecx
	pushl	%edi
	pushl	%esi
	call	Belem
	addl	$8,	%esp
	popl	%ecx
	popl	%ebx
	movl	%eax,	%esi
# DROP / 

# DUP / 

	movl	%ecx,	%esi
# CONST (1) / 

	movl	$3,	%edi
# CALL (".elem", 2, false) / 

	pushl	%ebx
	pushl	%ecx
	pushl	%edi
	pushl	%esi
	call	Belem
	addl	$8,	%esp
	popl	%ecx
	popl	%ebx
	movl	%eax,	%esi
# DROP / 

# DROP / 

# DUP / 

	movl	%ebx,	%ecx
# CONST (0) / 

	movl	$1,	%esi
# CALL (".elem", 2, false) / 

	pushl	%ebx
	pushl	%esi
	pushl	%ecx
	call	Belem
	addl	$8,	%esp
	popl	%ebx
	movl	%eax,	%ecx
# ST (Local (4)) / 

	movl	%ecx,	-20(%ebp)
# DROP / 

# DUP / 

	movl	%ebx,	%ecx
# CONST (1) / 

	movl	$3,	%esi
# CALL (".elem", 2, false) / 

	pushl	%ebx
	pushl	%esi
	pushl	%ecx
	call	Belem
	addl	$8,	%esp
	popl	%ebx
	movl	%eax,	%ecx
# ST (Local (3)) / 

	movl	%ecx,	-16(%ebp)
# DROP / 

# DROP / 

# SLABEL ("L238") / 

L238:

# LINE (310) / 

	.stabn 68,0,310,.L35-Llambda_0_13

.L35:

# LD (Local (3)) / 

	movl	-16(%ebp),	%ebx
# LD (Local (2)) / 

	movl	-12(%ebp),	%ecx
# LD (Local (4)) / 

	movl	-20(%ebp),	%esi
# SEXP ("Push", 1) / 

	movl	$22194577,	%edi
	pushl	%ebx
	pushl	%ecx
	pushl	%edi
	pushl	%esi
	pushl	$5
	call	Bsexp
	addl	$12,	%esp
	popl	%ecx
	popl	%ebx
	movl	%eax,	%esi
# CALL ("Li__Infix_6043", 2, false) / 

	pushl	%ebx
	pushl	%esi
	pushl	%ecx
	call	Li__Infix_6043
	addl	$8,	%esp
	popl	%ebx
	movl	%eax,	%ecx
# STRING ("Lwrite") / 

	movl	$string_20,	%esi
	pushl	%ebx
	pushl	%ecx
	pushl	%esi
	call	Bstring
	addl	$4,	%esp
	popl	%ecx
	popl	%ebx
	movl	%eax,	%esi
# SEXP ("Call", 1) / 

	movl	$15214105,	%edi
	pushl	%ebx
	pushl	%ecx
	pushl	%edi
	pushl	%esi
	pushl	$5
	call	Bsexp
	addl	$12,	%esp
	popl	%ecx
	popl	%ebx
	movl	%eax,	%esi
# CALL ("Li__Infix_6043", 2, false) / 

	pushl	%ebx
	pushl	%esi
	pushl	%ecx
	call	Li__Infix_6043
	addl	$8,	%esp
	popl	%ebx
	movl	%eax,	%ecx
# LD (Global ("eax")) / 

	movl	global_eax,	%esi
# SEXP ("Pop", 1) / 

	movl	$346017,	%edi
	pushl	%ebx
	pushl	%ecx
	pushl	%edi
	pushl	%esi
	pushl	$5
	call	Bsexp
	addl	$12,	%esp
	popl	%ecx
	popl	%ebx
	movl	%eax,	%esi
# CALL ("Li__Infix_6043", 2, false) / 

	pushl	%ebx
	pushl	%esi
	pushl	%ecx
	call	Li__Infix_6043
	addl	$8,	%esp
	popl	%ebx
	movl	%eax,	%ecx
# CALL (".array", 2, true) / 

	pushl	%ecx
	pushl	%ebx
	pushl	$5
	call	Barray
	addl	$12,	%esp
	movl	%eax,	%ebx
# SLABEL ("L239") / 

L239:

# SLABEL ("L237") / 

L237:

# JMP ("L176") / 

	jmp	L176
# LABEL ("L231") / 

L231:

# FAIL ((309, 18), true) / 

	pushl	$37
	pushl	$619
	pushl	$string_16
	pushl	%ebx
	call	Bmatch_failure
	addl	$12,	%esp
# JMP ("L176") / 

	jmp	L176
# SLABEL ("L230") / 

L230:

# JMP ("L176") / 

	jmp	L176
# SLABEL ("L228") / 

L228:

# SLABEL ("L254") / 

L254:

# LABEL ("L224") / 

L224:

# DUP / 

	movl	%ebx,	%ecx
# DUP / 

	movl	%ecx,	%esi
# TAG ("CONST", 1) / 

	movl	$994907869,	%edi
	movl	$3,	-44(%ebp)
	pushl	%ebx
	pushl	%ecx
	pushl	-44(%ebp)
	pushl	%edi
	pushl	%esi
	call	Btag
	addl	$12,	%esp
	popl	%ecx
	popl	%ebx
	movl	%eax,	%esi
# CJMP ("nz", "L252") / 

	sarl	%esi
	cmpl	$0,	%esi
	jnz	L252
# LABEL ("L253") / 

L253:

# DROP / 

# JMP ("L251") / 

	jmp	L251
# LABEL ("L252") / 

L252:

# DUP / 

	movl	%ecx,	%esi
# CONST (0) / 

	movl	$1,	%edi
# CALL (".elem", 2, false) / 

	pushl	%ebx
	pushl	%ecx
	pushl	%edi
	pushl	%esi
	call	Belem
	addl	$8,	%esp
	popl	%ecx
	popl	%ebx
	movl	%eax,	%esi
# DROP / 

# DROP / 

# DUP / 

	movl	%ebx,	%ecx
# CONST (0) / 

	movl	$1,	%esi
# CALL (".elem", 2, false) / 

	pushl	%ebx
	pushl	%esi
	pushl	%ecx
	call	Belem
	addl	$8,	%esp
	popl	%ebx
	movl	%eax,	%ecx
# ST (Local (3)) / 

	movl	%ecx,	-16(%ebp)
# DROP / 

# DROP / 

# SLABEL ("L256") / 

L256:

# LINE (313) / 

	.stabn 68,0,313,.L36-Llambda_0_13

.L36:

# LD (Local (1)) / 

	movl	-8(%ebp),	%ebx
# CALL ("Lallocate", 1, false) / 

	pushl	%ebx
	call	Lallocate
	addl	$4,	%esp
	movl	%eax,	%ebx
# DUP / 

	movl	%ebx,	%ecx
# SLABEL ("L263") / 

L263:

# DUP / 

	movl	%ecx,	%esi
# ARRAY (2) / 

	movl	$5,	%edi
	pushl	%ebx
	pushl	%ecx
	pushl	%edi
	pushl	%esi
	call	Barray_patt
	addl	$8,	%esp
	popl	%ecx
	popl	%ebx
	movl	%eax,	%esi
# CJMP ("nz", "L261") / 

	sarl	%esi
	cmpl	$0,	%esi
	jnz	L261
# LABEL ("L262") / 

L262:

# DROP / 

# JMP ("L258") / 

	jmp	L258
# LABEL ("L261") / 

L261:

# DUP / 

	movl	%ecx,	%esi
# CONST (0) / 

	movl	$1,	%edi
# CALL (".elem", 2, false) / 

	pushl	%ebx
	pushl	%ecx
	pushl	%edi
	pushl	%esi
	call	Belem
	addl	$8,	%esp
	popl	%ecx
	popl	%ebx
	movl	%eax,	%esi
# DROP / 

# DUP / 

	movl	%ecx,	%esi
# CONST (1) / 

	movl	$3,	%edi
# CALL (".elem", 2, false) / 

	pushl	%ebx
	pushl	%ecx
	pushl	%edi
	pushl	%esi
	call	Belem
	addl	$8,	%esp
	popl	%ecx
	popl	%ebx
	movl	%eax,	%esi
# DROP / 

# DROP / 

# DUP / 

	movl	%ebx,	%ecx
# CONST (0) / 

	movl	$1,	%esi
# CALL (".elem", 2, false) / 

	pushl	%ebx
	pushl	%esi
	pushl	%ecx
	call	Belem
	addl	$8,	%esp
	popl	%ebx
	movl	%eax,	%ecx
# ST (Local (5)) / 

	movl	%ecx,	-24(%ebp)
# DROP / 

# DUP / 

	movl	%ebx,	%ecx
# CONST (1) / 

	movl	$3,	%esi
# CALL (".elem", 2, false) / 

	pushl	%ebx
	pushl	%esi
	pushl	%ecx
	call	Belem
	addl	$8,	%esp
	popl	%ebx
	movl	%eax,	%ecx
# ST (Local (4)) / 

	movl	%ecx,	-20(%ebp)
# DROP / 

# DROP / 

# SLABEL ("L265") / 

L265:

# LINE (314) / 

	.stabn 68,0,314,.L37-Llambda_0_13

.L37:

# LD (Local (4)) / 

	movl	-20(%ebp),	%ebx
# LD (Local (2)) / 

	movl	-12(%ebp),	%ecx
# LD (Local (3)) / 

	movl	-16(%ebp),	%esi
# SEXP ("L", 1) / 

	movl	$77,	%edi
	pushl	%ebx
	pushl	%ecx
	pushl	%edi
	pushl	%esi
	pushl	$5
	call	Bsexp
	addl	$12,	%esp
	popl	%ecx
	popl	%ebx
	movl	%eax,	%esi
# LD (Local (5)) / 

	movl	-24(%ebp),	%edi
# SEXP ("Mov", 2) / 

	movl	$321453,	-44(%ebp)
	pushl	%ebx
	pushl	%ecx
	pushl	-44(%ebp)
	pushl	%edi
	pushl	%esi
	pushl	$7
	call	Bsexp
	addl	$16,	%esp
	popl	%ecx
	popl	%ebx
	movl	%eax,	%esi
# CALL ("Li__Infix_6043", 2, false) / 

	pushl	%ebx
	pushl	%esi
	pushl	%ecx
	call	Li__Infix_6043
	addl	$8,	%esp
	popl	%ebx
	movl	%eax,	%ecx
# CALL (".array", 2, true) / 

	pushl	%ecx
	pushl	%ebx
	pushl	$5
	call	Barray
	addl	$12,	%esp
	movl	%eax,	%ebx
# SLABEL ("L266") / 

L266:

# SLABEL ("L264") / 

L264:

# JMP ("L176") / 

	jmp	L176
# LABEL ("L258") / 

L258:

# FAIL ((313, 18), true) / 

	pushl	$37
	pushl	$627
	pushl	$string_16
	pushl	%ebx
	call	Bmatch_failure
	addl	$12,	%esp
# JMP ("L176") / 

	jmp	L176
# SLABEL ("L257") / 

L257:

# JMP ("L176") / 

	jmp	L176
# SLABEL ("L255") / 

L255:

# SLABEL ("L277") / 

L277:

# LABEL ("L251") / 

L251:

# DUP / 

	movl	%ebx,	%ecx
# DUP / 

	movl	%ecx,	%esi
# TAG ("ST", 1) / 

	movl	$5853,	%edi
	movl	$3,	-44(%ebp)
	pushl	%ebx
	pushl	%ecx
	pushl	-44(%ebp)
	pushl	%edi
	pushl	%esi
	call	Btag
	addl	$12,	%esp
	popl	%ecx
	popl	%ebx
	movl	%eax,	%esi
# CJMP ("nz", "L275") / 

	sarl	%esi
	cmpl	$0,	%esi
	jnz	L275
# LABEL ("L276") / 

L276:

# DROP / 

# JMP ("L274") / 

	jmp	L274
# LABEL ("L275") / 

L275:

# DUP / 

	movl	%ecx,	%esi
# CONST (0) / 

	movl	$1,	%edi
# CALL (".elem", 2, false) / 

	pushl	%ebx
	pushl	%ecx
	pushl	%edi
	pushl	%esi
	call	Belem
	addl	$8,	%esp
	popl	%ecx
	popl	%ebx
	movl	%eax,	%esi
# DROP / 

# DROP / 

# DUP / 

	movl	%ebx,	%ecx
# CONST (0) / 

	movl	$1,	%esi
# CALL (".elem", 2, false) / 

	pushl	%ebx
	pushl	%esi
	pushl	%ecx
	call	Belem
	addl	$8,	%esp
	popl	%ebx
	movl	%eax,	%ecx
# ST (Local (3)) / 

	movl	%ecx,	-16(%ebp)
# DROP / 

# DROP / 

# SLABEL ("L279") / 

L279:

# LINE (317) / 

	.stabn 68,0,317,.L38-Llambda_0_13

.L38:

# LD (Local (1)) / 

	movl	-8(%ebp),	%ebx
# LD (Local (3)) / 

	movl	-16(%ebp),	%ecx
# CALL ("LaddGlobal", 2, false) / 

	pushl	%ecx
	pushl	%ebx
	call	LaddGlobal
	addl	$8,	%esp
	movl	%eax,	%ebx
# CALL ("Lpop", 1, false) / 

	pushl	%ebx
	call	Lpop
	addl	$4,	%esp
	movl	%eax,	%ebx
# DUP / 

	movl	%ebx,	%ecx
# SLABEL ("L288") / 

L288:

# DUP / 

	movl	%ecx,	%esi
# ARRAY (2) / 

	movl	$5,	%edi
	pushl	%ebx
	pushl	%ecx
	pushl	%edi
	pushl	%esi
	call	Barray_patt
	addl	$8,	%esp
	popl	%ecx
	popl	%ebx
	movl	%eax,	%esi
# CJMP ("nz", "L286") / 

	sarl	%esi
	cmpl	$0,	%esi
	jnz	L286
# LABEL ("L287") / 

L287:

# DROP / 

# JMP ("L281") / 

	jmp	L281
# LABEL ("L286") / 

L286:

# DUP / 

	movl	%ecx,	%esi
# CONST (0) / 

	movl	$1,	%edi
# CALL (".elem", 2, false) / 

	pushl	%ebx
	pushl	%ecx
	pushl	%edi
	pushl	%esi
	call	Belem
	addl	$8,	%esp
	popl	%ecx
	popl	%ebx
	movl	%eax,	%esi
# DROP / 

# DUP / 

	movl	%ecx,	%esi
# CONST (1) / 

	movl	$3,	%edi
# CALL (".elem", 2, false) / 

	pushl	%ebx
	pushl	%ecx
	pushl	%edi
	pushl	%esi
	call	Belem
	addl	$8,	%esp
	popl	%ecx
	popl	%ebx
	movl	%eax,	%esi
# DROP / 

# DROP / 

# DUP / 

	movl	%ebx,	%ecx
# CONST (0) / 

	movl	$1,	%esi
# CALL (".elem", 2, false) / 

	pushl	%ebx
	pushl	%esi
	pushl	%ecx
	call	Belem
	addl	$8,	%esp
	popl	%ebx
	movl	%eax,	%ecx
# ST (Local (5)) / 

	movl	%ecx,	-24(%ebp)
# DROP / 

# DUP / 

	movl	%ebx,	%ecx
# CONST (1) / 

	movl	$3,	%esi
# CALL (".elem", 2, false) / 

	pushl	%ebx
	pushl	%esi
	pushl	%ecx
	call	Belem
	addl	$8,	%esp
	popl	%ebx
	movl	%eax,	%ecx
# ST (Local (4)) / 

	movl	%ecx,	-20(%ebp)
# DROP / 

# DROP / 

# SLABEL ("L290") / 

L290:

# LINE (318) / 

	.stabn 68,0,318,.L39-Llambda_0_13

.L39:

# LD (Local (4)) / 

	movl	-20(%ebp),	%ebx
# LD (Local (2)) / 

	movl	-12(%ebp),	%ecx
# LD (Local (5)) / 

	movl	-24(%ebp),	%esi
# LD (Local (4)) / 

	movl	-20(%ebp),	%edi
# LD (Local (3)) / 

	movl	-16(%ebp),	%eax
	movl	%eax,	-44(%ebp)
# CALL ("Lloc", 2, false) / 

	pushl	%ebx
	pushl	%ecx
	pushl	%esi
	pushl	-44(%ebp)
	pushl	%edi
	call	Lloc
	addl	$8,	%esp
	popl	%esi
	popl	%ecx
	popl	%ebx
	movl	%eax,	%edi
# CALL ("Lmove", 2, false) / 

	pushl	%ebx
	pushl	%ecx
	pushl	%edi
	pushl	%esi
	call	Lmove
	addl	$8,	%esp
	popl	%ecx
	popl	%ebx
	movl	%eax,	%esi
# CALL ("Li__Infix_604362", 2, false) / 

	pushl	%ebx
	pushl	%esi
	pushl	%ecx
	call	Li__Infix_604362
	addl	$8,	%esp
	popl	%ebx
	movl	%eax,	%ecx
# CALL (".array", 2, true) / 

	pushl	%ecx
	pushl	%ebx
	pushl	$5
	call	Barray
	addl	$12,	%esp
	movl	%eax,	%ebx
# SLABEL ("L291") / 

L291:

# SLABEL ("L289") / 

L289:

# JMP ("L176") / 

	jmp	L176
# LABEL ("L281") / 

L281:

# FAIL ((317, 18), true) / 

	pushl	$37
	pushl	$635
	pushl	$string_16
	pushl	%ebx
	call	Bmatch_failure
	addl	$12,	%esp
# JMP ("L176") / 

	jmp	L176
# SLABEL ("L280") / 

L280:

# JMP ("L176") / 

	jmp	L176
# SLABEL ("L278") / 

L278:

# SLABEL ("L303") / 

L303:

# LABEL ("L274") / 

L274:

# DUP / 

	movl	%ebx,	%ecx
# DUP / 

	movl	%ecx,	%esi
# TAG ("LD", 1) / 

	movl	$4925,	%edi
	movl	$3,	-44(%ebp)
	pushl	%ebx
	pushl	%ecx
	pushl	-44(%ebp)
	pushl	%edi
	pushl	%esi
	call	Btag
	addl	$12,	%esp
	popl	%ecx
	popl	%ebx
	movl	%eax,	%esi
# CJMP ("nz", "L301") / 

	sarl	%esi
	cmpl	$0,	%esi
	jnz	L301
# LABEL ("L302") / 

L302:

# DROP / 

# JMP ("L300") / 

	jmp	L300
# LABEL ("L301") / 

L301:

# DUP / 

	movl	%ecx,	%esi
# CONST (0) / 

	movl	$1,	%edi
# CALL (".elem", 2, false) / 

	pushl	%ebx
	pushl	%ecx
	pushl	%edi
	pushl	%esi
	call	Belem
	addl	$8,	%esp
	popl	%ecx
	popl	%ebx
	movl	%eax,	%esi
# DROP / 

# DROP / 

# DUP / 

	movl	%ebx,	%ecx
# CONST (0) / 

	movl	$1,	%esi
# CALL (".elem", 2, false) / 

	pushl	%ebx
	pushl	%esi
	pushl	%ecx
	call	Belem
	addl	$8,	%esp
	popl	%ebx
	movl	%eax,	%ecx
# ST (Local (3)) / 

	movl	%ecx,	-16(%ebp)
# DROP / 

# DROP / 

# SLABEL ("L305") / 

L305:

# LINE (321) / 

	.stabn 68,0,321,.L40-Llambda_0_13

.L40:

# LD (Local (1)) / 

	movl	-8(%ebp),	%ebx
# CALL ("Lallocate", 1, false) / 

	pushl	%ebx
	call	Lallocate
	addl	$4,	%esp
	movl	%eax,	%ebx
# DUP / 

	movl	%ebx,	%ecx
# SLABEL ("L312") / 

L312:

# DUP / 

	movl	%ecx,	%esi
# ARRAY (2) / 

	movl	$5,	%edi
	pushl	%ebx
	pushl	%ecx
	pushl	%edi
	pushl	%esi
	call	Barray_patt
	addl	$8,	%esp
	popl	%ecx
	popl	%ebx
	movl	%eax,	%esi
# CJMP ("nz", "L310") / 

	sarl	%esi
	cmpl	$0,	%esi
	jnz	L310
# LABEL ("L311") / 

L311:

# DROP / 

# JMP ("L307") / 

	jmp	L307
# LABEL ("L310") / 

L310:

# DUP / 

	movl	%ecx,	%esi
# CONST (0) / 

	movl	$1,	%edi
# CALL (".elem", 2, false) / 

	pushl	%ebx
	pushl	%ecx
	pushl	%edi
	pushl	%esi
	call	Belem
	addl	$8,	%esp
	popl	%ecx
	popl	%ebx
	movl	%eax,	%esi
# DROP / 

# DUP / 

	movl	%ecx,	%esi
# CONST (1) / 

	movl	$3,	%edi
# CALL (".elem", 2, false) / 

	pushl	%ebx
	pushl	%ecx
	pushl	%edi
	pushl	%esi
	call	Belem
	addl	$8,	%esp
	popl	%ecx
	popl	%ebx
	movl	%eax,	%esi
# DROP / 

# DROP / 

# DUP / 

	movl	%ebx,	%ecx
# CONST (0) / 

	movl	$1,	%esi
# CALL (".elem", 2, false) / 

	pushl	%ebx
	pushl	%esi
	pushl	%ecx
	call	Belem
	addl	$8,	%esp
	popl	%ebx
	movl	%eax,	%ecx
# ST (Local (5)) / 

	movl	%ecx,	-24(%ebp)
# DROP / 

# DUP / 

	movl	%ebx,	%ecx
# CONST (1) / 

	movl	$3,	%esi
# CALL (".elem", 2, false) / 

	pushl	%ebx
	pushl	%esi
	pushl	%ecx
	call	Belem
	addl	$8,	%esp
	popl	%ebx
	movl	%eax,	%ecx
# ST (Local (4)) / 

	movl	%ecx,	-20(%ebp)
# DROP / 

# DROP / 

# SLABEL ("L314") / 

L314:

# LINE (322) / 

	.stabn 68,0,322,.L41-Llambda_0_13

.L41:

# LD (Local (4)) / 

	movl	-20(%ebp),	%ebx
# LD (Local (2)) / 

	movl	-12(%ebp),	%ecx
# LD (Local (4)) / 

	movl	-20(%ebp),	%esi
# LD (Local (3)) / 

	movl	-16(%ebp),	%edi
# CALL ("Lloc", 2, false) / 

	pushl	%ebx
	pushl	%ecx
	pushl	%edi
	pushl	%esi
	call	Lloc
	addl	$8,	%esp
	popl	%ecx
	popl	%ebx
	movl	%eax,	%esi
# LD (Local (5)) / 

	movl	-24(%ebp),	%edi
# CALL ("Lmove", 2, false) / 

	pushl	%ebx
	pushl	%ecx
	pushl	%edi
	pushl	%esi
	call	Lmove
	addl	$8,	%esp
	popl	%ecx
	popl	%ebx
	movl	%eax,	%esi
# CALL ("Li__Infix_604362", 2, false) / 

	pushl	%ebx
	pushl	%esi
	pushl	%ecx
	call	Li__Infix_604362
	addl	$8,	%esp
	popl	%ebx
	movl	%eax,	%ecx
# CALL (".array", 2, true) / 

	pushl	%ecx
	pushl	%ebx
	pushl	$5
	call	Barray
	addl	$12,	%esp
	movl	%eax,	%ebx
# SLABEL ("L315") / 

L315:

# SLABEL ("L313") / 

L313:

# JMP ("L176") / 

	jmp	L176
# LABEL ("L307") / 

L307:

# FAIL ((321, 18), true) / 

	pushl	$37
	pushl	$643
	pushl	$string_16
	pushl	%ebx
	call	Bmatch_failure
	addl	$12,	%esp
# JMP ("L176") / 

	jmp	L176
# SLABEL ("L306") / 

L306:

# JMP ("L176") / 

	jmp	L176
# SLABEL ("L304") / 

L304:

# SLABEL ("L327") / 

L327:

# LABEL ("L300") / 

L300:

# DUP / 

	movl	%ebx,	%ecx
# DUP / 

	movl	%ecx,	%esi
# TAG ("BINOP", 1) / 

	movl	$958207189,	%edi
	movl	$3,	-44(%ebp)
	pushl	%ebx
	pushl	%ecx
	pushl	-44(%ebp)
	pushl	%edi
	pushl	%esi
	call	Btag
	addl	$12,	%esp
	popl	%ecx
	popl	%ebx
	movl	%eax,	%esi
# CJMP ("nz", "L325") / 

	sarl	%esi
	cmpl	$0,	%esi
	jnz	L325
# LABEL ("L326") / 

L326:

# DROP / 

# JMP ("L324") / 

	jmp	L324
# LABEL ("L325") / 

L325:

# DUP / 

	movl	%ecx,	%esi
# CONST (0) / 

	movl	$1,	%edi
# CALL (".elem", 2, false) / 

	pushl	%ebx
	pushl	%ecx
	pushl	%edi
	pushl	%esi
	call	Belem
	addl	$8,	%esp
	popl	%ecx
	popl	%ebx
	movl	%eax,	%esi
# DROP / 

# DROP / 

# DUP / 

	movl	%ebx,	%ecx
# CONST (0) / 

	movl	$1,	%esi
# CALL (".elem", 2, false) / 

	pushl	%ebx
	pushl	%esi
	pushl	%ecx
	call	Belem
	addl	$8,	%esp
	popl	%ebx
	movl	%eax,	%ecx
# ST (Local (3)) / 

	movl	%ecx,	-16(%ebp)
# DROP / 

# DROP / 

# SLABEL ("L329") / 

L329:

# LINE (325) / 

	.stabn 68,0,325,.L42-Llambda_0_13

.L42:

# LD (Local (1)) / 

	movl	-8(%ebp),	%ebx
# CALL ("Lpop2", 1, false) / 

	pushl	%ebx
	call	Lpop2
	addl	$4,	%esp
	movl	%eax,	%ebx
# DUP / 

	movl	%ebx,	%ecx
# SLABEL ("L336") / 

L336:

# DUP / 

	movl	%ecx,	%esi
# ARRAY (3) / 

	movl	$7,	%edi
	pushl	%ebx
	pushl	%ecx
	pushl	%edi
	pushl	%esi
	call	Barray_patt
	addl	$8,	%esp
	popl	%ecx
	popl	%ebx
	movl	%eax,	%esi
# CJMP ("nz", "L334") / 

	sarl	%esi
	cmpl	$0,	%esi
	jnz	L334
# LABEL ("L335") / 

L335:

# DROP / 

# JMP ("L331") / 

	jmp	L331
# LABEL ("L334") / 

L334:

# DUP / 

	movl	%ecx,	%esi
# CONST (0) / 

	movl	$1,	%edi
# CALL (".elem", 2, false) / 

	pushl	%ebx
	pushl	%ecx
	pushl	%edi
	pushl	%esi
	call	Belem
	addl	$8,	%esp
	popl	%ecx
	popl	%ebx
	movl	%eax,	%esi
# DROP / 

# DUP / 

	movl	%ecx,	%esi
# CONST (1) / 

	movl	$3,	%edi
# CALL (".elem", 2, false) / 

	pushl	%ebx
	pushl	%ecx
	pushl	%edi
	pushl	%esi
	call	Belem
	addl	$8,	%esp
	popl	%ecx
	popl	%ebx
	movl	%eax,	%esi
# DROP / 

# DUP / 

	movl	%ecx,	%esi
# CONST (2) / 

	movl	$5,	%edi
# CALL (".elem", 2, false) / 

	pushl	%ebx
	pushl	%ecx
	pushl	%edi
	pushl	%esi
	call	Belem
	addl	$8,	%esp
	popl	%ecx
	popl	%ebx
	movl	%eax,	%esi
# DROP / 

# DROP / 

# DUP / 

	movl	%ebx,	%ecx
# CONST (0) / 

	movl	$1,	%esi
# CALL (".elem", 2, false) / 

	pushl	%ebx
	pushl	%esi
	pushl	%ecx
	call	Belem
	addl	$8,	%esp
	popl	%ebx
	movl	%eax,	%ecx
# ST (Local (6)) / 

	movl	%ecx,	-28(%ebp)
# DROP / 

# DUP / 

	movl	%ebx,	%ecx
# CONST (1) / 

	movl	$3,	%esi
# CALL (".elem", 2, false) / 

	pushl	%ebx
	pushl	%esi
	pushl	%ecx
	call	Belem
	addl	$8,	%esp
	popl	%ebx
	movl	%eax,	%ecx
# ST (Local (5)) / 

	movl	%ecx,	-24(%ebp)
# DROP / 

# DUP / 

	movl	%ebx,	%ecx
# CONST (2) / 

	movl	$5,	%esi
# CALL (".elem", 2, false) / 

	pushl	%ebx
	pushl	%esi
	pushl	%ecx
	call	Belem
	addl	$8,	%esp
	popl	%ebx
	movl	%eax,	%ecx
# ST (Local (4)) / 

	movl	%ecx,	-20(%ebp)
# DROP / 

# DROP / 

# SLABEL ("L338") / 

L338:

# LINE (327) / 

	.stabn 68,0,327,.L43-Llambda_0_13

.L43:

# LD (Local (4)) / 

	movl	-20(%ebp),	%ebx
# CALL ("Lallocate", 1, false) / 

	pushl	%ebx
	call	Lallocate
	addl	$4,	%esp
	movl	%eax,	%ebx
# DUP / 

	movl	%ebx,	%ecx
# SLABEL ("L345") / 

L345:

# DUP / 

	movl	%ecx,	%esi
# ARRAY (2) / 

	movl	$5,	%edi
	pushl	%ebx
	pushl	%ecx
	pushl	%edi
	pushl	%esi
	call	Barray_patt
	addl	$8,	%esp
	popl	%ecx
	popl	%ebx
	movl	%eax,	%esi
# CJMP ("nz", "L343") / 

	sarl	%esi
	cmpl	$0,	%esi
	jnz	L343
# LABEL ("L344") / 

L344:

# DROP / 

# JMP ("L340") / 

	jmp	L340
# LABEL ("L343") / 

L343:

# DUP / 

	movl	%ecx,	%esi
# CONST (0) / 

	movl	$1,	%edi
# CALL (".elem", 2, false) / 

	pushl	%ebx
	pushl	%ecx
	pushl	%edi
	pushl	%esi
	call	Belem
	addl	$8,	%esp
	popl	%ecx
	popl	%ebx
	movl	%eax,	%esi
# DROP / 

# DUP / 

	movl	%ecx,	%esi
# CONST (1) / 

	movl	$3,	%edi
# CALL (".elem", 2, false) / 

	pushl	%ebx
	pushl	%ecx
	pushl	%edi
	pushl	%esi
	call	Belem
	addl	$8,	%esp
	popl	%ecx
	popl	%ebx
	movl	%eax,	%esi
# DROP / 

# DROP / 

# DUP / 

	movl	%ebx,	%ecx
# CONST (0) / 

	movl	$1,	%esi
# CALL (".elem", 2, false) / 

	pushl	%ebx
	pushl	%esi
	pushl	%ecx
	call	Belem
	addl	$8,	%esp
	popl	%ebx
	movl	%eax,	%ecx
# ST (Local (8)) / 

	movl	%ecx,	-36(%ebp)
# DROP / 

# DUP / 

	movl	%ebx,	%ecx
# CONST (1) / 

	movl	$3,	%esi
# CALL (".elem", 2, false) / 

	pushl	%ebx
	pushl	%esi
	pushl	%ecx
	call	Belem
	addl	$8,	%esp
	popl	%ebx
	movl	%eax,	%ecx
# ST (Local (7)) / 

	movl	%ecx,	-32(%ebp)
# DROP / 

# DROP / 

# SLABEL ("L347") / 

L347:

# LINE (329) / 

	.stabn 68,0,329,.L44-Llambda_0_13

.L44:

# LD (Local (3)) / 

	movl	-16(%ebp),	%ebx
# DUP / 

	movl	%ebx,	%ecx
# SLABEL ("L352") / 

L352:

# STRING ("/") / 

	movl	$string_21,	%esi
	pushl	%ebx
	pushl	%ecx
	pushl	%esi
	call	Bstring
	addl	$4,	%esp
	popl	%ecx
	popl	%ebx
	movl	%eax,	%esi
# PATT (StrCmp) / 

	pushl	%ebx
	pushl	%esi
	pushl	%ecx
	call	Bstring_patt
	addl	$8,	%esp
	popl	%ebx
	movl	%eax,	%ecx
# CJMP ("z", "L351") / 

	sarl	%ecx
	cmpl	$0,	%ecx
	jz	L351
# DROP / 

# SLABEL ("L354") / 

L354:

# LINE (330) / 

	.stabn 68,0,330,.L45-Llambda_0_13

.L45:

# LD (Local (7)) / 

	movl	-32(%ebp),	%ebx
# LD (Local (2)) / 

	movl	-12(%ebp),	%ecx
# LD (Local (5)) / 

	movl	-24(%ebp),	%esi
# LD (Global ("eax")) / 

	movl	global_eax,	%edi
# SEXP ("Mov", 2) / 

	movl	$321453,	-44(%ebp)
	pushl	%ebx
	pushl	%ecx
	pushl	-44(%ebp)
	pushl	%edi
	pushl	%esi
	pushl	$7
	call	Bsexp
	addl	$16,	%esp
	popl	%ecx
	popl	%ebx
	movl	%eax,	%esi
# CALL ("Li__Infix_6043", 2, false) / 

	pushl	%ebx
	pushl	%esi
	pushl	%ecx
	call	Li__Infix_6043
	addl	$8,	%esp
	popl	%ebx
	movl	%eax,	%ecx
# SEXP ("Cltd", 0) / 

	movl	$15305225,	%esi
	pushl	%ebx
	pushl	%ecx
	pushl	%esi
	pushl	$3
	call	Bsexp
	addl	$8,	%esp
	popl	%ecx
	popl	%ebx
	movl	%eax,	%esi
# CALL ("Li__Infix_6043", 2, false) / 

	pushl	%ebx
	pushl	%esi
	pushl	%ecx
	call	Li__Infix_6043
	addl	$8,	%esp
	popl	%ebx
	movl	%eax,	%ecx
# LD (Local (6)) / 

	movl	-28(%ebp),	%esi
# SEXP ("IDiv", 1) / 

	movl	$18597037,	%edi
	pushl	%ebx
	pushl	%ecx
	pushl	%edi
	pushl	%esi
	pushl	$5
	call	Bsexp
	addl	$12,	%esp
	popl	%ecx
	popl	%ebx
	movl	%eax,	%esi
# CALL ("Li__Infix_6043", 2, false) / 

	pushl	%ebx
	pushl	%esi
	pushl	%ecx
	call	Li__Infix_6043
	addl	$8,	%esp
	popl	%ebx
	movl	%eax,	%ecx
# LD (Global ("eax")) / 

	movl	global_eax,	%esi
# LD (Local (8)) / 

	movl	-36(%ebp),	%edi
# SEXP ("Mov", 2) / 

	movl	$321453,	-44(%ebp)
	pushl	%ebx
	pushl	%ecx
	pushl	-44(%ebp)
	pushl	%edi
	pushl	%esi
	pushl	$7
	call	Bsexp
	addl	$16,	%esp
	popl	%ecx
	popl	%ebx
	movl	%eax,	%esi
# CALL ("Li__Infix_6043", 2, false) / 

	pushl	%ebx
	pushl	%esi
	pushl	%ecx
	call	Li__Infix_6043
	addl	$8,	%esp
	popl	%ebx
	movl	%eax,	%ecx
# CALL (".array", 2, true) / 

	pushl	%ecx
	pushl	%ebx
	pushl	$5
	call	Barray
	addl	$12,	%esp
	movl	%eax,	%ebx
# SLABEL ("L355") / 

L355:

# JMP ("L176") / 

	jmp	L176
# SLABEL ("L353") / 

L353:

# SLABEL ("L373") / 

L373:

# LABEL ("L351") / 

L351:

# DUP / 

	movl	%ebx,	%ecx
# STRING ("%") / 

	movl	$string_22,	%esi
	pushl	%ebx
	pushl	%ecx
	pushl	%esi
	call	Bstring
	addl	$4,	%esp
	popl	%ecx
	popl	%ebx
	movl	%eax,	%esi
# PATT (StrCmp) / 

	pushl	%ebx
	pushl	%esi
	pushl	%ecx
	call	Bstring_patt
	addl	$8,	%esp
	popl	%ebx
	movl	%eax,	%ecx
# CJMP ("z", "L372") / 

	sarl	%ecx
	cmpl	$0,	%ecx
	jz	L372
# DROP / 

# SLABEL ("L375") / 

L375:

# LINE (331) / 

	.stabn 68,0,331,.L46-Llambda_0_13

.L46:

# LD (Local (7)) / 

	movl	-32(%ebp),	%ebx
# LD (Local (2)) / 

	movl	-12(%ebp),	%ecx
# LD (Local (5)) / 

	movl	-24(%ebp),	%esi
# LD (Global ("eax")) / 

	movl	global_eax,	%edi
# SEXP ("Mov", 2) / 

	movl	$321453,	-44(%ebp)
	pushl	%ebx
	pushl	%ecx
	pushl	-44(%ebp)
	pushl	%edi
	pushl	%esi
	pushl	$7
	call	Bsexp
	addl	$16,	%esp
	popl	%ecx
	popl	%ebx
	movl	%eax,	%esi
# CALL ("Li__Infix_6043", 2, false) / 

	pushl	%ebx
	pushl	%esi
	pushl	%ecx
	call	Li__Infix_6043
	addl	$8,	%esp
	popl	%ebx
	movl	%eax,	%ecx
# SEXP ("Cltd", 0) / 

	movl	$15305225,	%esi
	pushl	%ebx
	pushl	%ecx
	pushl	%esi
	pushl	$3
	call	Bsexp
	addl	$8,	%esp
	popl	%ecx
	popl	%ebx
	movl	%eax,	%esi
# CALL ("Li__Infix_6043", 2, false) / 

	pushl	%ebx
	pushl	%esi
	pushl	%ecx
	call	Li__Infix_6043
	addl	$8,	%esp
	popl	%ebx
	movl	%eax,	%ecx
# LD (Local (6)) / 

	movl	-28(%ebp),	%esi
# SEXP ("IDiv", 1) / 

	movl	$18597037,	%edi
	pushl	%ebx
	pushl	%ecx
	pushl	%edi
	pushl	%esi
	pushl	$5
	call	Bsexp
	addl	$12,	%esp
	popl	%ecx
	popl	%ebx
	movl	%eax,	%esi
# CALL ("Li__Infix_6043", 2, false) / 

	pushl	%ebx
	pushl	%esi
	pushl	%ecx
	call	Li__Infix_6043
	addl	$8,	%esp
	popl	%ebx
	movl	%eax,	%ecx
# LD (Global ("edx")) / 

	movl	global_edx,	%esi
# LD (Local (8)) / 

	movl	-36(%ebp),	%edi
# SEXP ("Mov", 2) / 

	movl	$321453,	-44(%ebp)
	pushl	%ebx
	pushl	%ecx
	pushl	-44(%ebp)
	pushl	%edi
	pushl	%esi
	pushl	$7
	call	Bsexp
	addl	$16,	%esp
	popl	%ecx
	popl	%ebx
	movl	%eax,	%esi
# CALL ("Li__Infix_6043", 2, false) / 

	pushl	%ebx
	pushl	%esi
	pushl	%ecx
	call	Li__Infix_6043
	addl	$8,	%esp
	popl	%ebx
	movl	%eax,	%ecx
# CALL (".array", 2, true) / 

	pushl	%ecx
	pushl	%ebx
	pushl	$5
	call	Barray
	addl	$12,	%esp
	movl	%eax,	%ebx
# SLABEL ("L376") / 

L376:

# JMP ("L176") / 

	jmp	L176
# SLABEL ("L374") / 

L374:

# SLABEL ("L394") / 

L394:

# LABEL ("L372") / 

L372:

# DUP / 

	movl	%ebx,	%ecx
# STRING ("&&") / 

	movl	$string_23,	%esi
	pushl	%ebx
	pushl	%ecx
	pushl	%esi
	call	Bstring
	addl	$4,	%esp
	popl	%ecx
	popl	%ebx
	movl	%eax,	%esi
# PATT (StrCmp) / 

	pushl	%ebx
	pushl	%esi
	pushl	%ecx
	call	Bstring_patt
	addl	$8,	%esp
	popl	%ebx
	movl	%eax,	%ecx
# CJMP ("z", "L393") / 

	sarl	%ecx
	cmpl	$0,	%ecx
	jz	L393
# DROP / 

# SLABEL ("L396") / 

L396:

# LINE (332) / 

	.stabn 68,0,332,.L47-Llambda_0_13

.L47:

# LD (Local (7)) / 

	movl	-32(%ebp),	%ebx
# LD (Local (2)) / 

	movl	-12(%ebp),	%ecx
# LINE (333) / 

	.stabn 68,0,333,.L48-Llambda_0_13

.L48:

# LD (Local (5)) / 

	movl	-24(%ebp),	%esi
# LD (Global ("edx")) / 

	movl	global_edx,	%edi
# SEXP ("Mov", 2) / 

	movl	$321453,	-44(%ebp)
	pushl	%ebx
	pushl	%ecx
	pushl	-44(%ebp)
	pushl	%edi
	pushl	%esi
	pushl	$7
	call	Bsexp
	addl	$16,	%esp
	popl	%ecx
	popl	%ebx
	movl	%eax,	%esi
# CALL ("Li__Infix_6043", 2, false) / 

	pushl	%ebx
	pushl	%esi
	pushl	%ecx
	call	Li__Infix_6043
	addl	$8,	%esp
	popl	%ebx
	movl	%eax,	%ecx
# STRING ("*") / 

	movl	$string_24,	%esi
	pushl	%ebx
	pushl	%ecx
	pushl	%esi
	call	Bstring
	addl	$4,	%esp
	popl	%ecx
	popl	%ebx
	movl	%eax,	%esi
# LD (Local (6)) / 

	movl	-28(%ebp),	%edi
# LD (Global ("edx")) / 

	movl	global_edx,	%eax
	movl	%eax,	-44(%ebp)
# SEXP ("Binop", 3) / 

	movl	$944359329,	-48(%ebp)
	pushl	%ebx
	pushl	%ecx
	pushl	-48(%ebp)
	pushl	-44(%ebp)
	pushl	%edi
	pushl	%esi
	pushl	$9
	call	Bsexp
	addl	$20,	%esp
	popl	%ecx
	popl	%ebx
	movl	%eax,	%esi
# CALL ("Li__Infix_6043", 2, false) / 

	pushl	%ebx
	pushl	%esi
	pushl	%ecx
	call	Li__Infix_6043
	addl	$8,	%esp
	popl	%ebx
	movl	%eax,	%ecx
# STRING ("cmp") / 

	movl	$string_25,	%esi
	pushl	%ebx
	pushl	%ecx
	pushl	%esi
	call	Bstring
	addl	$4,	%esp
	popl	%ecx
	popl	%ebx
	movl	%eax,	%esi
# CONST (0) / 

	movl	$1,	%edi
# SEXP ("L", 1) / 

	movl	$77,	-44(%ebp)
	pushl	%ebx
	pushl	%ecx
	pushl	%esi
	pushl	-44(%ebp)
	pushl	%edi
	pushl	$5
	call	Bsexp
	addl	$12,	%esp
	popl	%esi
	popl	%ecx
	popl	%ebx
	movl	%eax,	%edi
# LD (Global ("edx")) / 

	movl	global_edx,	%eax
	movl	%eax,	-44(%ebp)
# SEXP ("Binop", 3) / 

	movl	$944359329,	-48(%ebp)
	pushl	%ebx
	pushl	%ecx
	pushl	-48(%ebp)
	pushl	-44(%ebp)
	pushl	%edi
	pushl	%esi
	pushl	$9
	call	Bsexp
	addl	$20,	%esp
	popl	%ecx
	popl	%ebx
	movl	%eax,	%esi
# CALL ("Li__Infix_6043", 2, false) / 

	pushl	%ebx
	pushl	%esi
	pushl	%ecx
	call	Li__Infix_6043
	addl	$8,	%esp
	popl	%ebx
	movl	%eax,	%ecx
# CONST (0) / 

	movl	$1,	%esi
# SEXP ("L", 1) / 

	movl	$77,	%edi
	pushl	%ebx
	pushl	%ecx
	pushl	%edi
	pushl	%esi
	pushl	$5
	call	Bsexp
	addl	$12,	%esp
	popl	%ecx
	popl	%ebx
	movl	%eax,	%esi
# LD (Global ("eax")) / 

	movl	global_eax,	%edi
# SEXP ("Mov", 2) / 

	movl	$321453,	-44(%ebp)
	pushl	%ebx
	pushl	%ecx
	pushl	-44(%ebp)
	pushl	%edi
	pushl	%esi
	pushl	$7
	call	Bsexp
	addl	$16,	%esp
	popl	%ecx
	popl	%ebx
	movl	%eax,	%esi
# CALL ("Li__Infix_6043", 2, false) / 

	pushl	%ebx
	pushl	%esi
	pushl	%ecx
	call	Li__Infix_6043
	addl	$8,	%esp
	popl	%ebx
	movl	%eax,	%ecx
# STRING ("ne") / 

	movl	$string_26,	%esi
	pushl	%ebx
	pushl	%ecx
	pushl	%esi
	call	Bstring
	addl	$4,	%esp
	popl	%ecx
	popl	%ebx
	movl	%eax,	%esi
# STRING ("%al") / 

	movl	$string_27,	%edi
	pushl	%ebx
	pushl	%ecx
	pushl	%esi
	pushl	%edi
	call	Bstring
	addl	$4,	%esp
	popl	%esi
	popl	%ecx
	popl	%ebx
	movl	%eax,	%edi
# SEXP ("Set", 2) / 

	movl	$369321,	-44(%ebp)
	pushl	%ebx
	pushl	%ecx
	pushl	-44(%ebp)
	pushl	%edi
	pushl	%esi
	pushl	$7
	call	Bsexp
	addl	$16,	%esp
	popl	%ecx
	popl	%ebx
	movl	%eax,	%esi
# CALL ("Li__Infix_6043", 2, false) / 

	pushl	%ebx
	pushl	%esi
	pushl	%ecx
	call	Li__Infix_6043
	addl	$8,	%esp
	popl	%ebx
	movl	%eax,	%ecx
# LD (Global ("eax")) / 

	movl	global_eax,	%esi
# LD (Local (8)) / 

	movl	-36(%ebp),	%edi
# SEXP ("Mov", 2) / 

	movl	$321453,	-44(%ebp)
	pushl	%ebx
	pushl	%ecx
	pushl	-44(%ebp)
	pushl	%edi
	pushl	%esi
	pushl	$7
	call	Bsexp
	addl	$16,	%esp
	popl	%ecx
	popl	%ebx
	movl	%eax,	%esi
# CALL ("Li__Infix_6043", 2, false) / 

	pushl	%ebx
	pushl	%esi
	pushl	%ecx
	call	Li__Infix_6043
	addl	$8,	%esp
	popl	%ebx
	movl	%eax,	%ecx
# CALL (".array", 2, true) / 

	pushl	%ecx
	pushl	%ebx
	pushl	$5
	call	Barray
	addl	$12,	%esp
	movl	%eax,	%ebx
# SLABEL ("L397") / 

L397:

# JMP ("L176") / 

	jmp	L176
# SLABEL ("L395") / 

L395:

# SLABEL ("L429") / 

L429:

# LABEL ("L393") / 

L393:

# DUP / 

	movl	%ebx,	%ecx
# STRING ("!!") / 

	movl	$string_28,	%esi
	pushl	%ebx
	pushl	%ecx
	pushl	%esi
	call	Bstring
	addl	$4,	%esp
	popl	%ecx
	popl	%ebx
	movl	%eax,	%esi
# PATT (StrCmp) / 

	pushl	%ebx
	pushl	%esi
	pushl	%ecx
	call	Bstring_patt
	addl	$8,	%esp
	popl	%ebx
	movl	%eax,	%ecx
# CJMP ("z", "L428") / 

	sarl	%ecx
	cmpl	$0,	%ecx
	jz	L428
# DROP / 

# SLABEL ("L431") / 

L431:

# LINE (334) / 

	.stabn 68,0,334,.L49-Llambda_0_13

.L49:

# LD (Local (7)) / 

	movl	-32(%ebp),	%ebx
# LD (Local (2)) / 

	movl	-12(%ebp),	%ecx
# LINE (335) / 

	.stabn 68,0,335,.L50-Llambda_0_13

.L50:

# LD (Local (5)) / 

	movl	-24(%ebp),	%esi
# LD (Global ("edx")) / 

	movl	global_edx,	%edi
# SEXP ("Mov", 2) / 

	movl	$321453,	-44(%ebp)
	pushl	%ebx
	pushl	%ecx
	pushl	-44(%ebp)
	pushl	%edi
	pushl	%esi
	pushl	$7
	call	Bsexp
	addl	$16,	%esp
	popl	%ecx
	popl	%ebx
	movl	%eax,	%esi
# CALL ("Li__Infix_6043", 2, false) / 

	pushl	%ebx
	pushl	%esi
	pushl	%ecx
	call	Li__Infix_6043
	addl	$8,	%esp
	popl	%ebx
	movl	%eax,	%ecx
# STRING ("!!") / 

	movl	$string_28,	%esi
	pushl	%ebx
	pushl	%ecx
	pushl	%esi
	call	Bstring
	addl	$4,	%esp
	popl	%ecx
	popl	%ebx
	movl	%eax,	%esi
# LD (Local (6)) / 

	movl	-28(%ebp),	%edi
# LD (Global ("edx")) / 

	movl	global_edx,	%eax
	movl	%eax,	-44(%ebp)
# SEXP ("Binop", 3) / 

	movl	$944359329,	-48(%ebp)
	pushl	%ebx
	pushl	%ecx
	pushl	-48(%ebp)
	pushl	-44(%ebp)
	pushl	%edi
	pushl	%esi
	pushl	$9
	call	Bsexp
	addl	$20,	%esp
	popl	%ecx
	popl	%ebx
	movl	%eax,	%esi
# CALL ("Li__Infix_6043", 2, false) / 

	pushl	%ebx
	pushl	%esi
	pushl	%ecx
	call	Li__Infix_6043
	addl	$8,	%esp
	popl	%ebx
	movl	%eax,	%ecx
# STRING ("cmp") / 

	movl	$string_25,	%esi
	pushl	%ebx
	pushl	%ecx
	pushl	%esi
	call	Bstring
	addl	$4,	%esp
	popl	%ecx
	popl	%ebx
	movl	%eax,	%esi
# CONST (0) / 

	movl	$1,	%edi
# SEXP ("L", 1) / 

	movl	$77,	-44(%ebp)
	pushl	%ebx
	pushl	%ecx
	pushl	%esi
	pushl	-44(%ebp)
	pushl	%edi
	pushl	$5
	call	Bsexp
	addl	$12,	%esp
	popl	%esi
	popl	%ecx
	popl	%ebx
	movl	%eax,	%edi
# LD (Global ("edx")) / 

	movl	global_edx,	%eax
	movl	%eax,	-44(%ebp)
# SEXP ("Binop", 3) / 

	movl	$944359329,	-48(%ebp)
	pushl	%ebx
	pushl	%ecx
	pushl	-48(%ebp)
	pushl	-44(%ebp)
	pushl	%edi
	pushl	%esi
	pushl	$9
	call	Bsexp
	addl	$20,	%esp
	popl	%ecx
	popl	%ebx
	movl	%eax,	%esi
# CALL ("Li__Infix_6043", 2, false) / 

	pushl	%ebx
	pushl	%esi
	pushl	%ecx
	call	Li__Infix_6043
	addl	$8,	%esp
	popl	%ebx
	movl	%eax,	%ecx
# CONST (0) / 

	movl	$1,	%esi
# SEXP ("L", 1) / 

	movl	$77,	%edi
	pushl	%ebx
	pushl	%ecx
	pushl	%edi
	pushl	%esi
	pushl	$5
	call	Bsexp
	addl	$12,	%esp
	popl	%ecx
	popl	%ebx
	movl	%eax,	%esi
# LD (Global ("eax")) / 

	movl	global_eax,	%edi
# SEXP ("Mov", 2) / 

	movl	$321453,	-44(%ebp)
	pushl	%ebx
	pushl	%ecx
	pushl	-44(%ebp)
	pushl	%edi
	pushl	%esi
	pushl	$7
	call	Bsexp
	addl	$16,	%esp
	popl	%ecx
	popl	%ebx
	movl	%eax,	%esi
# CALL ("Li__Infix_6043", 2, false) / 

	pushl	%ebx
	pushl	%esi
	pushl	%ecx
	call	Li__Infix_6043
	addl	$8,	%esp
	popl	%ebx
	movl	%eax,	%ecx
# STRING ("ne") / 

	movl	$string_26,	%esi
	pushl	%ebx
	pushl	%ecx
	pushl	%esi
	call	Bstring
	addl	$4,	%esp
	popl	%ecx
	popl	%ebx
	movl	%eax,	%esi
# STRING ("%al") / 

	movl	$string_27,	%edi
	pushl	%ebx
	pushl	%ecx
	pushl	%esi
	pushl	%edi
	call	Bstring
	addl	$4,	%esp
	popl	%esi
	popl	%ecx
	popl	%ebx
	movl	%eax,	%edi
# SEXP ("Set", 2) / 

	movl	$369321,	-44(%ebp)
	pushl	%ebx
	pushl	%ecx
	pushl	-44(%ebp)
	pushl	%edi
	pushl	%esi
	pushl	$7
	call	Bsexp
	addl	$16,	%esp
	popl	%ecx
	popl	%ebx
	movl	%eax,	%esi
# CALL ("Li__Infix_6043", 2, false) / 

	pushl	%ebx
	pushl	%esi
	pushl	%ecx
	call	Li__Infix_6043
	addl	$8,	%esp
	popl	%ebx
	movl	%eax,	%ecx
# LD (Global ("eax")) / 

	movl	global_eax,	%esi
# LD (Local (8)) / 

	movl	-36(%ebp),	%edi
# SEXP ("Mov", 2) / 

	movl	$321453,	-44(%ebp)
	pushl	%ebx
	pushl	%ecx
	pushl	-44(%ebp)
	pushl	%edi
	pushl	%esi
	pushl	$7
	call	Bsexp
	addl	$16,	%esp
	popl	%ecx
	popl	%ebx
	movl	%eax,	%esi
# CALL ("Li__Infix_6043", 2, false) / 

	pushl	%ebx
	pushl	%esi
	pushl	%ecx
	call	Li__Infix_6043
	addl	$8,	%esp
	popl	%ebx
	movl	%eax,	%ecx
# CALL (".array", 2, true) / 

	pushl	%ecx
	pushl	%ebx
	pushl	$5
	call	Barray
	addl	$12,	%esp
	movl	%eax,	%ebx
# SLABEL ("L432") / 

L432:

# JMP ("L176") / 

	jmp	L176
# SLABEL ("L430") / 

L430:

# SLABEL ("L463") / 

L463:

# LABEL ("L428") / 

L428:

# DUP / 

	movl	%ebx,	%ecx
# DROP / 

# DUP / 

	movl	%ebx,	%ecx
# ST (Local (9)) / 

	movl	%ecx,	-40(%ebp)
# DROP / 

# DROP / 

# SLABEL ("L465") / 

L465:

# LINE (337) / 

	.stabn 68,0,337,.L51-Llambda_0_13

.L51:

# LD (Local (9)) / 

	movl	-40(%ebp),	%ebx
# CALL ("Lop_type", 1, false) / 

	pushl	%ebx
	call	Lop_type
	addl	$4,	%esp
	movl	%eax,	%ebx
# DUP / 

	movl	%ebx,	%ecx
# SLABEL ("L471") / 

L471:

# CONST (1) / 

	movl	$3,	%esi
# BINOP ("==") / 

	xorl	%eax,	%eax
	cmpl	%esi,	%ecx
	sete	%al
	sall	%eax
	orl	$0x0001,	%eax
	movl	%eax,	%ecx
# CJMP ("z", "L470") / 

	sarl	%ecx
	cmpl	$0,	%ecx
	jz	L470
# DROP / 

# SLABEL ("L473") / 

L473:

# LINE (338) / 

	.stabn 68,0,338,.L52-Llambda_0_13

.L52:

# LD (Local (7)) / 

	movl	-32(%ebp),	%ebx
# LD (Local (2)) / 

	movl	-12(%ebp),	%ecx
# LD (Local (5)) / 

	movl	-24(%ebp),	%esi
# LD (Global ("eax")) / 

	movl	global_eax,	%edi
# SEXP ("Mov", 2) / 

	movl	$321453,	-44(%ebp)
	pushl	%ebx
	pushl	%ecx
	pushl	-44(%ebp)
	pushl	%edi
	pushl	%esi
	pushl	$7
	call	Bsexp
	addl	$16,	%esp
	popl	%ecx
	popl	%ebx
	movl	%eax,	%esi
# CALL ("Li__Infix_6043", 2, false) / 

	pushl	%ebx
	pushl	%esi
	pushl	%ecx
	call	Li__Infix_6043
	addl	$8,	%esp
	popl	%ebx
	movl	%eax,	%ecx
# LD (Local (9)) / 

	movl	-40(%ebp),	%esi
# LD (Local (6)) / 

	movl	-28(%ebp),	%edi
# LD (Global ("eax")) / 

	movl	global_eax,	%eax
	movl	%eax,	-44(%ebp)
# SEXP ("Binop", 3) / 

	movl	$944359329,	-48(%ebp)
	pushl	%ebx
	pushl	%ecx
	pushl	-48(%ebp)
	pushl	-44(%ebp)
	pushl	%edi
	pushl	%esi
	pushl	$9
	call	Bsexp
	addl	$20,	%esp
	popl	%ecx
	popl	%ebx
	movl	%eax,	%esi
# CALL ("Li__Infix_6043", 2, false) / 

	pushl	%ebx
	pushl	%esi
	pushl	%ecx
	call	Li__Infix_6043
	addl	$8,	%esp
	popl	%ebx
	movl	%eax,	%ecx
# LD (Global ("eax")) / 

	movl	global_eax,	%esi
# LD (Local (8)) / 

	movl	-36(%ebp),	%edi
# SEXP ("Mov", 2) / 

	movl	$321453,	-44(%ebp)
	pushl	%ebx
	pushl	%ecx
	pushl	-44(%ebp)
	pushl	%edi
	pushl	%esi
	pushl	$7
	call	Bsexp
	addl	$16,	%esp
	popl	%ecx
	popl	%ebx
	movl	%eax,	%esi
# CALL ("Li__Infix_6043", 2, false) / 

	pushl	%ebx
	pushl	%esi
	pushl	%ecx
	call	Li__Infix_6043
	addl	$8,	%esp
	popl	%ebx
	movl	%eax,	%ecx
# CALL (".array", 2, true) / 

	pushl	%ecx
	pushl	%ebx
	pushl	$5
	call	Barray
	addl	$12,	%esp
	movl	%eax,	%ebx
# SLABEL ("L474") / 

L474:

# JMP ("L176") / 

	jmp	L176
# SLABEL ("L472") / 

L472:

# SLABEL ("L490") / 

L490:

# LABEL ("L470") / 

L470:

# DUP / 

	movl	%ebx,	%ecx
# CONST (0) / 

	movl	$1,	%esi
# BINOP ("==") / 

	xorl	%eax,	%eax
	cmpl	%esi,	%ecx
	sete	%al
	sall	%eax
	orl	$0x0001,	%eax
	movl	%eax,	%ecx
# CJMP ("z", "L467") / 

	sarl	%ecx
	cmpl	$0,	%ecx
	jz	L467
# DROP / 

# SLABEL ("L492") / 

L492:

# LINE (339) / 

	.stabn 68,0,339,.L53-Llambda_0_13

.L53:

# LD (Local (7)) / 

	movl	-32(%ebp),	%ebx
# LD (Local (2)) / 

	movl	-12(%ebp),	%ecx
# LD (Local (6)) / 

	movl	-28(%ebp),	%esi
# LD (Global ("edx")) / 

	movl	global_edx,	%edi
# SEXP ("Mov", 2) / 

	movl	$321453,	-44(%ebp)
	pushl	%ebx
	pushl	%ecx
	pushl	-44(%ebp)
	pushl	%edi
	pushl	%esi
	pushl	$7
	call	Bsexp
	addl	$16,	%esp
	popl	%ecx
	popl	%ebx
	movl	%eax,	%esi
# CALL ("Li__Infix_6043", 2, false) / 

	pushl	%ebx
	pushl	%esi
	pushl	%ecx
	call	Li__Infix_6043
	addl	$8,	%esp
	popl	%ebx
	movl	%eax,	%ecx
# STRING ("cmp") / 

	movl	$string_25,	%esi
	pushl	%ebx
	pushl	%ecx
	pushl	%esi
	call	Bstring
	addl	$4,	%esp
	popl	%ecx
	popl	%ebx
	movl	%eax,	%esi
# LD (Global ("edx")) / 

	movl	global_edx,	%edi
# LD (Local (5)) / 

	movl	-24(%ebp),	%eax
	movl	%eax,	-44(%ebp)
# SEXP ("Binop", 3) / 

	movl	$944359329,	-48(%ebp)
	pushl	%ebx
	pushl	%ecx
	pushl	-48(%ebp)
	pushl	-44(%ebp)
	pushl	%edi
	pushl	%esi
	pushl	$9
	call	Bsexp
	addl	$20,	%esp
	popl	%ecx
	popl	%ebx
	movl	%eax,	%esi
# CALL ("Li__Infix_6043", 2, false) / 

	pushl	%ebx
	pushl	%esi
	pushl	%ecx
	call	Li__Infix_6043
	addl	$8,	%esp
	popl	%ebx
	movl	%eax,	%ecx
# CONST (0) / 

	movl	$1,	%esi
# SEXP ("L", 1) / 

	movl	$77,	%edi
	pushl	%ebx
	pushl	%ecx
	pushl	%edi
	pushl	%esi
	pushl	$5
	call	Bsexp
	addl	$12,	%esp
	popl	%ecx
	popl	%ebx
	movl	%eax,	%esi
# LD (Global ("eax")) / 

	movl	global_eax,	%edi
# SEXP ("Mov", 2) / 

	movl	$321453,	-44(%ebp)
	pushl	%ebx
	pushl	%ecx
	pushl	-44(%ebp)
	pushl	%edi
	pushl	%esi
	pushl	$7
	call	Bsexp
	addl	$16,	%esp
	popl	%ecx
	popl	%ebx
	movl	%eax,	%esi
# CALL ("Li__Infix_6043", 2, false) / 

	pushl	%ebx
	pushl	%esi
	pushl	%ecx
	call	Li__Infix_6043
	addl	$8,	%esp
	popl	%ebx
	movl	%eax,	%ecx
# LD (Local (9)) / 

	movl	-40(%ebp),	%esi
# CALL ("Lsuffix", 1, false) / 

	pushl	%ebx
	pushl	%ecx
	pushl	%esi
	call	Lsuffix
	addl	$4,	%esp
	popl	%ecx
	popl	%ebx
	movl	%eax,	%esi
# STRING ("%al") / 

	movl	$string_27,	%edi
	pushl	%ebx
	pushl	%ecx
	pushl	%esi
	pushl	%edi
	call	Bstring
	addl	$4,	%esp
	popl	%esi
	popl	%ecx
	popl	%ebx
	movl	%eax,	%edi
# SEXP ("Set", 2) / 

	movl	$369321,	-44(%ebp)
	pushl	%ebx
	pushl	%ecx
	pushl	-44(%ebp)
	pushl	%edi
	pushl	%esi
	pushl	$7
	call	Bsexp
	addl	$16,	%esp
	popl	%ecx
	popl	%ebx
	movl	%eax,	%esi
# CALL ("Li__Infix_6043", 2, false) / 

	pushl	%ebx
	pushl	%esi
	pushl	%ecx
	call	Li__Infix_6043
	addl	$8,	%esp
	popl	%ebx
	movl	%eax,	%ecx
# LD (Global ("eax")) / 

	movl	global_eax,	%esi
# LD (Local (8)) / 

	movl	-36(%ebp),	%edi
# SEXP ("Mov", 2) / 

	movl	$321453,	-44(%ebp)
	pushl	%ebx
	pushl	%ecx
	pushl	-44(%ebp)
	pushl	%edi
	pushl	%esi
	pushl	$7
	call	Bsexp
	addl	$16,	%esp
	popl	%ecx
	popl	%ebx
	movl	%eax,	%esi
# CALL ("Li__Infix_6043", 2, false) / 

	pushl	%ebx
	pushl	%esi
	pushl	%ecx
	call	Li__Infix_6043
	addl	$8,	%esp
	popl	%ebx
	movl	%eax,	%ecx
# CALL (".array", 2, true) / 

	pushl	%ecx
	pushl	%ebx
	pushl	$5
	call	Barray
	addl	$12,	%esp
	movl	%eax,	%ebx
# SLABEL ("L493") / 

L493:

# SLABEL ("L491") / 

L491:

# JMP ("L176") / 

	jmp	L176
# LABEL ("L467") / 

L467:

# FAIL ((337, 30), true) / 

	pushl	$61
	pushl	$675
	pushl	$string_16
	pushl	%ebx
	call	Bmatch_failure
	addl	$12,	%esp
# JMP ("L176") / 

	jmp	L176
# SLABEL ("L466") / 

L466:

# SLABEL ("L464") / 

L464:

# JMP ("L176") / 

	jmp	L176
# SLABEL ("L348") / 

L348:

# SLABEL ("L346") / 

L346:

# JMP ("L176") / 

	jmp	L176
# LABEL ("L340") / 

L340:

# FAIL ((327, 22), true) / 

	pushl	$45
	pushl	$655
	pushl	$string_16
	pushl	%ebx
	call	Bmatch_failure
	addl	$12,	%esp
# JMP ("L176") / 

	jmp	L176
# SLABEL ("L339") / 

L339:

# SLABEL ("L337") / 

L337:

# JMP ("L176") / 

	jmp	L176
# LABEL ("L331") / 

L331:

# FAIL ((325, 18), true) / 

	pushl	$37
	pushl	$651
	pushl	$string_16
	pushl	%ebx
	call	Bmatch_failure
	addl	$12,	%esp
# JMP ("L176") / 

	jmp	L176
# SLABEL ("L330") / 

L330:

# JMP ("L176") / 

	jmp	L176
# SLABEL ("L328") / 

L328:

# SLABEL ("L522") / 

L522:

# LABEL ("L324") / 

L324:

# DUP / 

	movl	%ebx,	%ecx
# DUP / 

	movl	%ecx,	%esi
# TAG ("LABEL", 1) / 

	movl	$1289457613,	%edi
	movl	$3,	-44(%ebp)
	pushl	%ebx
	pushl	%ecx
	pushl	-44(%ebp)
	pushl	%edi
	pushl	%esi
	call	Btag
	addl	$12,	%esp
	popl	%ecx
	popl	%ebx
	movl	%eax,	%esi
# CJMP ("nz", "L520") / 

	sarl	%esi
	cmpl	$0,	%esi
	jnz	L520
# LABEL ("L521") / 

L521:

# DROP / 

# JMP ("L519") / 

	jmp	L519
# LABEL ("L520") / 

L520:

# DUP / 

	movl	%ecx,	%esi
# CONST (0) / 

	movl	$1,	%edi
# CALL (".elem", 2, false) / 

	pushl	%ebx
	pushl	%ecx
	pushl	%edi
	pushl	%esi
	call	Belem
	addl	$8,	%esp
	popl	%ecx
	popl	%ebx
	movl	%eax,	%esi
# DROP / 

# DROP / 

# DUP / 

	movl	%ebx,	%ecx
# CONST (0) / 

	movl	$1,	%esi
# CALL (".elem", 2, false) / 

	pushl	%ebx
	pushl	%esi
	pushl	%ecx
	call	Belem
	addl	$8,	%esp
	popl	%ebx
	movl	%eax,	%ecx
# ST (Local (3)) / 

	movl	%ecx,	-16(%ebp)
# DROP / 

# DROP / 

# SLABEL ("L524") / 

L524:

# LINE (344) / 

	.stabn 68,0,344,.L54-Llambda_0_13

.L54:

# LD (Local (1)) / 

	movl	-8(%ebp),	%ebx
# LD (Local (2)) / 

	movl	-12(%ebp),	%ecx
# LD (Local (3)) / 

	movl	-16(%ebp),	%esi
# SEXP ("Label", 1) / 

	movl	$1275609753,	%edi
	pushl	%ebx
	pushl	%ecx
	pushl	%edi
	pushl	%esi
	pushl	$5
	call	Bsexp
	addl	$12,	%esp
	popl	%ecx
	popl	%ebx
	movl	%eax,	%esi
# CALL ("Li__Infix_6043", 2, false) / 

	pushl	%ebx
	pushl	%esi
	pushl	%ecx
	call	Li__Infix_6043
	addl	$8,	%esp
	popl	%ebx
	movl	%eax,	%ecx
# CALL (".array", 2, true) / 

	pushl	%ecx
	pushl	%ebx
	pushl	$5
	call	Barray
	addl	$12,	%esp
	movl	%eax,	%ebx
# SLABEL ("L525") / 

L525:

# JMP ("L176") / 

	jmp	L176
# SLABEL ("L523") / 

L523:

# SLABEL ("L534") / 

L534:

# LABEL ("L519") / 

L519:

# DUP / 

	movl	%ebx,	%ecx
# DUP / 

	movl	%ecx,	%esi
# TAG ("JMP", 1) / 

	movl	$299989,	%edi
	movl	$3,	-44(%ebp)
	pushl	%ebx
	pushl	%ecx
	pushl	-44(%ebp)
	pushl	%edi
	pushl	%esi
	call	Btag
	addl	$12,	%esp
	popl	%ecx
	popl	%ebx
	movl	%eax,	%esi
# CJMP ("nz", "L532") / 

	sarl	%esi
	cmpl	$0,	%esi
	jnz	L532
# LABEL ("L533") / 

L533:

# DROP / 

# JMP ("L531") / 

	jmp	L531
# LABEL ("L532") / 

L532:

# DUP / 

	movl	%ecx,	%esi
# CONST (0) / 

	movl	$1,	%edi
# CALL (".elem", 2, false) / 

	pushl	%ebx
	pushl	%ecx
	pushl	%edi
	pushl	%esi
	call	Belem
	addl	$8,	%esp
	popl	%ecx
	popl	%ebx
	movl	%eax,	%esi
# DROP / 

# DROP / 

# DUP / 

	movl	%ebx,	%ecx
# CONST (0) / 

	movl	$1,	%esi
# CALL (".elem", 2, false) / 

	pushl	%ebx
	pushl	%esi
	pushl	%ecx
	call	Belem
	addl	$8,	%esp
	popl	%ebx
	movl	%eax,	%ecx
# ST (Local (3)) / 

	movl	%ecx,	-16(%ebp)
# DROP / 

# DROP / 

# SLABEL ("L536") / 

L536:

# LINE (345) / 

	.stabn 68,0,345,.L55-Llambda_0_13

.L55:

# LD (Local (1)) / 

	movl	-8(%ebp),	%ebx
# LD (Local (2)) / 

	movl	-12(%ebp),	%ecx
# LD (Local (3)) / 

	movl	-16(%ebp),	%esi
# SEXP ("Jmp", 1) / 

	movl	$296609,	%edi
	pushl	%ebx
	pushl	%ecx
	pushl	%edi
	pushl	%esi
	pushl	$5
	call	Bsexp
	addl	$12,	%esp
	popl	%ecx
	popl	%ebx
	movl	%eax,	%esi
# CALL ("Li__Infix_6043", 2, false) / 

	pushl	%ebx
	pushl	%esi
	pushl	%ecx
	call	Li__Infix_6043
	addl	$8,	%esp
	popl	%ebx
	movl	%eax,	%ecx
# CALL (".array", 2, true) / 

	pushl	%ecx
	pushl	%ebx
	pushl	$5
	call	Barray
	addl	$12,	%esp
	movl	%eax,	%ebx
# SLABEL ("L537") / 

L537:

# JMP ("L176") / 

	jmp	L176
# SLABEL ("L535") / 

L535:

# SLABEL ("L545") / 

L545:

# LABEL ("L531") / 

L531:

# DUP / 

	movl	%ebx,	%ecx
# DUP / 

	movl	%ecx,	%esi
# TAG ("CJMP", 2) / 

	movl	$15504341,	%edi
	movl	$5,	-44(%ebp)
	pushl	%ebx
	pushl	%ecx
	pushl	-44(%ebp)
	pushl	%edi
	pushl	%esi
	call	Btag
	addl	$12,	%esp
	popl	%ecx
	popl	%ebx
	movl	%eax,	%esi
# CJMP ("nz", "L543") / 

	sarl	%esi
	cmpl	$0,	%esi
	jnz	L543
# LABEL ("L544") / 

L544:

# DROP / 

# JMP ("L197") / 

	jmp	L197
# LABEL ("L543") / 

L543:

# DUP / 

	movl	%ecx,	%esi
# CONST (0) / 

	movl	$1,	%edi
# CALL (".elem", 2, false) / 

	pushl	%ebx
	pushl	%ecx
	pushl	%edi
	pushl	%esi
	call	Belem
	addl	$8,	%esp
	popl	%ecx
	popl	%ebx
	movl	%eax,	%esi
# DROP / 

# DUP / 

	movl	%ecx,	%esi
# CONST (1) / 

	movl	$3,	%edi
# CALL (".elem", 2, false) / 

	pushl	%ebx
	pushl	%ecx
	pushl	%edi
	pushl	%esi
	call	Belem
	addl	$8,	%esp
	popl	%ecx
	popl	%ebx
	movl	%eax,	%esi
# DROP / 

# DROP / 

# DUP / 

	movl	%ebx,	%ecx
# CONST (0) / 

	movl	$1,	%esi
# CALL (".elem", 2, false) / 

	pushl	%ebx
	pushl	%esi
	pushl	%ecx
	call	Belem
	addl	$8,	%esp
	popl	%ebx
	movl	%eax,	%ecx
# ST (Local (4)) / 

	movl	%ecx,	-20(%ebp)
# DROP / 

# DUP / 

	movl	%ebx,	%ecx
# CONST (1) / 

	movl	$3,	%esi
# CALL (".elem", 2, false) / 

	pushl	%ebx
	pushl	%esi
	pushl	%ecx
	call	Belem
	addl	$8,	%esp
	popl	%ebx
	movl	%eax,	%ecx
# ST (Local (3)) / 

	movl	%ecx,	-16(%ebp)
# DROP / 

# DROP / 

# SLABEL ("L547") / 

L547:

# LINE (347) / 

	.stabn 68,0,347,.L56-Llambda_0_13

.L56:

# LD (Local (1)) / 

	movl	-8(%ebp),	%ebx
# CALL ("Lpop", 1, false) / 

	pushl	%ebx
	call	Lpop
	addl	$4,	%esp
	movl	%eax,	%ebx
# DUP / 

	movl	%ebx,	%ecx
# SLABEL ("L554") / 

L554:

# DUP / 

	movl	%ecx,	%esi
# ARRAY (2) / 

	movl	$5,	%edi
	pushl	%ebx
	pushl	%ecx
	pushl	%edi
	pushl	%esi
	call	Barray_patt
	addl	$8,	%esp
	popl	%ecx
	popl	%ebx
	movl	%eax,	%esi
# CJMP ("nz", "L552") / 

	sarl	%esi
	cmpl	$0,	%esi
	jnz	L552
# LABEL ("L553") / 

L553:

# DROP / 

# JMP ("L549") / 

	jmp	L549
# LABEL ("L552") / 

L552:

# DUP / 

	movl	%ecx,	%esi
# CONST (0) / 

	movl	$1,	%edi
# CALL (".elem", 2, false) / 

	pushl	%ebx
	pushl	%ecx
	pushl	%edi
	pushl	%esi
	call	Belem
	addl	$8,	%esp
	popl	%ecx
	popl	%ebx
	movl	%eax,	%esi
# DROP / 

# DUP / 

	movl	%ecx,	%esi
# CONST (1) / 

	movl	$3,	%edi
# CALL (".elem", 2, false) / 

	pushl	%ebx
	pushl	%ecx
	pushl	%edi
	pushl	%esi
	call	Belem
	addl	$8,	%esp
	popl	%ecx
	popl	%ebx
	movl	%eax,	%esi
# DROP / 

# DROP / 

# DUP / 

	movl	%ebx,	%ecx
# CONST (0) / 

	movl	$1,	%esi
# CALL (".elem", 2, false) / 

	pushl	%ebx
	pushl	%esi
	pushl	%ecx
	call	Belem
	addl	$8,	%esp
	popl	%ebx
	movl	%eax,	%ecx
# ST (Local (6)) / 

	movl	%ecx,	-28(%ebp)
# DROP / 

# DUP / 

	movl	%ebx,	%ecx
# CONST (1) / 

	movl	$3,	%esi
# CALL (".elem", 2, false) / 

	pushl	%ebx
	pushl	%esi
	pushl	%ecx
	call	Belem
	addl	$8,	%esp
	popl	%ebx
	movl	%eax,	%ecx
# ST (Local (5)) / 

	movl	%ecx,	-24(%ebp)
# DROP / 

# DROP / 

# SLABEL ("L556") / 

L556:

# LINE (348) / 

	.stabn 68,0,348,.L57-Llambda_0_13

.L57:

# LD (Local (5)) / 

	movl	-24(%ebp),	%ebx
# LD (Local (2)) / 

	movl	-12(%ebp),	%ecx
# LD (Local (6)) / 

	movl	-28(%ebp),	%esi
# LD (Global ("eax")) / 

	movl	global_eax,	%edi
# SEXP ("Mov", 2) / 

	movl	$321453,	-44(%ebp)
	pushl	%ebx
	pushl	%ecx
	pushl	-44(%ebp)
	pushl	%edi
	pushl	%esi
	pushl	$7
	call	Bsexp
	addl	$16,	%esp
	popl	%ecx
	popl	%ebx
	movl	%eax,	%esi
# CALL ("Li__Infix_6043", 2, false) / 

	pushl	%ebx
	pushl	%esi
	pushl	%ecx
	call	Li__Infix_6043
	addl	$8,	%esp
	popl	%ebx
	movl	%eax,	%ecx
# STRING ("cmp") / 

	movl	$string_25,	%esi
	pushl	%ebx
	pushl	%ecx
	pushl	%esi
	call	Bstring
	addl	$4,	%esp
	popl	%ecx
	popl	%ebx
	movl	%eax,	%esi
# CONST (0) / 

	movl	$1,	%edi
# SEXP ("L", 1) / 

	movl	$77,	-44(%ebp)
	pushl	%ebx
	pushl	%ecx
	pushl	%esi
	pushl	-44(%ebp)
	pushl	%edi
	pushl	$5
	call	Bsexp
	addl	$12,	%esp
	popl	%esi
	popl	%ecx
	popl	%ebx
	movl	%eax,	%edi
# LD (Global ("eax")) / 

	movl	global_eax,	%eax
	movl	%eax,	-44(%ebp)
# SEXP ("Binop", 3) / 

	movl	$944359329,	-48(%ebp)
	pushl	%ebx
	pushl	%ecx
	pushl	-48(%ebp)
	pushl	-44(%ebp)
	pushl	%edi
	pushl	%esi
	pushl	$9
	call	Bsexp
	addl	$20,	%esp
	popl	%ecx
	popl	%ebx
	movl	%eax,	%esi
# CALL ("Li__Infix_6043", 2, false) / 

	pushl	%ebx
	pushl	%esi
	pushl	%ecx
	call	Li__Infix_6043
	addl	$8,	%esp
	popl	%ebx
	movl	%eax,	%ecx
# LD (Local (4)) / 

	movl	-20(%ebp),	%esi
# CALL ("Lznzene", 1, false) / 

	pushl	%ebx
	pushl	%ecx
	pushl	%esi
	call	Lznzene
	addl	$4,	%esp
	popl	%ecx
	popl	%ebx
	movl	%eax,	%esi
# LD (Local (3)) / 

	movl	-16(%ebp),	%edi
# SEXP ("CJmp", 2) / 

	movl	$15500961,	-44(%ebp)
	pushl	%ebx
	pushl	%ecx
	pushl	-44(%ebp)
	pushl	%edi
	pushl	%esi
	pushl	$7
	call	Bsexp
	addl	$16,	%esp
	popl	%ecx
	popl	%ebx
	movl	%eax,	%esi
# CALL ("Li__Infix_6043", 2, false) / 

	pushl	%ebx
	pushl	%esi
	pushl	%ecx
	call	Li__Infix_6043
	addl	$8,	%esp
	popl	%ebx
	movl	%eax,	%ecx
# CALL (".array", 2, true) / 

	pushl	%ecx
	pushl	%ebx
	pushl	$5
	call	Barray
	addl	$12,	%esp
	movl	%eax,	%ebx
# SLABEL ("L557") / 

L557:

# SLABEL ("L555") / 

L555:

# JMP ("L176") / 

	jmp	L176
# LABEL ("L549") / 

L549:

# FAIL ((347, 18), true) / 

	pushl	$37
	pushl	$695
	pushl	$string_16
	pushl	%ebx
	call	Bmatch_failure
	addl	$12,	%esp
# JMP ("L176") / 

	jmp	L176
# SLABEL ("L548") / 

L548:

# SLABEL ("L546") / 

L546:

# JMP ("L176") / 

	jmp	L176
# LABEL ("L197") / 

L197:

# FAIL ((303, 14), true) / 

	pushl	$29
	pushl	$607
	pushl	$string_16
	pushl	%ebx
	call	Bmatch_failure
	addl	$12,	%esp
# JMP ("L176") / 

	jmp	L176
# SLABEL ("L184") / 

L184:

# SLABEL ("L182") / 

L182:

# JMP ("L176") / 

	jmp	L176
# LABEL ("L177") / 

L177:

# FAIL ((301, 7), true) / 

	pushl	$15
	pushl	$603
	pushl	$string_16
	pushl	%ebx
	call	Bmatch_failure
	addl	$12,	%esp
# JMP ("L176") / 

	jmp	L176
# LABEL ("L176") / 

L176:

# SLABEL ("L175") / 

L175:

# END / 

	movl	%ebx,	%eax
LLlambda_0_13_epilogue:

	movl	%ebp,	%esp
	popl	%ebp
	.cfi_restore	5

	.cfi_def_cfa	4, 4

	ret
	.cfi_endproc

	.set	LLlambda_0_13_SIZE,	48

	.set	LSLlambda_0_13_SIZE,	12

	.size Llambda_0_13, .-Llambda_0_13

# LABEL ("Lznzene") / 

Lznzene:

# BEGIN ("Lznzene", 1, 0, [], ["znz"], [{ blab="L575"; elab="L576"; names=[]; subs=[{ blab="L578"; elab="L579"; names=[]; subs=[{ blab="L587"; elab="L588"; names=[]; subs=[{ blab="L589"; elab="L590"; names=[]; subs=[]; }]; }; { blab="L583"; elab="L584"; names=[]; subs=[{ blab="L585"; elab="L586"; names=[]; subs=[]; }]; }]; }]; }]) / 

	.type znzene, @function

	.stabs "znzene:F1",36,0,0,Lznzene

	.stabs "znz:p1",160,0,0,8

	.cfi_startproc

	.cfi_adjust_cfa_offset	4

	pushl	%ebp
	.cfi_adjust_cfa_offset	4

	movl	%esp,	%ebp
	.cfi_def_cfa_register	5

	subl	$LLznzene_SIZE,	%esp
	movl	%esp,	%edi
	movl	$filler,	%esi
	movl	$LSLznzene_SIZE,	%ecx
	rep movsl	
# SLABEL ("L575") / 

L575:

# SLABEL ("L578") / 

L578:

# LINE (290) / 

	.stabn 68,0,290,0

	.stabn 68,0,290,.L58-Lznzene

.L58:

# LD (Arg (0)) / 

	movl	8(%ebp),	%ebx
# DUP / 

	movl	%ebx,	%ecx
# SLABEL ("L583") / 

L583:

# STRING ("z") / 

	movl	$string_29,	%esi
	pushl	%ebx
	pushl	%ecx
	pushl	%esi
	call	Bstring
	addl	$4,	%esp
	popl	%ecx
	popl	%ebx
	movl	%eax,	%esi
# PATT (StrCmp) / 

	pushl	%ebx
	pushl	%esi
	pushl	%ecx
	call	Bstring_patt
	addl	$8,	%esp
	popl	%ebx
	movl	%eax,	%ecx
# CJMP ("z", "L582") / 

	sarl	%ecx
	cmpl	$0,	%ecx
	jz	L582
# DROP / 

# SLABEL ("L585") / 

L585:

# STRING ("e") / 

	movl	$string_30,	%ebx
	pushl	%ebx
	call	Bstring
	addl	$4,	%esp
	movl	%eax,	%ebx
# SLABEL ("L586") / 

L586:

# JMP ("L577") / 

	jmp	L577
# SLABEL ("L584") / 

L584:

# SLABEL ("L587") / 

L587:

# LABEL ("L582") / 

L582:

# DUP / 

	movl	%ebx,	%ecx
# STRING ("nz") / 

	movl	$string_31,	%esi
	pushl	%ebx
	pushl	%ecx
	pushl	%esi
	call	Bstring
	addl	$4,	%esp
	popl	%ecx
	popl	%ebx
	movl	%eax,	%esi
# PATT (StrCmp) / 

	pushl	%ebx
	pushl	%esi
	pushl	%ecx
	call	Bstring_patt
	addl	$8,	%esp
	popl	%ebx
	movl	%eax,	%ecx
# CJMP ("z", "L580") / 

	sarl	%ecx
	cmpl	$0,	%ecx
	jz	L580
# DROP / 

# SLABEL ("L589") / 

L589:

# STRING ("ne") / 

	movl	$string_26,	%ebx
	pushl	%ebx
	call	Bstring
	addl	$4,	%esp
	movl	%eax,	%ebx
# SLABEL ("L590") / 

L590:

# SLABEL ("L588") / 

L588:

# JMP ("L577") / 

	jmp	L577
# LABEL ("L580") / 

L580:

# FAIL ((290, 8), true) / 

	pushl	$17
	pushl	$581
	pushl	$string_16
	pushl	%ebx
	call	Bmatch_failure
	addl	$12,	%esp
# JMP ("L577") / 

	jmp	L577
# SLABEL ("L579") / 

L579:

# LABEL ("L577") / 

L577:

# SLABEL ("L576") / 

L576:

# END / 

	movl	%ebx,	%eax
LLznzene_epilogue:

	movl	%ebp,	%esp
	popl	%ebp
	.cfi_restore	5

	.cfi_def_cfa	4, 4

	ret
	.cfi_endproc

	.set	LLznzene_SIZE,	0

	.set	LSLznzene_SIZE,	0

	.size Lznzene, .-Lznzene

# LABEL ("Lop_type") / 

Lop_type:

# BEGIN ("Lop_type", 1, 0, [], ["op"], [{ blab="L591"; elab="L592"; names=[]; subs=[{ blab="L594"; elab="L595"; names=[]; subs=[{ blab="L613"; elab="L614"; names=[]; subs=[{ blab="L615"; elab="L616"; names=[]; subs=[]; }]; }; { blab="L609"; elab="L610"; names=[]; subs=[{ blab="L611"; elab="L612"; names=[]; subs=[]; }]; }; { blab="L604"; elab="L605"; names=[]; subs=[{ blab="L606"; elab="L607"; names=[]; subs=[]; }]; }; { blab="L599"; elab="L600"; names=[]; subs=[{ blab="L601"; elab="L602"; names=[]; subs=[]; }]; }]; }]; }]) / 

	.type op_type, @function

	.stabs "op_type:F1",36,0,0,Lop_type

	.stabs "op:p1",160,0,0,8

	.cfi_startproc

	.cfi_adjust_cfa_offset	4

	pushl	%ebp
	.cfi_adjust_cfa_offset	4

	movl	%esp,	%ebp
	.cfi_def_cfa_register	5

	subl	$LLop_type_SIZE,	%esp
	movl	%esp,	%edi
	movl	$filler,	%esi
	movl	$LSLop_type_SIZE,	%ecx
	rep movsl	
# SLABEL ("L591") / 

L591:

# SLABEL ("L594") / 

L594:

# LINE (283) / 

	.stabn 68,0,283,0

	.stabn 68,0,283,.L59-Lop_type

.L59:

# LD (Arg (0)) / 

	movl	8(%ebp),	%ebx
# DUP / 

	movl	%ebx,	%ecx
# SLABEL ("L599") / 

L599:

# STRING ("+") / 

	movl	$string_32,	%esi
	pushl	%ebx
	pushl	%ecx
	pushl	%esi
	call	Bstring
	addl	$4,	%esp
	popl	%ecx
	popl	%ebx
	movl	%eax,	%esi
# PATT (StrCmp) / 

	pushl	%ebx
	pushl	%esi
	pushl	%ecx
	call	Bstring_patt
	addl	$8,	%esp
	popl	%ebx
	movl	%eax,	%ecx
# CJMP ("z", "L598") / 

	sarl	%ecx
	cmpl	$0,	%ecx
	jz	L598
# DROP / 

# SLABEL ("L601") / 

L601:

# CONST (1) / 

	movl	$3,	%ebx
# SLABEL ("L602") / 

L602:

# JMP ("L593") / 

	jmp	L593
# SLABEL ("L600") / 

L600:

# SLABEL ("L604") / 

L604:

# LABEL ("L598") / 

L598:

# DUP / 

	movl	%ebx,	%ecx
# STRING ("-") / 

	movl	$string_33,	%esi
	pushl	%ebx
	pushl	%ecx
	pushl	%esi
	call	Bstring
	addl	$4,	%esp
	popl	%ecx
	popl	%ebx
	movl	%eax,	%esi
# PATT (StrCmp) / 

	pushl	%ebx
	pushl	%esi
	pushl	%ecx
	call	Bstring_patt
	addl	$8,	%esp
	popl	%ebx
	movl	%eax,	%ecx
# CJMP ("z", "L603") / 

	sarl	%ecx
	cmpl	$0,	%ecx
	jz	L603
# DROP / 

# SLABEL ("L606") / 

L606:

# CONST (1) / 

	movl	$3,	%ebx
# SLABEL ("L607") / 

L607:

# JMP ("L593") / 

	jmp	L593
# SLABEL ("L605") / 

L605:

# SLABEL ("L609") / 

L609:

# LABEL ("L603") / 

L603:

# DUP / 

	movl	%ebx,	%ecx
# STRING ("*") / 

	movl	$string_24,	%esi
	pushl	%ebx
	pushl	%ecx
	pushl	%esi
	call	Bstring
	addl	$4,	%esp
	popl	%ecx
	popl	%ebx
	movl	%eax,	%esi
# PATT (StrCmp) / 

	pushl	%ebx
	pushl	%esi
	pushl	%ecx
	call	Bstring_patt
	addl	$8,	%esp
	popl	%ebx
	movl	%eax,	%ecx
# CJMP ("z", "L608") / 

	sarl	%ecx
	cmpl	$0,	%ecx
	jz	L608
# DROP / 

# SLABEL ("L611") / 

L611:

# CONST (1) / 

	movl	$3,	%ebx
# SLABEL ("L612") / 

L612:

# JMP ("L593") / 

	jmp	L593
# SLABEL ("L610") / 

L610:

# SLABEL ("L613") / 

L613:

# LABEL ("L608") / 

L608:

# DUP / 

	movl	%ebx,	%ecx
# DROP / 

# DROP / 

# SLABEL ("L615") / 

L615:

# CONST (0) / 

	movl	$1,	%ebx
# SLABEL ("L616") / 

L616:

# SLABEL ("L614") / 

L614:

# JMP ("L593") / 

	jmp	L593
# SLABEL ("L595") / 

L595:

# LABEL ("L593") / 

L593:

# SLABEL ("L592") / 

L592:

# END / 

	movl	%ebx,	%eax
LLop_type_epilogue:

	movl	%ebp,	%esp
	popl	%ebp
	.cfi_restore	5

	.cfi_def_cfa	4, 4

	ret
	.cfi_endproc

	.set	LLop_type_SIZE,	0

	.set	LSLop_type_SIZE,	0

	.size Lop_type, .-Lop_type

# LABEL ("Lsuffix") / 

Lsuffix:

# BEGIN ("Lsuffix", 1, 0, [], ["op"], [{ blab="L617"; elab="L618"; names=[]; subs=[{ blab="L620"; elab="L621"; names=[]; subs=[{ blab="L649"; elab="L650"; names=[]; subs=[{ blab="L651"; elab="L652"; names=[]; subs=[]; }]; }; { blab="L645"; elab="L646"; names=[]; subs=[{ blab="L647"; elab="L648"; names=[]; subs=[]; }]; }; { blab="L640"; elab="L641"; names=[]; subs=[{ blab="L642"; elab="L643"; names=[]; subs=[]; }]; }; { blab="L635"; elab="L636"; names=[]; subs=[{ blab="L637"; elab="L638"; names=[]; subs=[]; }]; }; { blab="L630"; elab="L631"; names=[]; subs=[{ blab="L632"; elab="L633"; names=[]; subs=[]; }]; }; { blab="L625"; elab="L626"; names=[]; subs=[{ blab="L627"; elab="L628"; names=[]; subs=[]; }]; }]; }]; }]) / 

	.type suffix, @function

	.stabs "suffix:F1",36,0,0,Lsuffix

	.stabs "op:p1",160,0,0,8

	.cfi_startproc

	.cfi_adjust_cfa_offset	4

	pushl	%ebp
	.cfi_adjust_cfa_offset	4

	movl	%esp,	%ebp
	.cfi_def_cfa_register	5

	subl	$LLsuffix_SIZE,	%esp
	movl	%esp,	%edi
	movl	$filler,	%esi
	movl	$LSLsuffix_SIZE,	%ecx
	rep movsl	
# SLABEL ("L617") / 

L617:

# SLABEL ("L620") / 

L620:

# LINE (272) / 

	.stabn 68,0,272,0

	.stabn 68,0,272,.L60-Lsuffix

.L60:

# LD (Arg (0)) / 

	movl	8(%ebp),	%ebx
# DUP / 

	movl	%ebx,	%ecx
# SLABEL ("L625") / 

L625:

# STRING ("<") / 

	movl	$string_34,	%esi
	pushl	%ebx
	pushl	%ecx
	pushl	%esi
	call	Bstring
	addl	$4,	%esp
	popl	%ecx
	popl	%ebx
	movl	%eax,	%esi
# PATT (StrCmp) / 

	pushl	%ebx
	pushl	%esi
	pushl	%ecx
	call	Bstring_patt
	addl	$8,	%esp
	popl	%ebx
	movl	%eax,	%ecx
# CJMP ("z", "L624") / 

	sarl	%ecx
	cmpl	$0,	%ecx
	jz	L624
# DROP / 

# SLABEL ("L627") / 

L627:

# STRING ("l") / 

	movl	$string_35,	%ebx
	pushl	%ebx
	call	Bstring
	addl	$4,	%esp
	movl	%eax,	%ebx
# SLABEL ("L628") / 

L628:

# JMP ("L619") / 

	jmp	L619
# SLABEL ("L626") / 

L626:

# SLABEL ("L630") / 

L630:

# LABEL ("L624") / 

L624:

# DUP / 

	movl	%ebx,	%ecx
# STRING ("<=") / 

	movl	$string_36,	%esi
	pushl	%ebx
	pushl	%ecx
	pushl	%esi
	call	Bstring
	addl	$4,	%esp
	popl	%ecx
	popl	%ebx
	movl	%eax,	%esi
# PATT (StrCmp) / 

	pushl	%ebx
	pushl	%esi
	pushl	%ecx
	call	Bstring_patt
	addl	$8,	%esp
	popl	%ebx
	movl	%eax,	%ecx
# CJMP ("z", "L629") / 

	sarl	%ecx
	cmpl	$0,	%ecx
	jz	L629
# DROP / 

# SLABEL ("L632") / 

L632:

# STRING ("le") / 

	movl	$string_37,	%ebx
	pushl	%ebx
	call	Bstring
	addl	$4,	%esp
	movl	%eax,	%ebx
# SLABEL ("L633") / 

L633:

# JMP ("L619") / 

	jmp	L619
# SLABEL ("L631") / 

L631:

# SLABEL ("L635") / 

L635:

# LABEL ("L629") / 

L629:

# DUP / 

	movl	%ebx,	%ecx
# STRING ("==") / 

	movl	$string_38,	%esi
	pushl	%ebx
	pushl	%ecx
	pushl	%esi
	call	Bstring
	addl	$4,	%esp
	popl	%ecx
	popl	%ebx
	movl	%eax,	%esi
# PATT (StrCmp) / 

	pushl	%ebx
	pushl	%esi
	pushl	%ecx
	call	Bstring_patt
	addl	$8,	%esp
	popl	%ebx
	movl	%eax,	%ecx
# CJMP ("z", "L634") / 

	sarl	%ecx
	cmpl	$0,	%ecx
	jz	L634
# DROP / 

# SLABEL ("L637") / 

L637:

# STRING ("e") / 

	movl	$string_30,	%ebx
	pushl	%ebx
	call	Bstring
	addl	$4,	%esp
	movl	%eax,	%ebx
# SLABEL ("L638") / 

L638:

# JMP ("L619") / 

	jmp	L619
# SLABEL ("L636") / 

L636:

# SLABEL ("L640") / 

L640:

# LABEL ("L634") / 

L634:

# DUP / 

	movl	%ebx,	%ecx
# STRING ("!=") / 

	movl	$string_39,	%esi
	pushl	%ebx
	pushl	%ecx
	pushl	%esi
	call	Bstring
	addl	$4,	%esp
	popl	%ecx
	popl	%ebx
	movl	%eax,	%esi
# PATT (StrCmp) / 

	pushl	%ebx
	pushl	%esi
	pushl	%ecx
	call	Bstring_patt
	addl	$8,	%esp
	popl	%ebx
	movl	%eax,	%ecx
# CJMP ("z", "L639") / 

	sarl	%ecx
	cmpl	$0,	%ecx
	jz	L639
# DROP / 

# SLABEL ("L642") / 

L642:

# STRING ("ne") / 

	movl	$string_26,	%ebx
	pushl	%ebx
	call	Bstring
	addl	$4,	%esp
	movl	%eax,	%ebx
# SLABEL ("L643") / 

L643:

# JMP ("L619") / 

	jmp	L619
# SLABEL ("L641") / 

L641:

# SLABEL ("L645") / 

L645:

# LABEL ("L639") / 

L639:

# DUP / 

	movl	%ebx,	%ecx
# STRING (">=") / 

	movl	$string_40,	%esi
	pushl	%ebx
	pushl	%ecx
	pushl	%esi
	call	Bstring
	addl	$4,	%esp
	popl	%ecx
	popl	%ebx
	movl	%eax,	%esi
# PATT (StrCmp) / 

	pushl	%ebx
	pushl	%esi
	pushl	%ecx
	call	Bstring_patt
	addl	$8,	%esp
	popl	%ebx
	movl	%eax,	%ecx
# CJMP ("z", "L644") / 

	sarl	%ecx
	cmpl	$0,	%ecx
	jz	L644
# DROP / 

# SLABEL ("L647") / 

L647:

# STRING ("ge") / 

	movl	$string_41,	%ebx
	pushl	%ebx
	call	Bstring
	addl	$4,	%esp
	movl	%eax,	%ebx
# SLABEL ("L648") / 

L648:

# JMP ("L619") / 

	jmp	L619
# SLABEL ("L646") / 

L646:

# SLABEL ("L649") / 

L649:

# LABEL ("L644") / 

L644:

# DUP / 

	movl	%ebx,	%ecx
# STRING (">") / 

	movl	$string_42,	%esi
	pushl	%ebx
	pushl	%ecx
	pushl	%esi
	call	Bstring
	addl	$4,	%esp
	popl	%ecx
	popl	%ebx
	movl	%eax,	%esi
# PATT (StrCmp) / 

	pushl	%ebx
	pushl	%esi
	pushl	%ecx
	call	Bstring_patt
	addl	$8,	%esp
	popl	%ebx
	movl	%eax,	%ecx
# CJMP ("z", "L622") / 

	sarl	%ecx
	cmpl	$0,	%ecx
	jz	L622
# DROP / 

# SLABEL ("L651") / 

L651:

# STRING ("g") / 

	movl	$string_43,	%ebx
	pushl	%ebx
	call	Bstring
	addl	$4,	%esp
	movl	%eax,	%ebx
# SLABEL ("L652") / 

L652:

# SLABEL ("L650") / 

L650:

# JMP ("L619") / 

	jmp	L619
# LABEL ("L622") / 

L622:

# FAIL ((272, 8), true) / 

	pushl	$17
	pushl	$545
	pushl	$string_16
	pushl	%ebx
	call	Bmatch_failure
	addl	$12,	%esp
# JMP ("L619") / 

	jmp	L619
# SLABEL ("L621") / 

L621:

# LABEL ("L619") / 

L619:

# SLABEL ("L618") / 

L618:

# END / 

	movl	%ebx,	%eax
LLsuffix_epilogue:

	movl	%ebp,	%esp
	popl	%ebp
	.cfi_restore	5

	.cfi_def_cfa	4, 4

	ret
	.cfi_endproc

	.set	LLsuffix_SIZE,	0

	.set	LSLsuffix_SIZE,	0

	.size Lsuffix, .-Lsuffix

# LABEL ("Lmove") / 

Lmove:

# BEGIN ("Lmove", 2, 0, [], ["from"; "to"], [{ blab="L653"; elab="L654"; names=[]; subs=[{ blab="L656"; elab="L657"; names=[]; subs=[{ blab="L673"; elab="L674"; names=[]; subs=[]; }; { blab="L664"; elab="L665"; names=[]; subs=[]; }]; }]; }]) / 

	.type move, @function

	.stabs "move:F1",36,0,0,Lmove

	.stabs "from:p1",160,0,0,8

	.stabs "to:p1",160,0,0,12

	.cfi_startproc

	.cfi_adjust_cfa_offset	4

	pushl	%ebp
	.cfi_adjust_cfa_offset	4

	movl	%esp,	%ebp
	.cfi_def_cfa_register	5

	subl	$LLmove_SIZE,	%esp
	movl	%esp,	%edi
	movl	$filler,	%esi
	movl	$LSLmove_SIZE,	%ecx
	rep movsl	
# SLABEL ("L653") / 

L653:

# SLABEL ("L656") / 

L656:

# LINE (263) / 

	.stabn 68,0,263,0

	.stabn 68,0,263,.L61-Lmove

.L61:

# LD (Arg (0)) / 

	movl	8(%ebp),	%ebx
# CALL ("LmemOpnd", 1, false) / 

	pushl	%ebx
	call	LmemOpnd
	addl	$4,	%esp
	movl	%eax,	%ebx
# LD (Arg (1)) / 

	movl	12(%ebp),	%ecx
# CALL ("LmemOpnd", 1, false) / 

	pushl	%ebx
	pushl	%ecx
	call	LmemOpnd
	addl	$4,	%esp
	popl	%ebx
	movl	%eax,	%ecx
# BINOP ("&&") / 

	decl	%ecx
	movl	%ecx,	%eax
	andl	%ecx,	%eax
	movl	$0,	%eax
	setne	%al
	decl	%ebx
	movl	%ebx,	%edx
	andl	%ebx,	%edx
	movl	$0,	%edx
	setne	%dl
	andl	%edx,	%eax
	setne	%al
	sall	%eax
	orl	$0x0001,	%eax
	movl	%eax,	%ebx
# CJMP ("z", "L659") / 

	sarl	%ebx
	cmpl	$0,	%ebx
	jz	L659
# SLABEL ("L664") / 

L664:

# LINE (264) / 

	.stabn 68,0,264,.L62-Lmove

.L62:

# LD (Arg (0)) / 

	movl	8(%ebp),	%ebx
# LD (Global ("eax")) / 

	movl	global_eax,	%ecx
# SEXP ("Mov", 2) / 

	movl	$321453,	%esi
	pushl	%esi
	pushl	%ecx
	pushl	%ebx
	pushl	$7
	call	Bsexp
	addl	$16,	%esp
	movl	%eax,	%ebx
# CALL ("LsingletonBuffer", 1, false) / 

	pushl	%ebx
	call	LsingletonBuffer
	addl	$4,	%esp
	movl	%eax,	%ebx
# LD (Global ("eax")) / 

	movl	global_eax,	%ecx
# LD (Arg (1)) / 

	movl	12(%ebp),	%esi
# SEXP ("Mov", 2) / 

	movl	$321453,	%edi
	pushl	%ebx
	pushl	%edi
	pushl	%esi
	pushl	%ecx
	pushl	$7
	call	Bsexp
	addl	$16,	%esp
	popl	%ebx
	movl	%eax,	%ecx
# CALL ("Li__Infix_6043", 2, true) / 

	movl	%ebx,	8(%ebp)
	movl	%ecx,	12(%ebp)
	movl	%ebp,	%esp
	popl	%ebp
	jmp	Li__Infix_6043
# SLABEL ("L665") / 

L665:

# JMP ("L655") / 

	jmp	L655
# LABEL ("L659") / 

L659:

# SLABEL ("L673") / 

L673:

# LINE (265) / 

	.stabn 68,0,265,.L63-Lmove

.L63:

# LD (Arg (0)) / 

	movl	8(%ebp),	%ebx
# LD (Arg (1)) / 

	movl	12(%ebp),	%ecx
# SEXP ("Mov", 2) / 

	movl	$321453,	%esi
	pushl	%esi
	pushl	%ecx
	pushl	%ebx
	pushl	$7
	call	Bsexp
	addl	$16,	%esp
	movl	%eax,	%ebx
# CALL ("LsingletonBuffer", 1, true) / 

	pushl	%ebx
	call	LsingletonBuffer
	addl	$4,	%esp
	movl	%eax,	%ebx
# SLABEL ("L674") / 

L674:

# JMP ("L655") / 

	jmp	L655
# SLABEL ("L657") / 

L657:

# LABEL ("L655") / 

L655:

# SLABEL ("L654") / 

L654:

# END / 

	movl	%ebx,	%eax
LLmove_epilogue:

	movl	%ebp,	%esp
	popl	%ebp
	.cfi_restore	5

	.cfi_def_cfa	4, 4

	ret
	.cfi_endproc

	.set	LLmove_SIZE,	0

	.set	LSLmove_SIZE,	0

	.size Lmove, .-Lmove

# LABEL ("LmemOpnd") / 

LmemOpnd:

# BEGIN ("LmemOpnd", 1, 0, [], ["opnd"], [{ blab="L678"; elab="L679"; names=[]; subs=[{ blab="L681"; elab="L682"; names=[]; subs=[{ blab="L699"; elab="L700"; names=[]; subs=[{ blab="L701"; elab="L702"; names=[]; subs=[]; }]; }; { blab="L695"; elab="L696"; names=[]; subs=[{ blab="L697"; elab="L698"; names=[]; subs=[]; }]; }; { blab="L688"; elab="L689"; names=[]; subs=[{ blab="L690"; elab="L691"; names=[]; subs=[]; }]; }]; }]; }]) / 

	.type memOpnd, @function

	.stabs "memOpnd:F1",36,0,0,LmemOpnd

	.stabs "opnd:p1",160,0,0,8

	.cfi_startproc

	.cfi_adjust_cfa_offset	4

	pushl	%ebp
	.cfi_adjust_cfa_offset	4

	movl	%esp,	%ebp
	.cfi_def_cfa_register	5

	subl	$LLmemOpnd_SIZE,	%esp
	movl	%esp,	%edi
	movl	$filler,	%esi
	movl	$LSLmemOpnd_SIZE,	%ecx
	rep movsl	
# SLABEL ("L678") / 

L678:

# SLABEL ("L681") / 

L681:

# LINE (253) / 

	.stabn 68,0,253,0

	.stabn 68,0,253,.L64-LmemOpnd

.L64:

# LD (Arg (0)) / 

	movl	8(%ebp),	%ebx
# DUP / 

	movl	%ebx,	%ecx
# SLABEL ("L688") / 

L688:

# DUP / 

	movl	%ecx,	%esi
# TAG ("S", 1) / 

	movl	$91,	%edi
	movl	$3,	-4(%ebp)
	pushl	%ebx
	pushl	%ecx
	pushl	-4(%ebp)
	pushl	%edi
	pushl	%esi
	call	Btag
	addl	$12,	%esp
	popl	%ecx
	popl	%ebx
	movl	%eax,	%esi
# CJMP ("nz", "L686") / 

	sarl	%esi
	cmpl	$0,	%esi
	jnz	L686
# LABEL ("L687") / 

L687:

# DROP / 

# JMP ("L685") / 

	jmp	L685
# LABEL ("L686") / 

L686:

# DUP / 

	movl	%ecx,	%esi
# CONST (0) / 

	movl	$1,	%edi
# CALL (".elem", 2, false) / 

	pushl	%ebx
	pushl	%ecx
	pushl	%edi
	pushl	%esi
	call	Belem
	addl	$8,	%esp
	popl	%ecx
	popl	%ebx
	movl	%eax,	%esi
# DROP / 

# DROP / 

# DROP / 

# SLABEL ("L690") / 

L690:

# CONST (1) / 

	movl	$3,	%ebx
# SLABEL ("L691") / 

L691:

# JMP ("L680") / 

	jmp	L680
# SLABEL ("L689") / 

L689:

# SLABEL ("L695") / 

L695:

# LABEL ("L685") / 

L685:

# DUP / 

	movl	%ebx,	%ecx
# DUP / 

	movl	%ecx,	%esi
# TAG ("M", 1) / 

	movl	$79,	%edi
	movl	$3,	-4(%ebp)
	pushl	%ebx
	pushl	%ecx
	pushl	-4(%ebp)
	pushl	%edi
	pushl	%esi
	call	Btag
	addl	$12,	%esp
	popl	%ecx
	popl	%ebx
	movl	%eax,	%esi
# CJMP ("nz", "L693") / 

	sarl	%esi
	cmpl	$0,	%esi
	jnz	L693
# LABEL ("L694") / 

L694:

# DROP / 

# JMP ("L692") / 

	jmp	L692
# LABEL ("L693") / 

L693:

# DUP / 

	movl	%ecx,	%esi
# CONST (0) / 

	movl	$1,	%edi
# CALL (".elem", 2, false) / 

	pushl	%ebx
	pushl	%ecx
	pushl	%edi
	pushl	%esi
	call	Belem
	addl	$8,	%esp
	popl	%ecx
	popl	%ebx
	movl	%eax,	%esi
# DROP / 

# DROP / 

# DROP / 

# SLABEL ("L697") / 

L697:

# CONST (1) / 

	movl	$3,	%ebx
# SLABEL ("L698") / 

L698:

# JMP ("L680") / 

	jmp	L680
# SLABEL ("L696") / 

L696:

# SLABEL ("L699") / 

L699:

# LABEL ("L692") / 

L692:

# DUP / 

	movl	%ebx,	%ecx
# DROP / 

# DROP / 

# SLABEL ("L701") / 

L701:

# CONST (0) / 

	movl	$1,	%ebx
# SLABEL ("L702") / 

L702:

# SLABEL ("L700") / 

L700:

# JMP ("L680") / 

	jmp	L680
# SLABEL ("L682") / 

L682:

# LABEL ("L680") / 

L680:

# SLABEL ("L679") / 

L679:

# END / 

	movl	%ebx,	%eax
LLmemOpnd_epilogue:

	movl	%ebp,	%esp
	popl	%ebp
	.cfi_restore	5

	.cfi_def_cfa	4, 4

	ret
	.cfi_endproc

	.set	LLmemOpnd_SIZE,	4

	.set	LSLmemOpnd_SIZE,	1

	.size LmemOpnd, .-LmemOpnd

# LABEL ("LstackOpnd") / 

LstackOpnd:

# BEGIN ("LstackOpnd", 1, 0, [], ["opnd"], [{ blab="L703"; elab="L704"; names=[]; subs=[{ blab="L706"; elab="L707"; names=[]; subs=[{ blab="L717"; elab="L718"; names=[]; subs=[{ blab="L719"; elab="L720"; names=[]; subs=[]; }]; }; { blab="L713"; elab="L714"; names=[]; subs=[{ blab="L715"; elab="L716"; names=[]; subs=[]; }]; }]; }]; }]) / 

	.type stackOpnd, @function

	.stabs "stackOpnd:F1",36,0,0,LstackOpnd

	.stabs "opnd:p1",160,0,0,8

	.cfi_startproc

	.cfi_adjust_cfa_offset	4

	pushl	%ebp
	.cfi_adjust_cfa_offset	4

	movl	%esp,	%ebp
	.cfi_def_cfa_register	5

	subl	$LLstackOpnd_SIZE,	%esp
	movl	%esp,	%edi
	movl	$filler,	%esi
	movl	$LSLstackOpnd_SIZE,	%ecx
	rep movsl	
# SLABEL ("L703") / 

L703:

# SLABEL ("L706") / 

L706:

# LINE (245) / 

	.stabn 68,0,245,0

	.stabn 68,0,245,.L65-LstackOpnd

.L65:

# LD (Arg (0)) / 

	movl	8(%ebp),	%ebx
# DUP / 

	movl	%ebx,	%ecx
# SLABEL ("L713") / 

L713:

# DUP / 

	movl	%ecx,	%esi
# TAG ("S", 1) / 

	movl	$91,	%edi
	movl	$3,	-4(%ebp)
	pushl	%ebx
	pushl	%ecx
	pushl	-4(%ebp)
	pushl	%edi
	pushl	%esi
	call	Btag
	addl	$12,	%esp
	popl	%ecx
	popl	%ebx
	movl	%eax,	%esi
# CJMP ("nz", "L711") / 

	sarl	%esi
	cmpl	$0,	%esi
	jnz	L711
# LABEL ("L712") / 

L712:

# DROP / 

# JMP ("L710") / 

	jmp	L710
# LABEL ("L711") / 

L711:

# DUP / 

	movl	%ecx,	%esi
# CONST (0) / 

	movl	$1,	%edi
# CALL (".elem", 2, false) / 

	pushl	%ebx
	pushl	%ecx
	pushl	%edi
	pushl	%esi
	call	Belem
	addl	$8,	%esp
	popl	%ecx
	popl	%ebx
	movl	%eax,	%esi
# DROP / 

# DROP / 

# DROP / 

# SLABEL ("L715") / 

L715:

# CONST (1) / 

	movl	$3,	%ebx
# SLABEL ("L716") / 

L716:

# JMP ("L705") / 

	jmp	L705
# SLABEL ("L714") / 

L714:

# SLABEL ("L717") / 

L717:

# LABEL ("L710") / 

L710:

# DUP / 

	movl	%ebx,	%ecx
# DROP / 

# DROP / 

# SLABEL ("L719") / 

L719:

# CONST (0) / 

	movl	$1,	%ebx
# SLABEL ("L720") / 

L720:

# SLABEL ("L718") / 

L718:

# JMP ("L705") / 

	jmp	L705
# SLABEL ("L707") / 

L707:

# LABEL ("L705") / 

L705:

# SLABEL ("L704") / 

L704:

# END / 

	movl	%ebx,	%eax
LLstackOpnd_epilogue:

	movl	%ebp,	%esp
	popl	%ebp
	.cfi_restore	5

	.cfi_def_cfa	4, 4

	ret
	.cfi_endproc

	.set	LLstackOpnd_SIZE,	4

	.set	LSLstackOpnd_SIZE,	1

	.size LstackOpnd, .-LstackOpnd

# LABEL ("Lepilogue") / 

Lepilogue:

# BEGIN ("Lepilogue", 0, 0, [], [], [{ blab="L721"; elab="L722"; names=[]; subs=[{ blab="L724"; elab="L725"; names=[]; subs=[]; }]; }]) / 

	.type epilogue, @function

	.stabs "epilogue:F1",36,0,0,Lepilogue

	.cfi_startproc

	.cfi_adjust_cfa_offset	4

	pushl	%ebp
	.cfi_adjust_cfa_offset	4

	movl	%esp,	%ebp
	.cfi_def_cfa_register	5

	subl	$LLepilogue_SIZE,	%esp
	movl	%esp,	%edi
	movl	$filler,	%esi
	movl	$LSLepilogue_SIZE,	%ecx
	rep movsl	
# SLABEL ("L721") / 

L721:

# SLABEL ("L724") / 

L724:

# LINE (237) / 

	.stabn 68,0,237,0

	.stabn 68,0,237,.L66-Lepilogue

.L66:

# LD (Global ("ebp")) / 

	movl	global_ebp,	%ebx
# LD (Global ("esp")) / 

	movl	global_esp,	%ecx
# SEXP ("Mov", 2) / 

	movl	$321453,	%esi
	pushl	%esi
	pushl	%ecx
	pushl	%ebx
	pushl	$7
	call	Bsexp
	addl	$16,	%esp
	movl	%eax,	%ebx
# CALL ("LsingletonBuffer", 1, false) / 

	pushl	%ebx
	call	LsingletonBuffer
	addl	$4,	%esp
	movl	%eax,	%ebx
# LINE (238) / 

	.stabn 68,0,238,.L67-Lepilogue

.L67:

# LD (Global ("ebp")) / 

	movl	global_ebp,	%ecx
# SEXP ("Pop", 1) / 

	movl	$346017,	%esi
	pushl	%ebx
	pushl	%esi
	pushl	%ecx
	pushl	$5
	call	Bsexp
	addl	$12,	%esp
	popl	%ebx
	movl	%eax,	%ecx
# CALL ("Li__Infix_6043", 2, false) / 

	pushl	%ecx
	pushl	%ebx
	call	Li__Infix_6043
	addl	$8,	%esp
	movl	%eax,	%ebx
# STRING ("^") / 

	movl	$string_44,	%ecx
	pushl	%ebx
	pushl	%ecx
	call	Bstring
	addl	$4,	%esp
	popl	%ebx
	movl	%eax,	%ecx
# LINE (239) / 

	.stabn 68,0,239,.L68-Lepilogue

.L68:

# LD (Global ("eax")) / 

	movl	global_eax,	%esi
# LD (Global ("eax")) / 

	movl	global_eax,	%edi
# SEXP ("Binop", 3) / 

	movl	$944359329,	-4(%ebp)
	pushl	%ebx
	pushl	-4(%ebp)
	pushl	%edi
	pushl	%esi
	pushl	%ecx
	pushl	$9
	call	Bsexp
	addl	$20,	%esp
	popl	%ebx
	movl	%eax,	%ecx
# CALL ("Li__Infix_6043", 2, false) / 

	pushl	%ecx
	pushl	%ebx
	call	Li__Infix_6043
	addl	$8,	%esp
	movl	%eax,	%ebx
# SEXP ("Ret", 0) / 

	movl	$361129,	%ecx
	pushl	%ebx
	pushl	%ecx
	pushl	$3
	call	Bsexp
	addl	$8,	%esp
	popl	%ebx
	movl	%eax,	%ecx
# CALL ("Li__Infix_6043", 2, true) / 

	pushl	%ecx
	pushl	%ebx
	call	Li__Infix_6043
	addl	$8,	%esp
	movl	%eax,	%ebx
# SLABEL ("L725") / 

L725:

# SLABEL ("L722") / 

L722:

# END / 

	movl	%ebx,	%eax
LLepilogue_epilogue:

	movl	%ebp,	%esp
	popl	%ebp
	.cfi_restore	5

	.cfi_def_cfa	4, 4

	ret
	.cfi_endproc

	.set	LLepilogue_SIZE,	4

	.set	LSLepilogue_SIZE,	1

	.size Lepilogue, .-Lepilogue

# LABEL ("Lprologue") / 

Lprologue:

# BEGIN ("Lprologue", 1, 0, [], ["size"], [{ blab="L740"; elab="L741"; names=[]; subs=[{ blab="L743"; elab="L744"; names=[]; subs=[]; }]; }]) / 

	.type prologue, @function

	.stabs "prologue:F1",36,0,0,Lprologue

	.stabs "size:p1",160,0,0,8

	.cfi_startproc

	.cfi_adjust_cfa_offset	4

	pushl	%ebp
	.cfi_adjust_cfa_offset	4

	movl	%esp,	%ebp
	.cfi_def_cfa_register	5

	subl	$LLprologue_SIZE,	%esp
	movl	%esp,	%edi
	movl	$filler,	%esi
	movl	$LSLprologue_SIZE,	%ecx
	rep movsl	
# SLABEL ("L740") / 

L740:

# SLABEL ("L743") / 

L743:

# LINE (230) / 

	.stabn 68,0,230,0

	.stabn 68,0,230,.L69-Lprologue

.L69:

# LD (Global ("ebp")) / 

	movl	global_ebp,	%ebx
# SEXP ("Push", 1) / 

	movl	$22194577,	%ecx
	pushl	%ecx
	pushl	%ebx
	pushl	$5
	call	Bsexp
	addl	$12,	%esp
	movl	%eax,	%ebx
# CALL ("LsingletonBuffer", 1, false) / 

	pushl	%ebx
	call	LsingletonBuffer
	addl	$4,	%esp
	movl	%eax,	%ebx
# LINE (231) / 

	.stabn 68,0,231,.L70-Lprologue

.L70:

# LD (Global ("esp")) / 

	movl	global_esp,	%ecx
# LD (Global ("ebp")) / 

	movl	global_ebp,	%esi
# SEXP ("Mov", 2) / 

	movl	$321453,	%edi
	pushl	%ebx
	pushl	%edi
	pushl	%esi
	pushl	%ecx
	pushl	$7
	call	Bsexp
	addl	$16,	%esp
	popl	%ebx
	movl	%eax,	%ecx
# CALL ("Li__Infix_6043", 2, false) / 

	pushl	%ecx
	pushl	%ebx
	call	Li__Infix_6043
	addl	$8,	%esp
	movl	%eax,	%ebx
# STRING ("-") / 

	movl	$string_33,	%ecx
	pushl	%ebx
	pushl	%ecx
	call	Bstring
	addl	$4,	%esp
	popl	%ebx
	movl	%eax,	%ecx
# LINE (232) / 

	.stabn 68,0,232,.L71-Lprologue

.L71:

# LD (Global ("wordSize")) / 

	movl	global_wordSize,	%esi
# LD (Arg (0)) / 

	movl	8(%ebp),	%edi
# BINOP ("*") / 

	decl	%esi
	movl	%edi,	%eax
	sarl	%eax
	imull	%eax,	%esi
	orl	$0x0001,	%esi
# SEXP ("L", 1) / 

	movl	$77,	%edi
	pushl	%ebx
	pushl	%ecx
	pushl	%edi
	pushl	%esi
	pushl	$5
	call	Bsexp
	addl	$12,	%esp
	popl	%ecx
	popl	%ebx
	movl	%eax,	%esi
# LD (Global ("esp")) / 

	movl	global_esp,	%edi
# SEXP ("Binop", 3) / 

	movl	$944359329,	-4(%ebp)
	pushl	%ebx
	pushl	-4(%ebp)
	pushl	%edi
	pushl	%esi
	pushl	%ecx
	pushl	$9
	call	Bsexp
	addl	$20,	%esp
	popl	%ebx
	movl	%eax,	%ecx
# CALL ("Li__Infix_6043", 2, true) / 

	pushl	%ecx
	pushl	%ebx
	call	Li__Infix_6043
	addl	$8,	%esp
	movl	%eax,	%ebx
# SLABEL ("L744") / 

L744:

# SLABEL ("L741") / 

L741:

# END / 

	movl	%ebx,	%eax
LLprologue_epilogue:

	movl	%ebp,	%esp
	popl	%ebp
	.cfi_restore	5

	.cfi_def_cfa	4, 4

	ret
	.cfi_endproc

	.set	LLprologue_SIZE,	4

	.set	LSLprologue_SIZE,	1

	.size Lprologue, .-Lprologue

# LABEL ("LdataDef") / 

LdataDef:

# BEGIN ("LdataDef", 1, 0, [], ["name"], [{ blab="L759"; elab="L760"; names=[]; subs=[{ blab="L762"; elab="L763"; names=[]; subs=[]; }]; }]) / 

	.type dataDef, @function

	.stabs "dataDef:F1",36,0,0,LdataDef

	.stabs "name:p1",160,0,0,8

	.cfi_startproc

	.cfi_adjust_cfa_offset	4

	pushl	%ebp
	.cfi_adjust_cfa_offset	4

	movl	%esp,	%ebp
	.cfi_def_cfa_register	5

	subl	$LLdataDef_SIZE,	%esp
	movl	%esp,	%edi
	movl	$filler,	%esi
	movl	$LSLdataDef_SIZE,	%ecx
	rep movsl	
# SLABEL ("L759") / 

L759:

# SLABEL ("L762") / 

L762:

# LINE (225) / 

	.stabn 68,0,225,0

	.stabn 68,0,225,.L72-LdataDef

.L72:

# STRING ("%s:\\t.int\\t0\\n") / 

	movl	$string_45,	%ebx
	pushl	%ebx
	call	Bstring
	addl	$4,	%esp
	movl	%eax,	%ebx
# LD (Arg (0)) / 

	movl	8(%ebp),	%ecx
# CALL ("Lsprintf", 2, false) / 

	pushl	%ecx
	pushl	%ebx
	call	Lsprintf
	addl	$8,	%esp
	movl	%eax,	%ebx
# SEXP ("Meta", 1) / 

	movl	$20490755,	%ecx
	pushl	%ecx
	pushl	%ebx
	pushl	$5
	call	Bsexp
	addl	$12,	%esp
	movl	%eax,	%ebx
# SLABEL ("L763") / 

L763:

# SLABEL ("L760") / 

L760:

# END / 

	movl	%ebx,	%eax
LLdataDef_epilogue:

	movl	%ebp,	%esp
	popl	%ebp
	.cfi_restore	5

	.cfi_def_cfa	4, 4

	ret
	.cfi_endproc

	.set	LLdataDef_SIZE,	0

	.set	LSLdataDef_SIZE,	0

	.size LdataDef, .-LdataDef

# LABEL ("LdataSection") / 

LdataSection:

# BEGIN ("LdataSection", 1, 0, [], ["text"], [{ blab="L767"; elab="L768"; names=[]; subs=[{ blab="L770"; elab="L771"; names=[]; subs=[]; }]; }]) / 

	.type dataSection, @function

	.stabs "dataSection:F1",36,0,0,LdataSection

	.stabs "text:p1",160,0,0,8

	.cfi_startproc

	.cfi_adjust_cfa_offset	4

	pushl	%ebp
	.cfi_adjust_cfa_offset	4

	movl	%esp,	%ebp
	.cfi_def_cfa_register	5

	subl	$LLdataSection_SIZE,	%esp
	movl	%esp,	%edi
	movl	$filler,	%esi
	movl	$LSLdataSection_SIZE,	%ecx
	rep movsl	
# SLABEL ("L767") / 

L767:

# SLABEL ("L770") / 

L770:

# LINE (220) / 

	.stabn 68,0,220,0

	.stabn 68,0,220,.L73-LdataSection

.L73:

# STRING ("\\t.data\\n") / 

	movl	$string_46,	%ebx
	pushl	%ebx
	call	Bstring
	addl	$4,	%esp
	movl	%eax,	%ebx
# SEXP ("Meta", 1) / 

	movl	$20490755,	%ecx
	pushl	%ecx
	pushl	%ebx
	pushl	$5
	call	Bsexp
	addl	$12,	%esp
	movl	%eax,	%ebx
# CALL ("LsingletonBuffer", 1, false) / 

	pushl	%ebx
	call	LsingletonBuffer
	addl	$4,	%esp
	movl	%eax,	%ebx
# LD (Arg (0)) / 

	movl	8(%ebp),	%ecx
# CALL ("Li__Infix_604362", 2, true) / 

	pushl	%ecx
	pushl	%ebx
	call	Li__Infix_604362
	addl	$8,	%esp
	movl	%eax,	%ebx
# SLABEL ("L771") / 

L771:

# SLABEL ("L768") / 

L768:

# END / 

	movl	%ebx,	%eax
LLdataSection_epilogue:

	movl	%ebp,	%esp
	popl	%ebp
	.cfi_restore	5

	.cfi_def_cfa	4, 4

	ret
	.cfi_endproc

	.set	LLdataSection_SIZE,	0

	.set	LSLdataSection_SIZE,	0

	.size LdataSection, .-LdataSection

# LABEL ("LcodeSection") / 

LcodeSection:

# BEGIN ("LcodeSection", 1, 0, [], ["text"], [{ blab="L776"; elab="L777"; names=[]; subs=[{ blab="L779"; elab="L780"; names=[]; subs=[]; }]; }]) / 

	.type codeSection, @function

	.stabs "codeSection:F1",36,0,0,LcodeSection

	.stabs "text:p1",160,0,0,8

	.cfi_startproc

	.cfi_adjust_cfa_offset	4

	pushl	%ebp
	.cfi_adjust_cfa_offset	4

	movl	%esp,	%ebp
	.cfi_def_cfa_register	5

	subl	$LLcodeSection_SIZE,	%esp
	movl	%esp,	%edi
	movl	$filler,	%esi
	movl	$LSLcodeSection_SIZE,	%ecx
	rep movsl	
# SLABEL ("L776") / 

L776:

# SLABEL ("L779") / 

L779:

# LINE (215) / 

	.stabn 68,0,215,0

	.stabn 68,0,215,.L74-LcodeSection

.L74:

# STRING ("\\t.text\\n") / 

	movl	$string_47,	%ebx
	pushl	%ebx
	call	Bstring
	addl	$4,	%esp
	movl	%eax,	%ebx
# SEXP ("Meta", 1) / 

	movl	$20490755,	%ecx
	pushl	%ecx
	pushl	%ebx
	pushl	$5
	call	Bsexp
	addl	$12,	%esp
	movl	%eax,	%ebx
# CALL ("LsingletonBuffer", 1, false) / 

	pushl	%ebx
	call	LsingletonBuffer
	addl	$4,	%esp
	movl	%eax,	%ebx
# LD (Arg (0)) / 

	movl	8(%ebp),	%ecx
# CALL ("Li__Infix_604362", 2, true) / 

	pushl	%ecx
	pushl	%ebx
	call	Li__Infix_604362
	addl	$8,	%esp
	movl	%eax,	%ebx
# SLABEL ("L780") / 

L780:

# SLABEL ("L777") / 

L777:

# END / 

	movl	%ebx,	%eax
LLcodeSection_epilogue:

	movl	%ebp,	%esp
	popl	%ebp
	.cfi_restore	5

	.cfi_def_cfa	4, 4

	ret
	.cfi_endproc

	.set	LLcodeSection_SIZE,	0

	.set	LSLcodeSection_SIZE,	0

	.size LcodeSection, .-LcodeSection

# LABEL ("LinitEnv") / 

LinitEnv:

# BEGIN ("LinitEnv", 0, 0, [], [], [{ blab="L785"; elab="L786"; names=[]; subs=[{ blab="L788"; elab="L789"; names=[]; subs=[]; }]; }]) / 

	.type initEnv, @function

	.stabs "initEnv:F1",36,0,0,LinitEnv

	.cfi_startproc

	.cfi_adjust_cfa_offset	4

	pushl	%ebp
	.cfi_adjust_cfa_offset	4

	movl	%esp,	%ebp
	.cfi_def_cfa_register	5

	subl	$LLinitEnv_SIZE,	%esp
	movl	%esp,	%edi
	movl	$filler,	%esi
	movl	$LSLinitEnv_SIZE,	%ecx
	rep movsl	
# SLABEL ("L785") / 

L785:

# SLABEL ("L788") / 

L788:

# LINE (209) / 

	.stabn 68,0,209,0

	.stabn 68,0,209,.L75-LinitEnv

.L75:

# CONST (0) / 

	movl	$1,	%ebx
# CLOSURE ("Lcompare", []) / 

	pushl	%ebx
	pushl	$Lcompare
	pushl	$1
	call	Bclosure
	addl	$8,	%esp
	movl	%eax,	%ecx
	popl	%ebx
# CALL ("LemptySet", 1, false) / 

	pushl	%ebx
	pushl	%ecx
	call	LemptySet
	addl	$4,	%esp
	popl	%ebx
	movl	%eax,	%ecx
# CLOSURE ("Lcompare", []) / 

	pushl	%ebx
	pushl	%ecx
	pushl	$Lcompare
	pushl	$1
	call	Bclosure
	addl	$8,	%esp
	movl	%eax,	%esi
	popl	%ecx
	popl	%ebx
# CALL ("LemptySet", 1, false) / 

	pushl	%ebx
	pushl	%ecx
	pushl	%esi
	call	LemptySet
	addl	$4,	%esp
	popl	%ecx
	popl	%ebx
	movl	%eax,	%esi
# CALL ("LmakeEnv", 3, true) / 

	pushl	%esi
	pushl	%ecx
	pushl	%ebx
	call	LmakeEnv
	addl	$12,	%esp
	movl	%eax,	%ebx
# SLABEL ("L789") / 

L789:

# SLABEL ("L786") / 

L786:

# END / 

	movl	%ebx,	%eax
LLinitEnv_epilogue:

	movl	%ebp,	%esp
	popl	%ebp
	.cfi_restore	5

	.cfi_def_cfa	4, 4

	ret
	.cfi_endproc

	.set	LLinitEnv_SIZE,	0

	.set	LSLinitEnv_SIZE,	0

	.size LinitEnv, .-LinitEnv

# LABEL ("LgetStackSize") / 

LgetStackSize:

# BEGIN ("LgetStackSize", 1, 0, [], ["env"], [{ blab="L795"; elab="L796"; names=[]; subs=[{ blab="L798"; elab="L799"; names=[]; subs=[]; }]; }]) / 

	.type getStackSize, @function

	.stabs "getStackSize:F1",36,0,0,LgetStackSize

	.stabs "env:p1",160,0,0,8

	.cfi_startproc

	.cfi_adjust_cfa_offset	4

	pushl	%ebp
	.cfi_adjust_cfa_offset	4

	movl	%esp,	%ebp
	.cfi_def_cfa_register	5

	subl	$LLgetStackSize_SIZE,	%esp
	movl	%esp,	%edi
	movl	$filler,	%esi
	movl	$LSLgetStackSize_SIZE,	%ecx
	rep movsl	
# SLABEL ("L795") / 

L795:

# SLABEL ("L798") / 

L798:

# LINE (204) / 

	.stabn 68,0,204,0

	.stabn 68,0,204,.L76-LgetStackSize

.L76:

# LD (Arg (0)) / 

	movl	8(%ebp),	%ebx
# CONST (8) / 

	movl	$17,	%ecx
# CALL (".elem", 2, false) / 

	pushl	%ecx
	pushl	%ebx
	call	Belem
	addl	$8,	%esp
	movl	%eax,	%ebx
# CALLC (0, true) / 

	pushl	%ebx
	movl	%ebx,	%edx
	call	*(%ebx)
	addl	$0,	%esp
	popl	%ebx
	movl	%eax,	%ebx
# SLABEL ("L799") / 

L799:

# SLABEL ("L796") / 

L796:

# END / 

	movl	%ebx,	%eax
LLgetStackSize_epilogue:

	movl	%ebp,	%esp
	popl	%ebp
	.cfi_restore	5

	.cfi_def_cfa	4, 4

	ret
	.cfi_endproc

	.set	LLgetStackSize_SIZE,	0

	.set	LSLgetStackSize_SIZE,	0

	.size LgetStackSize, .-LgetStackSize

# LABEL ("LgetGlobals") / 

LgetGlobals:

# BEGIN ("LgetGlobals", 1, 0, [], ["env"], [{ blab="L803"; elab="L804"; names=[]; subs=[{ blab="L806"; elab="L807"; names=[]; subs=[]; }]; }]) / 

	.type getGlobals, @function

	.stabs "getGlobals:F1",36,0,0,LgetGlobals

	.stabs "env:p1",160,0,0,8

	.cfi_startproc

	.cfi_adjust_cfa_offset	4

	pushl	%ebp
	.cfi_adjust_cfa_offset	4

	movl	%esp,	%ebp
	.cfi_def_cfa_register	5

	subl	$LLgetGlobals_SIZE,	%esp
	movl	%esp,	%edi
	movl	$filler,	%esi
	movl	$LSLgetGlobals_SIZE,	%ecx
	rep movsl	
# SLABEL ("L803") / 

L803:

# SLABEL ("L806") / 

L806:

# LINE (200) / 

	.stabn 68,0,200,0

	.stabn 68,0,200,.L77-LgetGlobals

.L77:

# LD (Arg (0)) / 

	movl	8(%ebp),	%ebx
# CONST (7) / 

	movl	$15,	%ecx
# CALL (".elem", 2, false) / 

	pushl	%ecx
	pushl	%ebx
	call	Belem
	addl	$8,	%esp
	movl	%eax,	%ebx
# CALLC (0, true) / 

	pushl	%ebx
	movl	%ebx,	%edx
	call	*(%ebx)
	addl	$0,	%esp
	popl	%ebx
	movl	%eax,	%ebx
# SLABEL ("L807") / 

L807:

# SLABEL ("L804") / 

L804:

# END / 

	movl	%ebx,	%eax
LLgetGlobals_epilogue:

	movl	%ebp,	%esp
	popl	%ebp
	.cfi_restore	5

	.cfi_def_cfa	4, 4

	ret
	.cfi_endproc

	.set	LLgetGlobals_SIZE,	0

	.set	LSLgetGlobals_SIZE,	0

	.size LgetGlobals, .-LgetGlobals

# LABEL ("Lloc") / 

Lloc:

# BEGIN ("Lloc", 2, 0, [], ["env"; "name"], [{ blab="L811"; elab="L812"; names=[]; subs=[{ blab="L814"; elab="L815"; names=[]; subs=[]; }]; }]) / 

	.type loc, @function

	.stabs "loc:F1",36,0,0,Lloc

	.stabs "env:p1",160,0,0,8

	.stabs "name:p1",160,0,0,12

	.cfi_startproc

	.cfi_adjust_cfa_offset	4

	pushl	%ebp
	.cfi_adjust_cfa_offset	4

	movl	%esp,	%ebp
	.cfi_def_cfa_register	5

	subl	$LLloc_SIZE,	%esp
	movl	%esp,	%edi
	movl	$filler,	%esi
	movl	$LSLloc_SIZE,	%ecx
	rep movsl	
# SLABEL ("L811") / 

L811:

# SLABEL ("L814") / 

L814:

# LINE (196) / 

	.stabn 68,0,196,0

	.stabn 68,0,196,.L78-Lloc

.L78:

# LD (Arg (0)) / 

	movl	8(%ebp),	%ebx
# CONST (6) / 

	movl	$13,	%ecx
# CALL (".elem", 2, false) / 

	pushl	%ecx
	pushl	%ebx
	call	Belem
	addl	$8,	%esp
	movl	%eax,	%ebx
# LD (Arg (1)) / 

	movl	12(%ebp),	%ecx
# CALLC (1, true) / 

	pushl	%ebx
	pushl	%ecx
	movl	%ebx,	%edx
	call	*(%ebx)
	addl	$4,	%esp
	popl	%ebx
	movl	%eax,	%ebx
# SLABEL ("L815") / 

L815:

# SLABEL ("L812") / 

L812:

# END / 

	movl	%ebx,	%eax
LLloc_epilogue:

	movl	%ebp,	%esp
	popl	%ebp
	.cfi_restore	5

	.cfi_def_cfa	4, 4

	ret
	.cfi_endproc

	.set	LLloc_SIZE,	0

	.set	LSLloc_SIZE,	0

	.size Lloc, .-Lloc

# LABEL ("LaddGlobal") / 

LaddGlobal:

# BEGIN ("LaddGlobal", 2, 0, [], ["env"; "name"], [{ blab="L820"; elab="L821"; names=[]; subs=[{ blab="L823"; elab="L824"; names=[]; subs=[]; }]; }]) / 

	.type addGlobal, @function

	.stabs "addGlobal:F1",36,0,0,LaddGlobal

	.stabs "env:p1",160,0,0,8

	.stabs "name:p1",160,0,0,12

	.cfi_startproc

	.cfi_adjust_cfa_offset	4

	pushl	%ebp
	.cfi_adjust_cfa_offset	4

	movl	%esp,	%ebp
	.cfi_def_cfa_register	5

	subl	$LLaddGlobal_SIZE,	%esp
	movl	%esp,	%edi
	movl	$filler,	%esi
	movl	$LSLaddGlobal_SIZE,	%ecx
	rep movsl	
# SLABEL ("L820") / 

L820:

# SLABEL ("L823") / 

L823:

# LINE (192) / 

	.stabn 68,0,192,0

	.stabn 68,0,192,.L79-LaddGlobal

.L79:

# LD (Arg (0)) / 

	movl	8(%ebp),	%ebx
# CONST (5) / 

	movl	$11,	%ecx
# CALL (".elem", 2, false) / 

	pushl	%ecx
	pushl	%ebx
	call	Belem
	addl	$8,	%esp
	movl	%eax,	%ebx
# LD (Arg (1)) / 

	movl	12(%ebp),	%ecx
# CALLC (1, true) / 

	pushl	%ebx
	pushl	%ecx
	movl	%ebx,	%edx
	call	*(%ebx)
	addl	$4,	%esp
	popl	%ebx
	movl	%eax,	%ebx
# SLABEL ("L824") / 

L824:

# SLABEL ("L821") / 

L821:

# END / 

	movl	%ebx,	%eax
LLaddGlobal_epilogue:

	movl	%ebp,	%esp
	popl	%ebp
	.cfi_restore	5

	.cfi_def_cfa	4, 4

	ret
	.cfi_endproc

	.set	LLaddGlobal_SIZE,	0

	.set	LSLaddGlobal_SIZE,	0

	.size LaddGlobal, .-LaddGlobal

# LABEL ("Lpop2") / 

Lpop2:

# BEGIN ("Lpop2", 1, 0, [], ["env"], [{ blab="L829"; elab="L830"; names=[]; subs=[{ blab="L832"; elab="L833"; names=[]; subs=[]; }]; }]) / 

	.type pop2, @function

	.stabs "pop2:F1",36,0,0,Lpop2

	.stabs "env:p1",160,0,0,8

	.cfi_startproc

	.cfi_adjust_cfa_offset	4

	pushl	%ebp
	.cfi_adjust_cfa_offset	4

	movl	%esp,	%ebp
	.cfi_def_cfa_register	5

	subl	$LLpop2_SIZE,	%esp
	movl	%esp,	%edi
	movl	$filler,	%esi
	movl	$LSLpop2_SIZE,	%ecx
	rep movsl	
# SLABEL ("L829") / 

L829:

# SLABEL ("L832") / 

L832:

# LINE (188) / 

	.stabn 68,0,188,0

	.stabn 68,0,188,.L80-Lpop2

.L80:

# LD (Arg (0)) / 

	movl	8(%ebp),	%ebx
# CONST (4) / 

	movl	$9,	%ecx
# CALL (".elem", 2, false) / 

	pushl	%ecx
	pushl	%ebx
	call	Belem
	addl	$8,	%esp
	movl	%eax,	%ebx
# CALLC (0, true) / 

	pushl	%ebx
	movl	%ebx,	%edx
	call	*(%ebx)
	addl	$0,	%esp
	popl	%ebx
	movl	%eax,	%ebx
# SLABEL ("L833") / 

L833:

# SLABEL ("L830") / 

L830:

# END / 

	movl	%ebx,	%eax
LLpop2_epilogue:

	movl	%ebp,	%esp
	popl	%ebp
	.cfi_restore	5

	.cfi_def_cfa	4, 4

	ret
	.cfi_endproc

	.set	LLpop2_SIZE,	0

	.set	LSLpop2_SIZE,	0

	.size Lpop2, .-Lpop2

# LABEL ("Lpop") / 

Lpop:

# BEGIN ("Lpop", 1, 0, [], ["env"], [{ blab="L837"; elab="L838"; names=[]; subs=[{ blab="L840"; elab="L841"; names=[]; subs=[]; }]; }]) / 

	.type pop, @function

	.stabs "pop:F1",36,0,0,Lpop

	.stabs "env:p1",160,0,0,8

	.cfi_startproc

	.cfi_adjust_cfa_offset	4

	pushl	%ebp
	.cfi_adjust_cfa_offset	4

	movl	%esp,	%ebp
	.cfi_def_cfa_register	5

	subl	$LLpop_SIZE,	%esp
	movl	%esp,	%edi
	movl	$filler,	%esi
	movl	$LSLpop_SIZE,	%ecx
	rep movsl	
# SLABEL ("L837") / 

L837:

# SLABEL ("L840") / 

L840:

# LINE (184) / 

	.stabn 68,0,184,0

	.stabn 68,0,184,.L81-Lpop

.L81:

# LD (Arg (0)) / 

	movl	8(%ebp),	%ebx
# CONST (3) / 

	movl	$7,	%ecx
# CALL (".elem", 2, false) / 

	pushl	%ecx
	pushl	%ebx
	call	Belem
	addl	$8,	%esp
	movl	%eax,	%ebx
# CALLC (0, true) / 

	pushl	%ebx
	movl	%ebx,	%edx
	call	*(%ebx)
	addl	$0,	%esp
	popl	%ebx
	movl	%eax,	%ebx
# SLABEL ("L841") / 

L841:

# SLABEL ("L838") / 

L838:

# END / 

	movl	%ebx,	%eax
LLpop_epilogue:

	movl	%ebp,	%esp
	popl	%ebp
	.cfi_restore	5

	.cfi_def_cfa	4, 4

	ret
	.cfi_endproc

	.set	LLpop_SIZE,	0

	.set	LSLpop_SIZE,	0

	.size Lpop, .-Lpop

# LABEL ("Lpush") / 

Lpush:

# BEGIN ("Lpush", 2, 0, [], ["env"; "x"], [{ blab="L845"; elab="L846"; names=[]; subs=[{ blab="L848"; elab="L849"; names=[]; subs=[]; }]; }]) / 

	.type push, @function

	.stabs "push:F1",36,0,0,Lpush

	.stabs "env:p1",160,0,0,8

	.stabs "x:p1",160,0,0,12

	.cfi_startproc

	.cfi_adjust_cfa_offset	4

	pushl	%ebp
	.cfi_adjust_cfa_offset	4

	movl	%esp,	%ebp
	.cfi_def_cfa_register	5

	subl	$LLpush_SIZE,	%esp
	movl	%esp,	%edi
	movl	$filler,	%esi
	movl	$LSLpush_SIZE,	%ecx
	rep movsl	
# SLABEL ("L845") / 

L845:

# SLABEL ("L848") / 

L848:

# LINE (180) / 

	.stabn 68,0,180,0

	.stabn 68,0,180,.L82-Lpush

.L82:

# LD (Arg (0)) / 

	movl	8(%ebp),	%ebx
# CONST (2) / 

	movl	$5,	%ecx
# CALL (".elem", 2, false) / 

	pushl	%ecx
	pushl	%ebx
	call	Belem
	addl	$8,	%esp
	movl	%eax,	%ebx
# LD (Arg (1)) / 

	movl	12(%ebp),	%ecx
# CALLC (1, true) / 

	pushl	%ebx
	pushl	%ecx
	movl	%ebx,	%edx
	call	*(%ebx)
	addl	$4,	%esp
	popl	%ebx
	movl	%eax,	%ebx
# SLABEL ("L849") / 

L849:

# SLABEL ("L846") / 

L846:

# END / 

	movl	%ebx,	%eax
LLpush_epilogue:

	movl	%ebp,	%esp
	popl	%ebp
	.cfi_restore	5

	.cfi_def_cfa	4, 4

	ret
	.cfi_endproc

	.set	LLpush_SIZE,	0

	.set	LSLpush_SIZE,	0

	.size Lpush, .-Lpush

# LABEL ("Lallocate") / 

Lallocate:

# BEGIN ("Lallocate", 1, 0, [], ["env"], [{ blab="L854"; elab="L855"; names=[]; subs=[{ blab="L857"; elab="L858"; names=[]; subs=[]; }]; }]) / 

	.type allocate, @function

	.stabs "allocate:F1",36,0,0,Lallocate

	.stabs "env:p1",160,0,0,8

	.cfi_startproc

	.cfi_adjust_cfa_offset	4

	pushl	%ebp
	.cfi_adjust_cfa_offset	4

	movl	%esp,	%ebp
	.cfi_def_cfa_register	5

	subl	$LLallocate_SIZE,	%esp
	movl	%esp,	%edi
	movl	$filler,	%esi
	movl	$LSLallocate_SIZE,	%ecx
	rep movsl	
# SLABEL ("L854") / 

L854:

# SLABEL ("L857") / 

L857:

# LINE (176) / 

	.stabn 68,0,176,0

	.stabn 68,0,176,.L83-Lallocate

.L83:

# LD (Arg (0)) / 

	movl	8(%ebp),	%ebx
# CONST (1) / 

	movl	$3,	%ecx
# CALL (".elem", 2, false) / 

	pushl	%ecx
	pushl	%ebx
	call	Belem
	addl	$8,	%esp
	movl	%eax,	%ebx
# CALLC (0, true) / 

	pushl	%ebx
	movl	%ebx,	%edx
	call	*(%ebx)
	addl	$0,	%esp
	popl	%ebx
	movl	%eax,	%ebx
# SLABEL ("L858") / 

L858:

# SLABEL ("L855") / 

L855:

# END / 

	movl	%ebx,	%eax
LLallocate_epilogue:

	movl	%ebp,	%esp
	popl	%ebp
	.cfi_restore	5

	.cfi_def_cfa	4, 4

	ret
	.cfi_endproc

	.set	LLallocate_SIZE,	0

	.set	LSLallocate_SIZE,	0

	.size Lallocate, .-Lallocate

# LABEL ("LenvString") / 

LenvString:

# BEGIN ("LenvString", 1, 0, [], ["env"], [{ blab="L862"; elab="L863"; names=[]; subs=[{ blab="L865"; elab="L866"; names=[]; subs=[]; }]; }]) / 

	.type envString, @function

	.stabs "envString:F1",36,0,0,LenvString

	.stabs "env:p1",160,0,0,8

	.cfi_startproc

	.cfi_adjust_cfa_offset	4

	pushl	%ebp
	.cfi_adjust_cfa_offset	4

	movl	%esp,	%ebp
	.cfi_def_cfa_register	5

	subl	$LLenvString_SIZE,	%esp
	movl	%esp,	%edi
	movl	$filler,	%esi
	movl	$LSLenvString_SIZE,	%ecx
	rep movsl	
# SLABEL ("L862") / 

L862:

# SLABEL ("L865") / 

L865:

# LINE (172) / 

	.stabn 68,0,172,0

	.stabn 68,0,172,.L84-LenvString

.L84:

# LD (Arg (0)) / 

	movl	8(%ebp),	%ebx
# CONST (0) / 

	movl	$1,	%ecx
# CALL (".elem", 2, false) / 

	pushl	%ecx
	pushl	%ebx
	call	Belem
	addl	$8,	%esp
	movl	%eax,	%ebx
# CALLC (0, true) / 

	pushl	%ebx
	movl	%ebx,	%edx
	call	*(%ebx)
	addl	$0,	%esp
	popl	%ebx
	movl	%eax,	%ebx
# SLABEL ("L866") / 

L866:

# SLABEL ("L863") / 

L863:

# END / 

	movl	%ebx,	%eax
LLenvString_epilogue:

	movl	%ebp,	%esp
	popl	%ebp
	.cfi_restore	5

	.cfi_def_cfa	4, 4

	ret
	.cfi_endproc

	.set	LLenvString_SIZE,	0

	.set	LSLenvString_SIZE,	0

	.size LenvString, .-LenvString

# LABEL ("LmakeEnv") / 

LmakeEnv:

# BEGIN ("LmakeEnv", 3, 0, [], ["stack"; "stackSlots"; "globals"], [{ blab="L870"; elab="L871"; names=[]; subs=[{ blab="L873"; elab="L874"; names=[]; subs=[]; }]; }]) / 

	.type makeEnv, @function

	.stabs "makeEnv:F1",36,0,0,LmakeEnv

	.stabs "stack:p1",160,0,0,8

	.stabs "stackSlots:p1",160,0,0,12

	.stabs "globals:p1",160,0,0,16

	.cfi_startproc

	.cfi_adjust_cfa_offset	4

	pushl	%ebp
	.cfi_adjust_cfa_offset	4

	movl	%esp,	%ebp
	.cfi_def_cfa_register	5

	subl	$LLmakeEnv_SIZE,	%esp
	movl	%esp,	%edi
	movl	$filler,	%esi
	movl	$LSLmakeEnv_SIZE,	%ecx
	rep movsl	
# SLABEL ("L870") / 

L870:

# SLABEL ("L873") / 

L873:

# LINE (167) / 

	.stabn 68,0,167,0

	.stabn 68,0,167,.L85-LmakeEnv

.L85:

# CLOSURE ("LenvString_144", [Arg (0); Arg (1); Arg (2)]) / 

	pushl	16(%ebp)
	pushl	12(%ebp)
	pushl	8(%ebp)
	pushl	$LenvString_144
	pushl	$7
	call	Bclosure
	addl	$20,	%esp
	movl	%eax,	%ebx
# CLOSURE ("Lallocate_144", [Arg (0); Arg (1); Arg (2)]) / 

	pushl	%ebx
	pushl	16(%ebp)
	pushl	12(%ebp)
	pushl	8(%ebp)
	pushl	$Lallocate_144
	pushl	$7
	call	Bclosure
	addl	$20,	%esp
	movl	%eax,	%ecx
	popl	%ebx
# CLOSURE ("Lpush_144", [Arg (0); Arg (1); Arg (2)]) / 

	pushl	%ebx
	pushl	%ecx
	pushl	16(%ebp)
	pushl	12(%ebp)
	pushl	8(%ebp)
	pushl	$Lpush_144
	pushl	$7
	call	Bclosure
	addl	$20,	%esp
	movl	%eax,	%esi
	popl	%ecx
	popl	%ebx
# CLOSURE ("Lpop_144", [Arg (0); Arg (1); Arg (2)]) / 

	pushl	%ebx
	pushl	%ecx
	pushl	%esi
	pushl	16(%ebp)
	pushl	12(%ebp)
	pushl	8(%ebp)
	pushl	$Lpop_144
	pushl	$7
	call	Bclosure
	addl	$20,	%esp
	movl	%eax,	%edi
	popl	%esi
	popl	%ecx
	popl	%ebx
# CLOSURE ("Lpop2_144", [Arg (0); Arg (1); Arg (2)]) / 

	pushl	%ebx
	pushl	%ecx
	pushl	%esi
	pushl	%edi
	pushl	16(%ebp)
	pushl	12(%ebp)
	pushl	8(%ebp)
	pushl	$Lpop2_144
	pushl	$7
	call	Bclosure
	addl	$20,	%esp
	movl	%eax,	-4(%ebp)
	popl	%edi
	popl	%esi
	popl	%ecx
	popl	%ebx
# CLOSURE ("LaddGlobal_144", [Arg (0); Arg (1); Arg (2)]) / 

	pushl	%ebx
	pushl	%ecx
	pushl	%esi
	pushl	%edi
	pushl	16(%ebp)
	pushl	12(%ebp)
	pushl	8(%ebp)
	pushl	$LaddGlobal_144
	pushl	$7
	call	Bclosure
	addl	$20,	%esp
	movl	%eax,	-8(%ebp)
	popl	%edi
	popl	%esi
	popl	%ecx
	popl	%ebx
# CLOSURE ("Lloc_144", []) / 

	pushl	%ebx
	pushl	%ecx
	pushl	%esi
	pushl	%edi
	pushl	$Lloc_144
	pushl	$1
	call	Bclosure
	addl	$8,	%esp
	movl	%eax,	-12(%ebp)
	popl	%edi
	popl	%esi
	popl	%ecx
	popl	%ebx
# CLOSURE ("LgetGlobals_144", [Arg (2)]) / 

	pushl	%ebx
	pushl	%ecx
	pushl	%esi
	pushl	%edi
	pushl	16(%ebp)
	pushl	$LgetGlobals_144
	pushl	$3
	call	Bclosure
	addl	$12,	%esp
	movl	%eax,	-16(%ebp)
	popl	%edi
	popl	%esi
	popl	%ecx
	popl	%ebx
# CLOSURE ("LgetStackSize_144", [Arg (1)]) / 

	pushl	%ebx
	pushl	%ecx
	pushl	%esi
	pushl	%edi
	pushl	12(%ebp)
	pushl	$LgetStackSize_144
	pushl	$3
	call	Bclosure
	addl	$12,	%esp
	movl	%eax,	-20(%ebp)
	popl	%edi
	popl	%esi
	popl	%ecx
	popl	%ebx
# CALL (".array", 9, true) / 

	pushl	-20(%ebp)
	pushl	-16(%ebp)
	pushl	-12(%ebp)
	pushl	-8(%ebp)
	pushl	-4(%ebp)
	pushl	%edi
	pushl	%esi
	pushl	%ecx
	pushl	%ebx
	pushl	$19
	call	Barray
	addl	$40,	%esp
	movl	%eax,	%ebx
# SLABEL ("L874") / 

L874:

# SLABEL ("L871") / 

L871:

# END / 

	movl	%ebx,	%eax
LLmakeEnv_epilogue:

	movl	%ebp,	%esp
	popl	%ebp
	.cfi_restore	5

	.cfi_def_cfa	4, 4

	ret
	.cfi_endproc

	.set	LLmakeEnv_SIZE,	20

	.set	LSLmakeEnv_SIZE,	5

	.size LmakeEnv, .-LmakeEnv

# LABEL ("LgetStackSize_144") / 

LgetStackSize_144:

# BEGIN ("LgetStackSize_144", 0, 0, [Arg (1)], [], [{ blab="L884"; elab="L885"; names=[]; subs=[{ blab="L887"; elab="L888"; names=[]; subs=[]; }]; }]) / 

	.type getStackSize_144, @function

	.stabs "getStackSize_144:F1",36,0,0,LgetStackSize_144

	.cfi_startproc

	.cfi_adjust_cfa_offset	4

	pushl	%edx
	.cfi_adjust_cfa_offset	4

	pushl	%ebp
	.cfi_adjust_cfa_offset	4

	movl	%esp,	%ebp
	.cfi_def_cfa_register	5

	subl	$LLgetStackSize_144_SIZE,	%esp
	movl	%esp,	%edi
	movl	$filler,	%esi
	movl	$LSLgetStackSize_144_SIZE,	%ecx
	rep movsl	
# SLABEL ("L884") / 

L884:

# SLABEL ("L887") / 

L887:

# LINE (164) / 

	.stabn 68,0,164,0

	.stabn 68,0,164,.L86-LgetStackSize_144

.L86:

# LD (Access (0)) / 

	movl	4(%edx),	%ebx
# SLABEL ("L888") / 

L888:

# SLABEL ("L885") / 

L885:

# END / 

	movl	%ebx,	%eax
LLgetStackSize_144_epilogue:

	movl	%ebp,	%esp
	popl	%ebp
	popl	%edx
	.cfi_restore	5

	.cfi_def_cfa	4, 4

	ret
	.cfi_endproc

	.set	LLgetStackSize_144_SIZE,	0

	.set	LSLgetStackSize_144_SIZE,	0

	.size LgetStackSize_144, .-LgetStackSize_144

# LABEL ("LgetGlobals_144") / 

LgetGlobals_144:

# BEGIN ("LgetGlobals_144", 0, 0, [Arg (2)], [], [{ blab="L889"; elab="L890"; names=[]; subs=[{ blab="L892"; elab="L893"; names=[]; subs=[]; }]; }]) / 

	.type getGlobals_144, @function

	.stabs "getGlobals_144:F1",36,0,0,LgetGlobals_144

	.cfi_startproc

	.cfi_adjust_cfa_offset	4

	pushl	%edx
	.cfi_adjust_cfa_offset	4

	pushl	%ebp
	.cfi_adjust_cfa_offset	4

	movl	%esp,	%ebp
	.cfi_def_cfa_register	5

	subl	$LLgetGlobals_144_SIZE,	%esp
	movl	%esp,	%edi
	movl	$filler,	%esi
	movl	$LSLgetGlobals_144_SIZE,	%ecx
	rep movsl	
# SLABEL ("L889") / 

L889:

# SLABEL ("L892") / 

L892:

# LINE (159) / 

	.stabn 68,0,159,0

	.stabn 68,0,159,.L87-LgetGlobals_144

.L87:

# LD (Access (0)) / 

	movl	4(%edx),	%ebx
# CALL ("Lelements", 1, true) / 

	pushl	%edx
	pushl	%ebx
	call	Lelements
	addl	$4,	%esp
	popl	%edx
	movl	%eax,	%ebx
# SLABEL ("L893") / 

L893:

# SLABEL ("L890") / 

L890:

# END / 

	movl	%ebx,	%eax
LLgetGlobals_144_epilogue:

	movl	%ebp,	%esp
	popl	%ebp
	popl	%edx
	.cfi_restore	5

	.cfi_def_cfa	4, 4

	ret
	.cfi_endproc

	.set	LLgetGlobals_144_SIZE,	0

	.set	LSLgetGlobals_144_SIZE,	0

	.size LgetGlobals_144, .-LgetGlobals_144

# LABEL ("Lloc_144") / 

Lloc_144:

# BEGIN ("Lloc_144", 1, 0, [], ["name"], [{ blab="L895"; elab="L896"; names=[]; subs=[{ blab="L898"; elab="L899"; names=[]; subs=[]; }]; }]) / 

	.type loc_144, @function

	.stabs "loc_144:F1",36,0,0,Lloc_144

	.stabs "name:p1",160,0,0,8

	.cfi_startproc

	.cfi_adjust_cfa_offset	4

	pushl	%ebp
	.cfi_adjust_cfa_offset	4

	movl	%esp,	%ebp
	.cfi_def_cfa_register	5

	subl	$LLloc_144_SIZE,	%esp
	movl	%esp,	%edi
	movl	$filler,	%esi
	movl	$LSLloc_144_SIZE,	%ecx
	rep movsl	
# SLABEL ("L895") / 

L895:

# SLABEL ("L898") / 

L898:

# LINE (154) / 

	.stabn 68,0,154,0

	.stabn 68,0,154,.L88-Lloc_144

.L88:

# LD (Arg (0)) / 

	movl	8(%ebp),	%ebx
# CALL ("LglobalName_144", 1, false) / 

	pushl	%ebx
	call	LglobalName_144
	addl	$4,	%esp
	movl	%eax,	%ebx
# SEXP ("M", 1) / 

	movl	$79,	%ecx
	pushl	%ecx
	pushl	%ebx
	pushl	$5
	call	Bsexp
	addl	$12,	%esp
	movl	%eax,	%ebx
# SLABEL ("L899") / 

L899:

# SLABEL ("L896") / 

L896:

# END / 

	movl	%ebx,	%eax
LLloc_144_epilogue:

	movl	%ebp,	%esp
	popl	%ebp
	.cfi_restore	5

	.cfi_def_cfa	4, 4

	ret
	.cfi_endproc

	.set	LLloc_144_SIZE,	0

	.set	LSLloc_144_SIZE,	0

	.size Lloc_144, .-Lloc_144

# LABEL ("LaddGlobal_144") / 

LaddGlobal_144:

# BEGIN ("LaddGlobal_144", 1, 0, [Arg (0); Arg (1); Arg (2)], ["name"], [{ blab="L902"; elab="L903"; names=[]; subs=[{ blab="L905"; elab="L906"; names=[]; subs=[]; }]; }]) / 

	.type addGlobal_144, @function

	.stabs "addGlobal_144:F1",36,0,0,LaddGlobal_144

	.stabs "name:p1",160,0,0,8

	.cfi_startproc

	.cfi_adjust_cfa_offset	4

	pushl	%edx
	.cfi_adjust_cfa_offset	4

	pushl	%ebp
	.cfi_adjust_cfa_offset	4

	movl	%esp,	%ebp
	.cfi_def_cfa_register	5

	subl	$LLaddGlobal_144_SIZE,	%esp
	movl	%esp,	%edi
	movl	$filler,	%esi
	movl	$LSLaddGlobal_144_SIZE,	%ecx
	rep movsl	
# SLABEL ("L902") / 

L902:

# SLABEL ("L905") / 

L905:

# LINE (149) / 

	.stabn 68,0,149,0

	.stabn 68,0,149,.L89-LaddGlobal_144

.L89:

# LD (Access (0)) / 

	movl	4(%edx),	%ebx
# LD (Access (1)) / 

	movl	8(%edx),	%ecx
# LD (Access (2)) / 

	movl	12(%edx),	%esi
# LD (Arg (0)) / 

	movl	12(%ebp),	%edi
# CALL ("LglobalName_144", 1, false) / 

	pushl	%edx
	pushl	%ebx
	pushl	%ecx
	pushl	%esi
	pushl	%edi
	call	LglobalName_144
	addl	$4,	%esp
	popl	%esi
	popl	%ecx
	popl	%ebx
	popl	%edx
	movl	%eax,	%edi
# CALL ("LaddSet", 2, false) / 

	pushl	%edx
	pushl	%ebx
	pushl	%ecx
	pushl	%edi
	pushl	%esi
	call	LaddSet
	addl	$8,	%esp
	popl	%ecx
	popl	%ebx
	popl	%edx
	movl	%eax,	%esi
# CALL ("LmakeEnv", 3, true) / 

	pushl	%edx
	pushl	%esi
	pushl	%ecx
	pushl	%ebx
	call	LmakeEnv
	addl	$12,	%esp
	popl	%edx
	movl	%eax,	%ebx
# SLABEL ("L906") / 

L906:

# SLABEL ("L903") / 

L903:

# END / 

	movl	%ebx,	%eax
LLaddGlobal_144_epilogue:

	movl	%ebp,	%esp
	popl	%ebp
	popl	%edx
	.cfi_restore	5

	.cfi_def_cfa	4, 4

	ret
	.cfi_endproc

	.set	LLaddGlobal_144_SIZE,	0

	.set	LSLaddGlobal_144_SIZE,	0

	.size LaddGlobal_144, .-LaddGlobal_144

# LABEL ("Lpop2_144") / 

Lpop2_144:

# BEGIN ("Lpop2_144", 0, 3, [Arg (0); Arg (1); Arg (2)], [], [{ blab="L913"; elab="L914"; names=[]; subs=[{ blab="L916"; elab="L917"; names=[]; subs=[{ blab="L924"; elab="L925"; names=[("x", 2); ("y", 1); ("stack", 0)]; subs=[{ blab="L926"; elab="L927"; names=[]; subs=[]; }]; }]; }]; }]) / 

	.type pop2_144, @function

	.stabs "pop2_144:F1",36,0,0,Lpop2_144

	.stabs "x:1",128,0,0,-12

	.stabs "y:1",128,0,0,-8

	.stabs "stack:1",128,0,0,-4

	.stabn 192,0,0,L924-Lpop2_144

	.stabn 224,0,0,L925-Lpop2_144

	.cfi_startproc

	.cfi_adjust_cfa_offset	4

	pushl	%edx
	.cfi_adjust_cfa_offset	4

	pushl	%ebp
	.cfi_adjust_cfa_offset	4

	movl	%esp,	%ebp
	.cfi_def_cfa_register	5

	subl	$LLpop2_144_SIZE,	%esp
	movl	%esp,	%edi
	movl	$filler,	%esi
	movl	$LSLpop2_144_SIZE,	%ecx
	rep movsl	
# SLABEL ("L913") / 

L913:

# SLABEL ("L916") / 

L916:

# LINE (142) / 

	.stabn 68,0,142,0

	.stabn 68,0,142,.L90-Lpop2_144

.L90:

# LD (Access (0)) / 

	movl	4(%edx),	%ebx
# DUP / 

	movl	%ebx,	%ecx
# SLABEL ("L924") / 

L924:

# DUP / 

	movl	%ecx,	%esi
# TAG ("cons", 2) / 

	movl	$1697575,	%edi
	movl	$5,	-16(%ebp)
	pushl	%edx
	pushl	%ebx
	pushl	%ecx
	pushl	-16(%ebp)
	pushl	%edi
	pushl	%esi
	call	Btag
	addl	$12,	%esp
	popl	%ecx
	popl	%ebx
	popl	%edx
	movl	%eax,	%esi
# CJMP ("nz", "L920") / 

	sarl	%esi
	cmpl	$0,	%esi
	jnz	L920
# LABEL ("L921") / 

L921:

# DROP / 

# JMP ("L918") / 

	jmp	L918
# LABEL ("L920") / 

L920:

# DUP / 

	movl	%ecx,	%esi
# CONST (0) / 

	movl	$1,	%edi
# CALL (".elem", 2, false) / 

	pushl	%edx
	pushl	%ebx
	pushl	%ecx
	pushl	%edi
	pushl	%esi
	call	Belem
	addl	$8,	%esp
	popl	%ecx
	popl	%ebx
	popl	%edx
	movl	%eax,	%esi
# DROP / 

# DUP / 

	movl	%ecx,	%esi
# CONST (1) / 

	movl	$3,	%edi
# CALL (".elem", 2, false) / 

	pushl	%edx
	pushl	%ebx
	pushl	%ecx
	pushl	%edi
	pushl	%esi
	call	Belem
	addl	$8,	%esp
	popl	%ecx
	popl	%ebx
	popl	%edx
	movl	%eax,	%esi
# DUP / 

	movl	%esi,	%edi
# TAG ("cons", 2) / 

	movl	$1697575,	-16(%ebp)
	movl	$5,	-20(%ebp)
	pushl	%edx
	pushl	%ebx
	pushl	%ecx
	pushl	%esi
	pushl	-20(%ebp)
	pushl	-16(%ebp)
	pushl	%edi
	call	Btag
	addl	$12,	%esp
	popl	%esi
	popl	%ecx
	popl	%ebx
	popl	%edx
	movl	%eax,	%edi
# CJMP ("nz", "L922") / 

	sarl	%edi
	cmpl	$0,	%edi
	jnz	L922
# LABEL ("L923") / 

L923:

# DROP / 

# JMP ("L921") / 

	jmp	L921
# LABEL ("L922") / 

L922:

# DUP / 

	movl	%esi,	%edi
# CONST (0) / 

	movl	$1,	-16(%ebp)
# CALL (".elem", 2, false) / 

	pushl	%edx
	pushl	%ebx
	pushl	%ecx
	pushl	%esi
	pushl	-16(%ebp)
	pushl	%edi
	call	Belem
	addl	$8,	%esp
	popl	%esi
	popl	%ecx
	popl	%ebx
	popl	%edx
	movl	%eax,	%edi
# DROP / 

# DUP / 

	movl	%esi,	%edi
# CONST (1) / 

	movl	$3,	-16(%ebp)
# CALL (".elem", 2, false) / 

	pushl	%edx
	pushl	%ebx
	pushl	%ecx
	pushl	%esi
	pushl	-16(%ebp)
	pushl	%edi
	call	Belem
	addl	$8,	%esp
	popl	%esi
	popl	%ecx
	popl	%ebx
	popl	%edx
	movl	%eax,	%edi
# DROP / 

# DROP / 

# DROP / 

# DUP / 

	movl	%ebx,	%ecx
# CONST (0) / 

	movl	$1,	%esi
# CALL (".elem", 2, false) / 

	pushl	%edx
	pushl	%ebx
	pushl	%esi
	pushl	%ecx
	call	Belem
	addl	$8,	%esp
	popl	%ebx
	popl	%edx
	movl	%eax,	%ecx
# ST (Local (2)) / 

	movl	%ecx,	-12(%ebp)
# DROP / 

# DUP / 

	movl	%ebx,	%ecx
# CONST (1) / 

	movl	$3,	%esi
# CALL (".elem", 2, false) / 

	pushl	%edx
	pushl	%ebx
	pushl	%esi
	pushl	%ecx
	call	Belem
	addl	$8,	%esp
	popl	%ebx
	popl	%edx
	movl	%eax,	%ecx
# CONST (0) / 

	movl	$1,	%esi
# CALL (".elem", 2, false) / 

	pushl	%edx
	pushl	%ebx
	pushl	%esi
	pushl	%ecx
	call	Belem
	addl	$8,	%esp
	popl	%ebx
	popl	%edx
	movl	%eax,	%ecx
# ST (Local (1)) / 

	movl	%ecx,	-8(%ebp)
# DROP / 

# DUP / 

	movl	%ebx,	%ecx
# CONST (1) / 

	movl	$3,	%esi
# CALL (".elem", 2, false) / 

	pushl	%edx
	pushl	%ebx
	pushl	%esi
	pushl	%ecx
	call	Belem
	addl	$8,	%esp
	popl	%ebx
	popl	%edx
	movl	%eax,	%ecx
# CONST (1) / 

	movl	$3,	%esi
# CALL (".elem", 2, false) / 

	pushl	%edx
	pushl	%ebx
	pushl	%esi
	pushl	%ecx
	call	Belem
	addl	$8,	%esp
	popl	%ebx
	popl	%edx
	movl	%eax,	%ecx
# ST (Local (0)) / 

	movl	%ecx,	-4(%ebp)
# DROP / 

# DROP / 

# SLABEL ("L926") / 

L926:

# LINE (143) / 

	.stabn 68,0,143,.L91-Lpop2_144

.L91:

# LD (Local (2)) / 

	movl	-12(%ebp),	%ebx
# LD (Local (1)) / 

	movl	-8(%ebp),	%ecx
# LD (Local (0)) / 

	movl	-4(%ebp),	%esi
# LD (Access (1)) / 

	movl	8(%edx),	%edi
# LD (Access (2)) / 

	movl	12(%edx),	%eax
	movl	%eax,	-16(%ebp)
# CALL ("LmakeEnv", 3, false) / 

	pushl	%edx
	pushl	%ebx
	pushl	%ecx
	pushl	-16(%ebp)
	pushl	%edi
	pushl	%esi
	call	LmakeEnv
	addl	$12,	%esp
	popl	%ecx
	popl	%ebx
	popl	%edx
	movl	%eax,	%esi
# CALL (".array", 3, true) / 

	pushl	%edx
	pushl	%esi
	pushl	%ecx
	pushl	%ebx
	pushl	$7
	call	Barray
	addl	$16,	%esp
	popl	%edx
	movl	%eax,	%ebx
# SLABEL ("L927") / 

L927:

# SLABEL ("L925") / 

L925:

# JMP ("L915") / 

	jmp	L915
# LABEL ("L918") / 

L918:

# FAIL ((142, 10), true) / 

	pushl	$21
	pushl	$285
	pushl	$string_16
	pushl	%ebx
	call	Bmatch_failure
	addl	$12,	%esp
# JMP ("L915") / 

	jmp	L915
# SLABEL ("L917") / 

L917:

# LABEL ("L915") / 

L915:

# SLABEL ("L914") / 

L914:

# END / 

	movl	%ebx,	%eax
LLpop2_144_epilogue:

	movl	%ebp,	%esp
	popl	%ebp
	popl	%edx
	.cfi_restore	5

	.cfi_def_cfa	4, 4

	ret
	.cfi_endproc

	.set	LLpop2_144_SIZE,	20

	.set	LSLpop2_144_SIZE,	5

	.size Lpop2_144, .-Lpop2_144

# LABEL ("Lpop_144") / 

Lpop_144:

# BEGIN ("Lpop_144", 0, 2, [Arg (0); Arg (1); Arg (2)], [], [{ blab="L934"; elab="L935"; names=[]; subs=[{ blab="L937"; elab="L938"; names=[]; subs=[{ blab="L943"; elab="L944"; names=[("x", 1); ("stack", 0)]; subs=[{ blab="L945"; elab="L946"; names=[]; subs=[]; }]; }]; }]; }]) / 

	.type pop_144, @function

	.stabs "pop_144:F1",36,0,0,Lpop_144

	.stabs "x:1",128,0,0,-8

	.stabs "stack:1",128,0,0,-4

	.stabn 192,0,0,L943-Lpop_144

	.stabn 224,0,0,L944-Lpop_144

	.cfi_startproc

	.cfi_adjust_cfa_offset	4

	pushl	%edx
	.cfi_adjust_cfa_offset	4

	pushl	%ebp
	.cfi_adjust_cfa_offset	4

	movl	%esp,	%ebp
	.cfi_def_cfa_register	5

	subl	$LLpop_144_SIZE,	%esp
	movl	%esp,	%edi
	movl	$filler,	%esi
	movl	$LSLpop_144_SIZE,	%ecx
	rep movsl	
# SLABEL ("L934") / 

L934:

# SLABEL ("L937") / 

L937:

# LINE (134) / 

	.stabn 68,0,134,0

	.stabn 68,0,134,.L92-Lpop_144

.L92:

# LD (Access (0)) / 

	movl	4(%edx),	%ebx
# DUP / 

	movl	%ebx,	%ecx
# SLABEL ("L943") / 

L943:

# DUP / 

	movl	%ecx,	%esi
# TAG ("cons", 2) / 

	movl	$1697575,	%edi
	movl	$5,	-12(%ebp)
	pushl	%edx
	pushl	%ebx
	pushl	%ecx
	pushl	-12(%ebp)
	pushl	%edi
	pushl	%esi
	call	Btag
	addl	$12,	%esp
	popl	%ecx
	popl	%ebx
	popl	%edx
	movl	%eax,	%esi
# CJMP ("nz", "L941") / 

	sarl	%esi
	cmpl	$0,	%esi
	jnz	L941
# LABEL ("L942") / 

L942:

# DROP / 

# JMP ("L939") / 

	jmp	L939
# LABEL ("L941") / 

L941:

# DUP / 

	movl	%ecx,	%esi
# CONST (0) / 

	movl	$1,	%edi
# CALL (".elem", 2, false) / 

	pushl	%edx
	pushl	%ebx
	pushl	%ecx
	pushl	%edi
	pushl	%esi
	call	Belem
	addl	$8,	%esp
	popl	%ecx
	popl	%ebx
	popl	%edx
	movl	%eax,	%esi
# DROP / 

# DUP / 

	movl	%ecx,	%esi
# CONST (1) / 

	movl	$3,	%edi
# CALL (".elem", 2, false) / 

	pushl	%edx
	pushl	%ebx
	pushl	%ecx
	pushl	%edi
	pushl	%esi
	call	Belem
	addl	$8,	%esp
	popl	%ecx
	popl	%ebx
	popl	%edx
	movl	%eax,	%esi
# DROP / 

# DROP / 

# DUP / 

	movl	%ebx,	%ecx
# CONST (0) / 

	movl	$1,	%esi
# CALL (".elem", 2, false) / 

	pushl	%edx
	pushl	%ebx
	pushl	%esi
	pushl	%ecx
	call	Belem
	addl	$8,	%esp
	popl	%ebx
	popl	%edx
	movl	%eax,	%ecx
# ST (Local (1)) / 

	movl	%ecx,	-8(%ebp)
# DROP / 

# DUP / 

	movl	%ebx,	%ecx
# CONST (1) / 

	movl	$3,	%esi
# CALL (".elem", 2, false) / 

	pushl	%edx
	pushl	%ebx
	pushl	%esi
	pushl	%ecx
	call	Belem
	addl	$8,	%esp
	popl	%ebx
	popl	%edx
	movl	%eax,	%ecx
# ST (Local (0)) / 

	movl	%ecx,	-4(%ebp)
# DROP / 

# DROP / 

# SLABEL ("L945") / 

L945:

# LINE (135) / 

	.stabn 68,0,135,.L93-Lpop_144

.L93:

# LD (Local (1)) / 

	movl	-8(%ebp),	%ebx
# LD (Local (0)) / 

	movl	-4(%ebp),	%ecx
# LD (Access (1)) / 

	movl	8(%edx),	%esi
# LD (Access (2)) / 

	movl	12(%edx),	%edi
# CALL ("LmakeEnv", 3, false) / 

	pushl	%edx
	pushl	%ebx
	pushl	%edi
	pushl	%esi
	pushl	%ecx
	call	LmakeEnv
	addl	$12,	%esp
	popl	%ebx
	popl	%edx
	movl	%eax,	%ecx
# CALL (".array", 2, true) / 

	pushl	%edx
	pushl	%ecx
	pushl	%ebx
	pushl	$5
	call	Barray
	addl	$12,	%esp
	popl	%edx
	movl	%eax,	%ebx
# SLABEL ("L946") / 

L946:

# SLABEL ("L944") / 

L944:

# JMP ("L936") / 

	jmp	L936
# LABEL ("L939") / 

L939:

# FAIL ((134, 10), true) / 

	pushl	$21
	pushl	$269
	pushl	$string_16
	pushl	%ebx
	call	Bmatch_failure
	addl	$12,	%esp
# JMP ("L936") / 

	jmp	L936
# SLABEL ("L938") / 

L938:

# LABEL ("L936") / 

L936:

# SLABEL ("L935") / 

L935:

# END / 

	movl	%ebx,	%eax
LLpop_144_epilogue:

	movl	%ebp,	%esp
	popl	%ebp
	popl	%edx
	.cfi_restore	5

	.cfi_def_cfa	4, 4

	ret
	.cfi_endproc

	.set	LLpop_144_SIZE,	12

	.set	LSLpop_144_SIZE,	3

	.size Lpop_144, .-Lpop_144

# LABEL ("Lpush_144") / 

Lpush_144:

# BEGIN ("Lpush_144", 1, 0, [Arg (0); Arg (1); Arg (2)], ["y"], [{ blab="L952"; elab="L953"; names=[]; subs=[{ blab="L955"; elab="L956"; names=[]; subs=[]; }]; }]) / 

	.type push_144, @function

	.stabs "push_144:F1",36,0,0,Lpush_144

	.stabs "y:p1",160,0,0,8

	.cfi_startproc

	.cfi_adjust_cfa_offset	4

	pushl	%edx
	.cfi_adjust_cfa_offset	4

	pushl	%ebp
	.cfi_adjust_cfa_offset	4

	movl	%esp,	%ebp
	.cfi_def_cfa_register	5

	subl	$LLpush_144_SIZE,	%esp
	movl	%esp,	%edi
	movl	$filler,	%esi
	movl	$LSLpush_144_SIZE,	%ecx
	rep movsl	
# SLABEL ("L952") / 

L952:

# SLABEL ("L955") / 

L955:

# LINE (128) / 

	.stabn 68,0,128,0

	.stabn 68,0,128,.L94-Lpush_144

.L94:

# LD (Arg (0)) / 

	movl	12(%ebp),	%ebx
# LD (Access (0)) / 

	movl	4(%edx),	%ecx
# SEXP ("cons", 2) / 

	movl	$1697575,	%esi
	pushl	%edx
	pushl	%esi
	pushl	%ecx
	pushl	%ebx
	pushl	$7
	call	Bsexp
	addl	$16,	%esp
	popl	%edx
	movl	%eax,	%ebx
# LD (Access (1)) / 

	movl	8(%edx),	%ecx
# LD (Access (2)) / 

	movl	12(%edx),	%esi
# CALL ("LmakeEnv", 3, true) / 

	pushl	%edx
	pushl	%esi
	pushl	%ecx
	pushl	%ebx
	call	LmakeEnv
	addl	$12,	%esp
	popl	%edx
	movl	%eax,	%ebx
# SLABEL ("L956") / 

L956:

# SLABEL ("L953") / 

L953:

# END / 

	movl	%ebx,	%eax
LLpush_144_epilogue:

	movl	%ebp,	%esp
	popl	%ebp
	popl	%edx
	.cfi_restore	5

	.cfi_def_cfa	4, 4

	ret
	.cfi_endproc

	.set	LLpush_144_SIZE,	0

	.set	LSLpush_144_SIZE,	0

	.size Lpush_144, .-Lpush_144

# LABEL ("Lallocate_144") / 

Lallocate_144:

# BEGIN ("Lallocate_144", 0, 2, [Arg (0); Arg (1); Arg (2)], [], [{ blab="L962"; elab="L963"; names=[]; subs=[{ blab="L965"; elab="L966"; names=[]; subs=[{ blab="L1028"; elab="L1029"; names=[("x", 1); ("n", 0)]; subs=[{ blab="L1030"; elab="L1031"; names=[]; subs=[{ blab="L1045"; elab="L1046"; names=[]; subs=[]; }; { blab="L1043"; elab="L1044"; names=[]; subs=[]; }]; }]; }; { blab="L1019"; elab="L1020"; names=[]; subs=[{ blab="L1021"; elab="L1022"; names=[]; subs=[]; }]; }; { blab="L999"; elab="L1000"; names=[("n", 0)]; subs=[{ blab="L1001"; elab="L1002"; names=[]; subs=[{ blab="L1014"; elab="L1015"; names=[]; subs=[]; }; { blab="L1007"; elab="L1008"; names=[]; subs=[]; }]; }]; }; { blab="L983"; elab="L984"; names=[("n", 0)]; subs=[{ blab="L985"; elab="L986"; names=[]; subs=[]; }]; }; { blab="L972"; elab="L973"; names=[]; subs=[{ blab="L974"; elab="L975"; names=[]; subs=[]; }]; }]; }]; }]) / 

	.type allocate_144, @function

	.stabs "allocate_144:F1",36,0,0,Lallocate_144

	.stabs "x:1",128,0,0,-8

	.stabs "n:1",128,0,0,-4

	.stabn 192,0,0,L1028-Lallocate_144

	.stabn 224,0,0,L1029-Lallocate_144

	.stabs "n:1",128,0,0,-4

	.stabn 192,0,0,L999-Lallocate_144

	.stabn 224,0,0,L1000-Lallocate_144

	.stabs "n:1",128,0,0,-4

	.stabn 192,0,0,L983-Lallocate_144

	.stabn 224,0,0,L984-Lallocate_144

	.cfi_startproc

	.cfi_adjust_cfa_offset	4

	pushl	%edx
	.cfi_adjust_cfa_offset	4

	pushl	%ebp
	.cfi_adjust_cfa_offset	4

	movl	%esp,	%ebp
	.cfi_def_cfa_register	5

	subl	$LLallocate_144_SIZE,	%esp
	movl	%esp,	%edi
	movl	$filler,	%esi
	movl	$LSLallocate_144_SIZE,	%ecx
	rep movsl	
# SLABEL ("L962") / 

L962:

# SLABEL ("L965") / 

L965:

# LINE (117) / 

	.stabn 68,0,117,0

	.stabn 68,0,117,.L95-Lallocate_144

.L95:

# LD (Access (0)) / 

	movl	4(%edx),	%ebx
# DUP / 

	movl	%ebx,	%ecx
# SLABEL ("L972") / 

L972:

# CONST (0) / 

	movl	$1,	%esi
# BINOP ("==") / 

	xorl	%eax,	%eax
	cmpl	%esi,	%ecx
	sete	%al
	sall	%eax
	orl	$0x0001,	%eax
	movl	%eax,	%ecx
# CJMP ("z", "L971") / 

	sarl	%ecx
	cmpl	$0,	%ecx
	jz	L971
# DROP / 

# SLABEL ("L974") / 

L974:

# LINE (118) / 

	.stabn 68,0,118,.L96-Lallocate_144

.L96:

# LD (Global ("ebx")) / 

	movl	global_ebx,	%ebx
# CONST (0) / 

	movl	$1,	%ecx
# CALL (".array", 2, false) / 

	pushl	%edx
	pushl	%ecx
	pushl	%ebx
	pushl	$5
	call	Barray
	addl	$12,	%esp
	popl	%edx
	movl	%eax,	%ebx
# SLABEL ("L975") / 

L975:

# JMP ("L968") / 

	jmp	L968
# SLABEL ("L973") / 

L973:

# SLABEL ("L983") / 

L983:

# LABEL ("L971") / 

L971:

# DUP / 

	movl	%ebx,	%ecx
# DUP / 

	movl	%ecx,	%esi
# TAG ("cons", 2) / 

	movl	$1697575,	%edi
	movl	$5,	-12(%ebp)
	pushl	%edx
	pushl	%ebx
	pushl	%ecx
	pushl	-12(%ebp)
	pushl	%edi
	pushl	%esi
	call	Btag
	addl	$12,	%esp
	popl	%ecx
	popl	%ebx
	popl	%edx
	movl	%eax,	%esi
# CJMP ("nz", "L979") / 

	sarl	%esi
	cmpl	$0,	%esi
	jnz	L979
# LABEL ("L980") / 

L980:

# DROP / 

# JMP ("L978") / 

	jmp	L978
# LABEL ("L979") / 

L979:

# DUP / 

	movl	%ecx,	%esi
# CONST (0) / 

	movl	$1,	%edi
# CALL (".elem", 2, false) / 

	pushl	%edx
	pushl	%ebx
	pushl	%ecx
	pushl	%edi
	pushl	%esi
	call	Belem
	addl	$8,	%esp
	popl	%ecx
	popl	%ebx
	popl	%edx
	movl	%eax,	%esi
# DUP / 

	movl	%esi,	%edi
# TAG ("S", 1) / 

	movl	$91,	-12(%ebp)
	movl	$3,	-16(%ebp)
	pushl	%edx
	pushl	%ebx
	pushl	%ecx
	pushl	%esi
	pushl	-16(%ebp)
	pushl	-12(%ebp)
	pushl	%edi
	call	Btag
	addl	$12,	%esp
	popl	%esi
	popl	%ecx
	popl	%ebx
	popl	%edx
	movl	%eax,	%edi
# CJMP ("nz", "L981") / 

	sarl	%edi
	cmpl	$0,	%edi
	jnz	L981
# LABEL ("L982") / 

L982:

# DROP / 

# JMP ("L980") / 

	jmp	L980
# LABEL ("L981") / 

L981:

# DUP / 

	movl	%esi,	%edi
# CONST (0) / 

	movl	$1,	-12(%ebp)
# CALL (".elem", 2, false) / 

	pushl	%edx
	pushl	%ebx
	pushl	%ecx
	pushl	%esi
	pushl	-12(%ebp)
	pushl	%edi
	call	Belem
	addl	$8,	%esp
	popl	%esi
	popl	%ecx
	popl	%ebx
	popl	%edx
	movl	%eax,	%edi
# DROP / 

# DROP / 

# DUP / 

	movl	%ecx,	%esi
# CONST (1) / 

	movl	$3,	%edi
# CALL (".elem", 2, false) / 

	pushl	%edx
	pushl	%ebx
	pushl	%ecx
	pushl	%edi
	pushl	%esi
	call	Belem
	addl	$8,	%esp
	popl	%ecx
	popl	%ebx
	popl	%edx
	movl	%eax,	%esi
# DROP / 

# DROP / 

# DUP / 

	movl	%ebx,	%ecx
# CONST (0) / 

	movl	$1,	%esi
# CALL (".elem", 2, false) / 

	pushl	%edx
	pushl	%ebx
	pushl	%esi
	pushl	%ecx
	call	Belem
	addl	$8,	%esp
	popl	%ebx
	popl	%edx
	movl	%eax,	%ecx
# CONST (0) / 

	movl	$1,	%esi
# CALL (".elem", 2, false) / 

	pushl	%edx
	pushl	%ebx
	pushl	%esi
	pushl	%ecx
	call	Belem
	addl	$8,	%esp
	popl	%ebx
	popl	%edx
	movl	%eax,	%ecx
# ST (Local (0)) / 

	movl	%ecx,	-4(%ebp)
# DROP / 

# DROP / 

# SLABEL ("L985") / 

L985:

# LINE (119) / 

	.stabn 68,0,119,.L97-Lallocate_144

.L97:

# LD (Local (0)) / 

	movl	-4(%ebp),	%ebx
# CONST (1) / 

	movl	$3,	%ecx
# BINOP ("+") / 

	addl	%ecx,	%ebx
	decl	%ebx
# SEXP ("S", 1) / 

	movl	$91,	%ecx
	pushl	%edx
	pushl	%ecx
	pushl	%ebx
	pushl	$5
	call	Bsexp
	addl	$12,	%esp
	popl	%edx
	movl	%eax,	%ebx
# LD (Local (0)) / 

	movl	-4(%ebp),	%ecx
# CONST (2) / 

	movl	$5,	%esi
# BINOP ("+") / 

	addl	%esi,	%ecx
	decl	%ecx
# CALL (".array", 2, false) / 

	pushl	%edx
	pushl	%ecx
	pushl	%ebx
	pushl	$5
	call	Barray
	addl	$12,	%esp
	popl	%edx
	movl	%eax,	%ebx
# SLABEL ("L986") / 

L986:

# JMP ("L968") / 

	jmp	L968
# SLABEL ("L984") / 

L984:

# SLABEL ("L999") / 

L999:

# LABEL ("L978") / 

L978:

# DUP / 

	movl	%ebx,	%ecx
# DUP / 

	movl	%ecx,	%esi
# TAG ("cons", 2) / 

	movl	$1697575,	%edi
	movl	$5,	-12(%ebp)
	pushl	%edx
	pushl	%ebx
	pushl	%ecx
	pushl	-12(%ebp)
	pushl	%edi
	pushl	%esi
	call	Btag
	addl	$12,	%esp
	popl	%ecx
	popl	%ebx
	popl	%edx
	movl	%eax,	%esi
# CJMP ("nz", "L995") / 

	sarl	%esi
	cmpl	$0,	%esi
	jnz	L995
# LABEL ("L996") / 

L996:

# DROP / 

# JMP ("L994") / 

	jmp	L994
# LABEL ("L995") / 

L995:

# DUP / 

	movl	%ecx,	%esi
# CONST (0) / 

	movl	$1,	%edi
# CALL (".elem", 2, false) / 

	pushl	%edx
	pushl	%ebx
	pushl	%ecx
	pushl	%edi
	pushl	%esi
	call	Belem
	addl	$8,	%esp
	popl	%ecx
	popl	%ebx
	popl	%edx
	movl	%eax,	%esi
# DUP / 

	movl	%esi,	%edi
# TAG ("R", 1) / 

	movl	$89,	-12(%ebp)
	movl	$3,	-16(%ebp)
	pushl	%edx
	pushl	%ebx
	pushl	%ecx
	pushl	%esi
	pushl	-16(%ebp)
	pushl	-12(%ebp)
	pushl	%edi
	call	Btag
	addl	$12,	%esp
	popl	%esi
	popl	%ecx
	popl	%ebx
	popl	%edx
	movl	%eax,	%edi
# CJMP ("nz", "L997") / 

	sarl	%edi
	cmpl	$0,	%edi
	jnz	L997
# LABEL ("L998") / 

L998:

# DROP / 

# JMP ("L996") / 

	jmp	L996
# LABEL ("L997") / 

L997:

# DUP / 

	movl	%esi,	%edi
# CONST (0) / 

	movl	$1,	-12(%ebp)
# CALL (".elem", 2, false) / 

	pushl	%edx
	pushl	%ebx
	pushl	%ecx
	pushl	%esi
	pushl	-12(%ebp)
	pushl	%edi
	call	Belem
	addl	$8,	%esp
	popl	%esi
	popl	%ecx
	popl	%ebx
	popl	%edx
	movl	%eax,	%edi
# DROP / 

# DROP / 

# DUP / 

	movl	%ecx,	%esi
# CONST (1) / 

	movl	$3,	%edi
# CALL (".elem", 2, false) / 

	pushl	%edx
	pushl	%ebx
	pushl	%ecx
	pushl	%edi
	pushl	%esi
	call	Belem
	addl	$8,	%esp
	popl	%ecx
	popl	%ebx
	popl	%edx
	movl	%eax,	%esi
# DROP / 

# DROP / 

# DUP / 

	movl	%ebx,	%ecx
# CONST (0) / 

	movl	$1,	%esi
# CALL (".elem", 2, false) / 

	pushl	%edx
	pushl	%ebx
	pushl	%esi
	pushl	%ecx
	call	Belem
	addl	$8,	%esp
	popl	%ebx
	popl	%edx
	movl	%eax,	%ecx
# CONST (0) / 

	movl	$1,	%esi
# CALL (".elem", 2, false) / 

	pushl	%edx
	pushl	%ebx
	pushl	%esi
	pushl	%ecx
	call	Belem
	addl	$8,	%esp
	popl	%ebx
	popl	%edx
	movl	%eax,	%ecx
# ST (Local (0)) / 

	movl	%ecx,	-4(%ebp)
# DROP / 

# DROP / 

# SLABEL ("L1001") / 

L1001:

# LINE (120) / 

	.stabn 68,0,120,.L98-Lallocate_144

.L98:

# LD (Local (0)) / 

	movl	-4(%ebp),	%ebx
# LD (Global ("nRegs")) / 

	movl	global_nRegs,	%ecx
# BINOP ("<") / 

	xorl	%eax,	%eax
	cmpl	%ecx,	%ebx
	setl	%al
	sall	%eax
	orl	$0x0001,	%eax
	movl	%eax,	%ebx
# CJMP ("z", "L1004") / 

	sarl	%ebx
	cmpl	$0,	%ebx
	jz	L1004
# SLABEL ("L1007") / 

L1007:

# LD (Local (0)) / 

	movl	-4(%ebp),	%ebx
# CONST (1) / 

	movl	$3,	%ecx
# BINOP ("+") / 

	addl	%ecx,	%ebx
	decl	%ebx
# SEXP ("R", 1) / 

	movl	$89,	%ecx
	pushl	%edx
	pushl	%ecx
	pushl	%ebx
	pushl	$5
	call	Bsexp
	addl	$12,	%esp
	popl	%edx
	movl	%eax,	%ebx
# LD (Access (1)) / 

	movl	8(%edx),	%ecx
# CALL (".array", 2, false) / 

	pushl	%edx
	pushl	%ecx
	pushl	%ebx
	pushl	$5
	call	Barray
	addl	$12,	%esp
	popl	%edx
	movl	%eax,	%ebx
# SLABEL ("L1008") / 

L1008:

# JMP ("L968") / 

	jmp	L968
# LABEL ("L1004") / 

L1004:

# SLABEL ("L1014") / 

L1014:

# CONST (0) / 

	movl	$1,	%ebx
# SEXP ("S", 1) / 

	movl	$91,	%ecx
	pushl	%edx
	pushl	%ecx
	pushl	%ebx
	pushl	$5
	call	Bsexp
	addl	$12,	%esp
	popl	%edx
	movl	%eax,	%ebx
# CONST (1) / 

	movl	$3,	%ecx
# CALL (".array", 2, false) / 

	pushl	%edx
	pushl	%ecx
	pushl	%ebx
	pushl	$5
	call	Barray
	addl	$12,	%esp
	popl	%edx
	movl	%eax,	%ebx
# SLABEL ("L1015") / 

L1015:

# JMP ("L968") / 

	jmp	L968
# SLABEL ("L1002") / 

L1002:

# JMP ("L968") / 

	jmp	L968
# SLABEL ("L1000") / 

L1000:

# SLABEL ("L1019") / 

L1019:

# LABEL ("L994") / 

L994:

# DUP / 

	movl	%ebx,	%ecx
# DROP / 

# DROP / 

# SLABEL ("L1021") / 

L1021:

# CONST (0) / 

	movl	$1,	%ebx
# SEXP ("S", 1) / 

	movl	$91,	%ecx
	pushl	%edx
	pushl	%ecx
	pushl	%ebx
	pushl	$5
	call	Bsexp
	addl	$12,	%esp
	popl	%edx
	movl	%eax,	%ebx
# CONST (1) / 

	movl	$3,	%ecx
# CALL (".array", 2, false) / 

	pushl	%edx
	pushl	%ecx
	pushl	%ebx
	pushl	$5
	call	Barray
	addl	$12,	%esp
	popl	%edx
	movl	%eax,	%ebx
# SLABEL ("L1022") / 

L1022:

# SLABEL ("L1020") / 

L1020:

# JMP ("L968") / 

	jmp	L968
# LABEL ("L968") / 

L968:

# DUP / 

	movl	%ebx,	%ecx
# SLABEL ("L1028") / 

L1028:

# DUP / 

	movl	%ecx,	%esi
# ARRAY (2) / 

	movl	$5,	%edi
	pushl	%edx
	pushl	%ebx
	pushl	%ecx
	pushl	%edi
	pushl	%esi
	call	Barray_patt
	addl	$8,	%esp
	popl	%ecx
	popl	%ebx
	popl	%edx
	movl	%eax,	%esi
# CJMP ("nz", "L1026") / 

	sarl	%esi
	cmpl	$0,	%esi
	jnz	L1026
# LABEL ("L1027") / 

L1027:

# DROP / 

# JMP ("L967") / 

	jmp	L967
# LABEL ("L1026") / 

L1026:

# DUP / 

	movl	%ecx,	%esi
# CONST (0) / 

	movl	$1,	%edi
# CALL (".elem", 2, false) / 

	pushl	%edx
	pushl	%ebx
	pushl	%ecx
	pushl	%edi
	pushl	%esi
	call	Belem
	addl	$8,	%esp
	popl	%ecx
	popl	%ebx
	popl	%edx
	movl	%eax,	%esi
# DROP / 

# DUP / 

	movl	%ecx,	%esi
# CONST (1) / 

	movl	$3,	%edi
# CALL (".elem", 2, false) / 

	pushl	%edx
	pushl	%ebx
	pushl	%ecx
	pushl	%edi
	pushl	%esi
	call	Belem
	addl	$8,	%esp
	popl	%ecx
	popl	%ebx
	popl	%edx
	movl	%eax,	%esi
# DROP / 

# DROP / 

# DUP / 

	movl	%ebx,	%ecx
# CONST (0) / 

	movl	$1,	%esi
# CALL (".elem", 2, false) / 

	pushl	%edx
	pushl	%ebx
	pushl	%esi
	pushl	%ecx
	call	Belem
	addl	$8,	%esp
	popl	%ebx
	popl	%edx
	movl	%eax,	%ecx
# ST (Local (1)) / 

	movl	%ecx,	-8(%ebp)
# DROP / 

# DUP / 

	movl	%ebx,	%ecx
# CONST (1) / 

	movl	$3,	%esi
# CALL (".elem", 2, false) / 

	pushl	%edx
	pushl	%ebx
	pushl	%esi
	pushl	%ecx
	call	Belem
	addl	$8,	%esp
	popl	%ebx
	popl	%edx
	movl	%eax,	%ecx
# ST (Local (0)) / 

	movl	%ecx,	-4(%ebp)
# DROP / 

# DROP / 

# SLABEL ("L1030") / 

L1030:

# LINE (123) / 

	.stabn 68,0,123,.L99-Lallocate_144

.L99:

# LD (Local (1)) / 

	movl	-8(%ebp),	%ebx
# LD (Local (1)) / 

	movl	-8(%ebp),	%ecx
# LD (Access (0)) / 

	movl	4(%edx),	%esi
# SEXP ("cons", 2) / 

	movl	$1697575,	%edi
	pushl	%edx
	pushl	%ebx
	pushl	%edi
	pushl	%esi
	pushl	%ecx
	pushl	$7
	call	Bsexp
	addl	$16,	%esp
	popl	%ebx
	popl	%edx
	movl	%eax,	%ecx
# LD (Local (0)) / 

	movl	-4(%ebp),	%esi
# LD (Access (1)) / 

	movl	8(%edx),	%edi
# BINOP (">") / 

	xorl	%eax,	%eax
	cmpl	%edi,	%esi
	setg	%al
	sall	%eax
	orl	$0x0001,	%eax
	movl	%eax,	%esi
# CJMP ("z", "L1040") / 

	sarl	%esi
	cmpl	$0,	%esi
	jz	L1040
# SLABEL ("L1043") / 

L1043:

# LD (Local (0)) / 

	movl	-4(%ebp),	%esi
# SLABEL ("L1044") / 

L1044:

# JMP ("L1038") / 

	jmp	L1038
# LABEL ("L1040") / 

L1040:

# SLABEL ("L1045") / 

L1045:

# LD (Access (1)) / 

	movl	8(%edx),	%esi
# SLABEL ("L1046") / 

L1046:

# JMP ("L1038") / 

	jmp	L1038
# LABEL ("L1038") / 

L1038:

# LD (Access (2)) / 

	movl	12(%edx),	%edi
# CALL ("LmakeEnv", 3, false) / 

	pushl	%edx
	pushl	%ebx
	pushl	%edi
	pushl	%esi
	pushl	%ecx
	call	LmakeEnv
	addl	$12,	%esp
	popl	%ebx
	popl	%edx
	movl	%eax,	%ecx
# CALL (".array", 2, true) / 

	pushl	%edx
	pushl	%ecx
	pushl	%ebx
	pushl	$5
	call	Barray
	addl	$12,	%esp
	popl	%edx
	movl	%eax,	%ebx
# SLABEL ("L1031") / 

L1031:

# SLABEL ("L1029") / 

L1029:

# JMP ("L964") / 

	jmp	L964
# LABEL ("L967") / 

L967:

# FAIL ((117, 7), true) / 

	pushl	$15
	pushl	$235
	pushl	$string_16
	pushl	%ebx
	call	Bmatch_failure
	addl	$12,	%esp
# JMP ("L964") / 

	jmp	L964
# SLABEL ("L966") / 

L966:

# LABEL ("L964") / 

L964:

# SLABEL ("L963") / 

L963:

# END / 

	movl	%ebx,	%eax
LLallocate_144_epilogue:

	movl	%ebp,	%esp
	popl	%ebp
	popl	%edx
	.cfi_restore	5

	.cfi_def_cfa	4, 4

	ret
	.cfi_endproc

	.set	LLallocate_144_SIZE,	16

	.set	LSLallocate_144_SIZE,	4

	.size Lallocate_144, .-Lallocate_144

# LABEL ("LenvString_144") / 

LenvString_144:

# BEGIN ("LenvString_144", 0, 0, [Arg (0); Arg (1); Arg (2)], [], [{ blab="L1047"; elab="L1048"; names=[]; subs=[{ blab="L1050"; elab="L1051"; names=[]; subs=[]; }]; }]) / 

	.type envString_144, @function

	.stabs "envString_144:F1",36,0,0,LenvString_144

	.cfi_startproc

	.cfi_adjust_cfa_offset	4

	pushl	%edx
	.cfi_adjust_cfa_offset	4

	pushl	%ebp
	.cfi_adjust_cfa_offset	4

	movl	%esp,	%ebp
	.cfi_def_cfa_register	5

	subl	$LLenvString_144_SIZE,	%esp
	movl	%esp,	%edi
	movl	$filler,	%esi
	movl	$LSLenvString_144_SIZE,	%ecx
	rep movsl	
# SLABEL ("L1047") / 

L1047:

# SLABEL ("L1050") / 

L1050:

# LINE (109) / 

	.stabn 68,0,109,0

	.stabn 68,0,109,.L100-LenvString_144

.L100:

# STRING ("Stack     : %s\\nStackSlots: %d\\nGlobals   : %s\\n") / 

	movl	$string_48,	%ebx
	pushl	%edx
	pushl	%ebx
	call	Bstring
	addl	$4,	%esp
	popl	%edx
	movl	%eax,	%ebx
# LD (Access (0)) / 

	movl	4(%edx),	%ecx
# CALL (".stringval", 1, false) / 

	pushl	%edx
	pushl	%ebx
	pushl	%ecx
	call	Bstringval
	addl	$4,	%esp
	popl	%ebx
	popl	%edx
	movl	%eax,	%ecx
# LD (Access (1)) / 

	movl	8(%edx),	%esi
# LD (Access (2)) / 

	movl	12(%edx),	%edi
# CALL ("Lelements", 1, false) / 

	pushl	%edx
	pushl	%ebx
	pushl	%ecx
	pushl	%esi
	pushl	%edi
	call	Lelements
	addl	$4,	%esp
	popl	%esi
	popl	%ecx
	popl	%ebx
	popl	%edx
	movl	%eax,	%edi
# CALL (".stringval", 1, false) / 

	pushl	%edx
	pushl	%ebx
	pushl	%ecx
	pushl	%esi
	pushl	%edi
	call	Bstringval
	addl	$4,	%esp
	popl	%esi
	popl	%ecx
	popl	%ebx
	popl	%edx
	movl	%eax,	%edi
# CALL ("Lsprintf", 4, true) / 

	pushl	%edx
	pushl	%edi
	pushl	%esi
	pushl	%ecx
	pushl	%ebx
	call	Lsprintf
	addl	$16,	%esp
	popl	%edx
	movl	%eax,	%ebx
# SLABEL ("L1051") / 

L1051:

# SLABEL ("L1048") / 

L1048:

# END / 

	movl	%ebx,	%eax
LLenvString_144_epilogue:

	movl	%ebp,	%esp
	popl	%ebp
	popl	%edx
	.cfi_restore	5

	.cfi_def_cfa	4, 4

	ret
	.cfi_endproc

	.set	LLenvString_144_SIZE,	0

	.set	LSLenvString_144_SIZE,	0

	.size LenvString_144, .-LenvString_144

# LABEL ("LglobalName_144") / 

LglobalName_144:

# BEGIN ("LglobalName_144", 1, 0, [], ["name"], [{ blab="L1059"; elab="L1060"; names=[]; subs=[{ blab="L1062"; elab="L1063"; names=[]; subs=[]; }]; }]) / 

	.type globalName_144, @function

	.stabs "globalName_144:F1",36,0,0,LglobalName_144

	.stabs "name:p1",160,0,0,8

	.cfi_startproc

	.cfi_adjust_cfa_offset	4

	pushl	%ebp
	.cfi_adjust_cfa_offset	4

	movl	%esp,	%ebp
	.cfi_def_cfa_register	5

	subl	$LLglobalName_144_SIZE,	%esp
	movl	%esp,	%edi
	movl	$filler,	%esi
	movl	$LSLglobalName_144_SIZE,	%ecx
	rep movsl	
# SLABEL ("L1059") / 

L1059:

# SLABEL ("L1062") / 

L1062:

# STRING ("global_") / 

	movl	$string_49,	%ebx
	pushl	%ebx
	call	Bstring
	addl	$4,	%esp
	movl	%eax,	%ebx
# LINE (104) / 

	.stabn 68,0,104,0

	.stabn 68,0,104,.L101-LglobalName_144

.L101:

# LD (Arg (0)) / 

	movl	8(%ebp),	%ecx
# CALL ("Li__Infix_4343", 2, true) / 

	pushl	%ecx
	pushl	%ebx
	call	Li__Infix_4343
	addl	$8,	%esp
	movl	%eax,	%ebx
# SLABEL ("L1063") / 

L1063:

# SLABEL ("L1060") / 

L1060:

# END / 

	movl	%ebx,	%eax
LLglobalName_144_epilogue:

	movl	%ebp,	%esp
	popl	%ebp
	.cfi_restore	5

	.cfi_def_cfa	4, 4

	ret
	.cfi_endproc

	.set	LLglobalName_144_SIZE,	0

	.set	LSLglobalName_144_SIZE,	0

	.size LglobalName_144, .-LglobalName_144

# LABEL ("LinsnString") / 

LinsnString:

# BEGIN ("LinsnString", 1, 3, [], ["insn"], [{ blab="L1066"; elab="L1067"; names=[]; subs=[{ blab="L1069"; elab="L1070"; names=[]; subs=[{ blab="L1192"; elab="L1193"; names=[("m", 0)]; subs=[{ blab="L1194"; elab="L1195"; names=[]; subs=[]; }]; }; { blab="L1183"; elab="L1184"; names=[("c", 1); ("l", 0)]; subs=[{ blab="L1185"; elab="L1186"; names=[]; subs=[]; }]; }; { blab="L1174"; elab="L1175"; names=[("l", 0)]; subs=[{ blab="L1176"; elab="L1177"; names=[]; subs=[]; }]; }; { blab="L1165"; elab="L1166"; names=[("l", 0)]; subs=[{ blab="L1167"; elab="L1168"; names=[]; subs=[]; }]; }; { blab="L1156"; elab="L1157"; names=[("p", 0)]; subs=[{ blab="L1158"; elab="L1159"; names=[]; subs=[]; }]; }; { blab="L1149"; elab="L1150"; names=[]; subs=[{ blab="L1151"; elab="L1152"; names=[]; subs=[]; }]; }; { blab="L1139"; elab="L1140"; names=[("s", 0)]; subs=[{ blab="L1141"; elab="L1142"; names=[]; subs=[]; }]; }; { blab="L1129"; elab="L1130"; names=[("s", 0)]; subs=[{ blab="L1131"; elab="L1132"; names=[]; subs=[]; }]; }; { blab="L1117"; elab="L1118"; names=[("s1", 1); ("s2", 0)]; subs=[{ blab="L1119"; elab="L1120"; names=[]; subs=[]; }]; }; { blab="L1103"; elab="L1104"; names=[("op", 2); ("s1", 1); ("s2", 0)]; subs=[{ blab="L1105"; elab="L1106"; names=[]; subs=[]; }]; }; { blab="L1093"; elab="L1094"; names=[("s1", 0)]; subs=[{ blab="L1095"; elab="L1096"; names=[]; subs=[]; }]; }; { blab="L1083"; elab="L1084"; names=[("suf", 1); ("s", 0)]; subs=[{ blab="L1085"; elab="L1086"; names=[]; subs=[]; }]; }; { blab="L1076"; elab="L1077"; names=[]; subs=[{ blab="L1078"; elab="L1079"; names=[]; subs=[]; }]; }]; }]; }]) / 

	.type insnString, @function

	.stabs "insnString:F1",36,0,0,LinsnString

	.stabs "insn:p1",160,0,0,8

	.stabs "m:1",128,0,0,-4

	.stabn 192,0,0,L1192-LinsnString

	.stabn 224,0,0,L1193-LinsnString

	.stabs "c:1",128,0,0,-8

	.stabs "l:1",128,0,0,-4

	.stabn 192,0,0,L1183-LinsnString

	.stabn 224,0,0,L1184-LinsnString

	.stabs "l:1",128,0,0,-4

	.stabn 192,0,0,L1174-LinsnString

	.stabn 224,0,0,L1175-LinsnString

	.stabs "l:1",128,0,0,-4

	.stabn 192,0,0,L1165-LinsnString

	.stabn 224,0,0,L1166-LinsnString

	.stabs "p:1",128,0,0,-4

	.stabn 192,0,0,L1156-LinsnString

	.stabn 224,0,0,L1157-LinsnString

	.stabs "s:1",128,0,0,-4

	.stabn 192,0,0,L1139-LinsnString

	.stabn 224,0,0,L1140-LinsnString

	.stabs "s:1",128,0,0,-4

	.stabn 192,0,0,L1129-LinsnString

	.stabn 224,0,0,L1130-LinsnString

	.stabs "s1:1",128,0,0,-8

	.stabs "s2:1",128,0,0,-4

	.stabn 192,0,0,L1117-LinsnString

	.stabn 224,0,0,L1118-LinsnString

	.stabs "op:1",128,0,0,-12

	.stabs "s1:1",128,0,0,-8

	.stabs "s2:1",128,0,0,-4

	.stabn 192,0,0,L1103-LinsnString

	.stabn 224,0,0,L1104-LinsnString

	.stabs "s1:1",128,0,0,-4

	.stabn 192,0,0,L1093-LinsnString

	.stabn 224,0,0,L1094-LinsnString

	.stabs "suf:1",128,0,0,-8

	.stabs "s:1",128,0,0,-4

	.stabn 192,0,0,L1083-LinsnString

	.stabn 224,0,0,L1084-LinsnString

	.cfi_startproc

	.cfi_adjust_cfa_offset	4

	pushl	%ebp
	.cfi_adjust_cfa_offset	4

	movl	%esp,	%ebp
	.cfi_def_cfa_register	5

	subl	$LLinsnString_SIZE,	%esp
	movl	%esp,	%edi
	movl	$filler,	%esi
	movl	$LSLinsnString_SIZE,	%ecx
	rep movsl	
# SLABEL ("L1066") / 

L1066:

# SLABEL ("L1069") / 

L1069:

# LINE (78) / 

	.stabn 68,0,78,0

	.stabn 68,0,78,.L102-LinsnString

.L102:

# LD (Arg (0)) / 

	movl	8(%ebp),	%ebx
# DUP / 

	movl	%ebx,	%ecx
# SLABEL ("L1076") / 

L1076:

# DUP / 

	movl	%ecx,	%esi
# TAG ("Cltd", 0) / 

	movl	$15305225,	%edi
	movl	$1,	-16(%ebp)
	pushl	%ebx
	pushl	%ecx
	pushl	-16(%ebp)
	pushl	%edi
	pushl	%esi
	call	Btag
	addl	$12,	%esp
	popl	%ecx
	popl	%ebx
	movl	%eax,	%esi
# CJMP ("nz", "L1074") / 

	sarl	%esi
	cmpl	$0,	%esi
	jnz	L1074
# LABEL ("L1075") / 

L1075:

# DROP / 

# JMP ("L1073") / 

	jmp	L1073
# LABEL ("L1074") / 

L1074:

# DROP / 

# DROP / 

# SLABEL ("L1078") / 

L1078:

# STRING ("\\tcltd\\n") / 

	movl	$string_50,	%ebx
	pushl	%ebx
	call	Bstring
	addl	$4,	%esp
	movl	%eax,	%ebx
# SLABEL ("L1079") / 

L1079:

# JMP ("L1068") / 

	jmp	L1068
# SLABEL ("L1077") / 

L1077:

# SLABEL ("L1083") / 

L1083:

# LABEL ("L1073") / 

L1073:

# DUP / 

	movl	%ebx,	%ecx
# DUP / 

	movl	%ecx,	%esi
# TAG ("Set", 2) / 

	movl	$369321,	%edi
	movl	$5,	-16(%ebp)
	pushl	%ebx
	pushl	%ecx
	pushl	-16(%ebp)
	pushl	%edi
	pushl	%esi
	call	Btag
	addl	$12,	%esp
	popl	%ecx
	popl	%ebx
	movl	%eax,	%esi
# CJMP ("nz", "L1081") / 

	sarl	%esi
	cmpl	$0,	%esi
	jnz	L1081
# LABEL ("L1082") / 

L1082:

# DROP / 

# JMP ("L1080") / 

	jmp	L1080
# LABEL ("L1081") / 

L1081:

# DUP / 

	movl	%ecx,	%esi
# CONST (0) / 

	movl	$1,	%edi
# CALL (".elem", 2, false) / 

	pushl	%ebx
	pushl	%ecx
	pushl	%edi
	pushl	%esi
	call	Belem
	addl	$8,	%esp
	popl	%ecx
	popl	%ebx
	movl	%eax,	%esi
# DROP / 

# DUP / 

	movl	%ecx,	%esi
# CONST (1) / 

	movl	$3,	%edi
# CALL (".elem", 2, false) / 

	pushl	%ebx
	pushl	%ecx
	pushl	%edi
	pushl	%esi
	call	Belem
	addl	$8,	%esp
	popl	%ecx
	popl	%ebx
	movl	%eax,	%esi
# DROP / 

# DROP / 

# DUP / 

	movl	%ebx,	%ecx
# CONST (0) / 

	movl	$1,	%esi
# CALL (".elem", 2, false) / 

	pushl	%ebx
	pushl	%esi
	pushl	%ecx
	call	Belem
	addl	$8,	%esp
	popl	%ebx
	movl	%eax,	%ecx
# ST (Local (1)) / 

	movl	%ecx,	-8(%ebp)
# DROP / 

# DUP / 

	movl	%ebx,	%ecx
# CONST (1) / 

	movl	$3,	%esi
# CALL (".elem", 2, false) / 

	pushl	%ebx
	pushl	%esi
	pushl	%ecx
	call	Belem
	addl	$8,	%esp
	popl	%ebx
	movl	%eax,	%ecx
# ST (Local (0)) / 

	movl	%ecx,	-4(%ebp)
# DROP / 

# DROP / 

# SLABEL ("L1085") / 

L1085:

# LINE (80) / 

	.stabn 68,0,80,.L103-LinsnString

.L103:

# STRING ("\\tset%s\\t%s\\n") / 

	movl	$string_51,	%ebx
	pushl	%ebx
	call	Bstring
	addl	$4,	%esp
	movl	%eax,	%ebx
# LD (Local (1)) / 

	movl	-8(%ebp),	%ecx
# LD (Local (0)) / 

	movl	-4(%ebp),	%esi
# CALL ("Lsprintf", 3, true) / 

	pushl	%esi
	pushl	%ecx
	pushl	%ebx
	call	Lsprintf
	addl	$12,	%esp
	movl	%eax,	%ebx
# SLABEL ("L1086") / 

L1086:

# JMP ("L1068") / 

	jmp	L1068
# SLABEL ("L1084") / 

L1084:

# SLABEL ("L1093") / 

L1093:

# LABEL ("L1080") / 

L1080:

# DUP / 

	movl	%ebx,	%ecx
# DUP / 

	movl	%ecx,	%esi
# TAG ("IDiv", 1) / 

	movl	$18597037,	%edi
	movl	$3,	-16(%ebp)
	pushl	%ebx
	pushl	%ecx
	pushl	-16(%ebp)
	pushl	%edi
	pushl	%esi
	call	Btag
	addl	$12,	%esp
	popl	%ecx
	popl	%ebx
	movl	%eax,	%esi
# CJMP ("nz", "L1091") / 

	sarl	%esi
	cmpl	$0,	%esi
	jnz	L1091
# LABEL ("L1092") / 

L1092:

# DROP / 

# JMP ("L1090") / 

	jmp	L1090
# LABEL ("L1091") / 

L1091:

# DUP / 

	movl	%ecx,	%esi
# CONST (0) / 

	movl	$1,	%edi
# CALL (".elem", 2, false) / 

	pushl	%ebx
	pushl	%ecx
	pushl	%edi
	pushl	%esi
	call	Belem
	addl	$8,	%esp
	popl	%ecx
	popl	%ebx
	movl	%eax,	%esi
# DROP / 

# DROP / 

# DUP / 

	movl	%ebx,	%ecx
# CONST (0) / 

	movl	$1,	%esi
# CALL (".elem", 2, false) / 

	pushl	%ebx
	pushl	%esi
	pushl	%ecx
	call	Belem
	addl	$8,	%esp
	popl	%ebx
	movl	%eax,	%ecx
# ST (Local (0)) / 

	movl	%ecx,	-4(%ebp)
# DROP / 

# DROP / 

# SLABEL ("L1095") / 

L1095:

# LINE (81) / 

	.stabn 68,0,81,.L104-LinsnString

.L104:

# STRING ("\\tidivl\\t%s\\n") / 

	movl	$string_52,	%ebx
	pushl	%ebx
	call	Bstring
	addl	$4,	%esp
	movl	%eax,	%ebx
# LD (Local (0)) / 

	movl	-4(%ebp),	%ecx
# CALL ("LopndString_184", 1, false) / 

	pushl	%ebx
	pushl	%ecx
	call	LopndString_184
	addl	$4,	%esp
	popl	%ebx
	movl	%eax,	%ecx
# CALL ("Lsprintf", 2, true) / 

	pushl	%ecx
	pushl	%ebx
	call	Lsprintf
	addl	$8,	%esp
	movl	%eax,	%ebx
# SLABEL ("L1096") / 

L1096:

# JMP ("L1068") / 

	jmp	L1068
# SLABEL ("L1094") / 

L1094:

# SLABEL ("L1103") / 

L1103:

# LABEL ("L1090") / 

L1090:

# DUP / 

	movl	%ebx,	%ecx
# DUP / 

	movl	%ecx,	%esi
# TAG ("Binop", 3) / 

	movl	$944359329,	%edi
	movl	$7,	-16(%ebp)
	pushl	%ebx
	pushl	%ecx
	pushl	-16(%ebp)
	pushl	%edi
	pushl	%esi
	call	Btag
	addl	$12,	%esp
	popl	%ecx
	popl	%ebx
	movl	%eax,	%esi
# CJMP ("nz", "L1101") / 

	sarl	%esi
	cmpl	$0,	%esi
	jnz	L1101
# LABEL ("L1102") / 

L1102:

# DROP / 

# JMP ("L1100") / 

	jmp	L1100
# LABEL ("L1101") / 

L1101:

# DUP / 

	movl	%ecx,	%esi
# CONST (0) / 

	movl	$1,	%edi
# CALL (".elem", 2, false) / 

	pushl	%ebx
	pushl	%ecx
	pushl	%edi
	pushl	%esi
	call	Belem
	addl	$8,	%esp
	popl	%ecx
	popl	%ebx
	movl	%eax,	%esi
# DROP / 

# DUP / 

	movl	%ecx,	%esi
# CONST (1) / 

	movl	$3,	%edi
# CALL (".elem", 2, false) / 

	pushl	%ebx
	pushl	%ecx
	pushl	%edi
	pushl	%esi
	call	Belem
	addl	$8,	%esp
	popl	%ecx
	popl	%ebx
	movl	%eax,	%esi
# DROP / 

# DUP / 

	movl	%ecx,	%esi
# CONST (2) / 

	movl	$5,	%edi
# CALL (".elem", 2, false) / 

	pushl	%ebx
	pushl	%ecx
	pushl	%edi
	pushl	%esi
	call	Belem
	addl	$8,	%esp
	popl	%ecx
	popl	%ebx
	movl	%eax,	%esi
# DROP / 

# DROP / 

# DUP / 

	movl	%ebx,	%ecx
# CONST (0) / 

	movl	$1,	%esi
# CALL (".elem", 2, false) / 

	pushl	%ebx
	pushl	%esi
	pushl	%ecx
	call	Belem
	addl	$8,	%esp
	popl	%ebx
	movl	%eax,	%ecx
# ST (Local (2)) / 

	movl	%ecx,	-12(%ebp)
# DROP / 

# DUP / 

	movl	%ebx,	%ecx
# CONST (1) / 

	movl	$3,	%esi
# CALL (".elem", 2, false) / 

	pushl	%ebx
	pushl	%esi
	pushl	%ecx
	call	Belem
	addl	$8,	%esp
	popl	%ebx
	movl	%eax,	%ecx
# ST (Local (1)) / 

	movl	%ecx,	-8(%ebp)
# DROP / 

# DUP / 

	movl	%ebx,	%ecx
# CONST (2) / 

	movl	$5,	%esi
# CALL (".elem", 2, false) / 

	pushl	%ebx
	pushl	%esi
	pushl	%ecx
	call	Belem
	addl	$8,	%esp
	popl	%ebx
	movl	%eax,	%ecx
# ST (Local (0)) / 

	movl	%ecx,	-4(%ebp)
# DROP / 

# DROP / 

# SLABEL ("L1105") / 

L1105:

# LINE (82) / 

	.stabn 68,0,82,.L105-LinsnString

.L105:

# STRING ("\\t%s\\t%s,\\t%s\\n") / 

	movl	$string_53,	%ebx
	pushl	%ebx
	call	Bstring
	addl	$4,	%esp
	movl	%eax,	%ebx
# LD (Local (2)) / 

	movl	-12(%ebp),	%ecx
# CALL ("LbinopString_184", 1, false) / 

	pushl	%ebx
	pushl	%ecx
	call	LbinopString_184
	addl	$4,	%esp
	popl	%ebx
	movl	%eax,	%ecx
# LD (Local (1)) / 

	movl	-8(%ebp),	%esi
# CALL ("LopndString_184", 1, false) / 

	pushl	%ebx
	pushl	%ecx
	pushl	%esi
	call	LopndString_184
	addl	$4,	%esp
	popl	%ecx
	popl	%ebx
	movl	%eax,	%esi
# LD (Local (0)) / 

	movl	-4(%ebp),	%edi
# CALL ("LopndString_184", 1, false) / 

	pushl	%ebx
	pushl	%ecx
	pushl	%esi
	pushl	%edi
	call	LopndString_184
	addl	$4,	%esp
	popl	%esi
	popl	%ecx
	popl	%ebx
	movl	%eax,	%edi
# CALL ("Lsprintf", 4, true) / 

	pushl	%edi
	pushl	%esi
	pushl	%ecx
	pushl	%ebx
	call	Lsprintf
	addl	$16,	%esp
	movl	%eax,	%ebx
# SLABEL ("L1106") / 

L1106:

# JMP ("L1068") / 

	jmp	L1068
# SLABEL ("L1104") / 

L1104:

# SLABEL ("L1117") / 

L1117:

# LABEL ("L1100") / 

L1100:

# DUP / 

	movl	%ebx,	%ecx
# DUP / 

	movl	%ecx,	%esi
# TAG ("Mov", 2) / 

	movl	$321453,	%edi
	movl	$5,	-16(%ebp)
	pushl	%ebx
	pushl	%ecx
	pushl	-16(%ebp)
	pushl	%edi
	pushl	%esi
	call	Btag
	addl	$12,	%esp
	popl	%ecx
	popl	%ebx
	movl	%eax,	%esi
# CJMP ("nz", "L1115") / 

	sarl	%esi
	cmpl	$0,	%esi
	jnz	L1115
# LABEL ("L1116") / 

L1116:

# DROP / 

# JMP ("L1114") / 

	jmp	L1114
# LABEL ("L1115") / 

L1115:

# DUP / 

	movl	%ecx,	%esi
# CONST (0) / 

	movl	$1,	%edi
# CALL (".elem", 2, false) / 

	pushl	%ebx
	pushl	%ecx
	pushl	%edi
	pushl	%esi
	call	Belem
	addl	$8,	%esp
	popl	%ecx
	popl	%ebx
	movl	%eax,	%esi
# DROP / 

# DUP / 

	movl	%ecx,	%esi
# CONST (1) / 

	movl	$3,	%edi
# CALL (".elem", 2, false) / 

	pushl	%ebx
	pushl	%ecx
	pushl	%edi
	pushl	%esi
	call	Belem
	addl	$8,	%esp
	popl	%ecx
	popl	%ebx
	movl	%eax,	%esi
# DROP / 

# DROP / 

# DUP / 

	movl	%ebx,	%ecx
# CONST (0) / 

	movl	$1,	%esi
# CALL (".elem", 2, false) / 

	pushl	%ebx
	pushl	%esi
	pushl	%ecx
	call	Belem
	addl	$8,	%esp
	popl	%ebx
	movl	%eax,	%ecx
# ST (Local (1)) / 

	movl	%ecx,	-8(%ebp)
# DROP / 

# DUP / 

	movl	%ebx,	%ecx
# CONST (1) / 

	movl	$3,	%esi
# CALL (".elem", 2, false) / 

	pushl	%ebx
	pushl	%esi
	pushl	%ecx
	call	Belem
	addl	$8,	%esp
	popl	%ebx
	movl	%eax,	%ecx
# ST (Local (0)) / 

	movl	%ecx,	-4(%ebp)
# DROP / 

# DROP / 

# SLABEL ("L1119") / 

L1119:

# LINE (83) / 

	.stabn 68,0,83,.L106-LinsnString

.L106:

# STRING ("\\tmovl\\t%s,\\t%s\\n") / 

	movl	$string_54,	%ebx
	pushl	%ebx
	call	Bstring
	addl	$4,	%esp
	movl	%eax,	%ebx
# LD (Local (1)) / 

	movl	-8(%ebp),	%ecx
# CALL ("LopndString_184", 1, false) / 

	pushl	%ebx
	pushl	%ecx
	call	LopndString_184
	addl	$4,	%esp
	popl	%ebx
	movl	%eax,	%ecx
# LD (Local (0)) / 

	movl	-4(%ebp),	%esi
# CALL ("LopndString_184", 1, false) / 

	pushl	%ebx
	pushl	%ecx
	pushl	%esi
	call	LopndString_184
	addl	$4,	%esp
	popl	%ecx
	popl	%ebx
	movl	%eax,	%esi
# CALL ("Lsprintf", 3, true) / 

	pushl	%esi
	pushl	%ecx
	pushl	%ebx
	call	Lsprintf
	addl	$12,	%esp
	movl	%eax,	%ebx
# SLABEL ("L1120") / 

L1120:

# JMP ("L1068") / 

	jmp	L1068
# SLABEL ("L1118") / 

L1118:

# SLABEL ("L1129") / 

L1129:

# LABEL ("L1114") / 

L1114:

# DUP / 

	movl	%ebx,	%ecx
# DUP / 

	movl	%ecx,	%esi
# TAG ("Push", 1) / 

	movl	$22194577,	%edi
	movl	$3,	-16(%ebp)
	pushl	%ebx
	pushl	%ecx
	pushl	-16(%ebp)
	pushl	%edi
	pushl	%esi
	call	Btag
	addl	$12,	%esp
	popl	%ecx
	popl	%ebx
	movl	%eax,	%esi
# CJMP ("nz", "L1127") / 

	sarl	%esi
	cmpl	$0,	%esi
	jnz	L1127
# LABEL ("L1128") / 

L1128:

# DROP / 

# JMP ("L1126") / 

	jmp	L1126
# LABEL ("L1127") / 

L1127:

# DUP / 

	movl	%ecx,	%esi
# CONST (0) / 

	movl	$1,	%edi
# CALL (".elem", 2, false) / 

	pushl	%ebx
	pushl	%ecx
	pushl	%edi
	pushl	%esi
	call	Belem
	addl	$8,	%esp
	popl	%ecx
	popl	%ebx
	movl	%eax,	%esi
# DROP / 

# DROP / 

# DUP / 

	movl	%ebx,	%ecx
# CONST (0) / 

	movl	$1,	%esi
# CALL (".elem", 2, false) / 

	pushl	%ebx
	pushl	%esi
	pushl	%ecx
	call	Belem
	addl	$8,	%esp
	popl	%ebx
	movl	%eax,	%ecx
# ST (Local (0)) / 

	movl	%ecx,	-4(%ebp)
# DROP / 

# DROP / 

# SLABEL ("L1131") / 

L1131:

# LINE (84) / 

	.stabn 68,0,84,.L107-LinsnString

.L107:

# STRING ("\\tpushl\\t%s\\n") / 

	movl	$string_55,	%ebx
	pushl	%ebx
	call	Bstring
	addl	$4,	%esp
	movl	%eax,	%ebx
# LD (Local (0)) / 

	movl	-4(%ebp),	%ecx
# CALL ("LopndString_184", 1, false) / 

	pushl	%ebx
	pushl	%ecx
	call	LopndString_184
	addl	$4,	%esp
	popl	%ebx
	movl	%eax,	%ecx
# CALL ("Lsprintf", 2, true) / 

	pushl	%ecx
	pushl	%ebx
	call	Lsprintf
	addl	$8,	%esp
	movl	%eax,	%ebx
# SLABEL ("L1132") / 

L1132:

# JMP ("L1068") / 

	jmp	L1068
# SLABEL ("L1130") / 

L1130:

# SLABEL ("L1139") / 

L1139:

# LABEL ("L1126") / 

L1126:

# DUP / 

	movl	%ebx,	%ecx
# DUP / 

	movl	%ecx,	%esi
# TAG ("Pop", 1) / 

	movl	$346017,	%edi
	movl	$3,	-16(%ebp)
	pushl	%ebx
	pushl	%ecx
	pushl	-16(%ebp)
	pushl	%edi
	pushl	%esi
	call	Btag
	addl	$12,	%esp
	popl	%ecx
	popl	%ebx
	movl	%eax,	%esi
# CJMP ("nz", "L1137") / 

	sarl	%esi
	cmpl	$0,	%esi
	jnz	L1137
# LABEL ("L1138") / 

L1138:

# DROP / 

# JMP ("L1136") / 

	jmp	L1136
# LABEL ("L1137") / 

L1137:

# DUP / 

	movl	%ecx,	%esi
# CONST (0) / 

	movl	$1,	%edi
# CALL (".elem", 2, false) / 

	pushl	%ebx
	pushl	%ecx
	pushl	%edi
	pushl	%esi
	call	Belem
	addl	$8,	%esp
	popl	%ecx
	popl	%ebx
	movl	%eax,	%esi
# DROP / 

# DROP / 

# DUP / 

	movl	%ebx,	%ecx
# CONST (0) / 

	movl	$1,	%esi
# CALL (".elem", 2, false) / 

	pushl	%ebx
	pushl	%esi
	pushl	%ecx
	call	Belem
	addl	$8,	%esp
	popl	%ebx
	movl	%eax,	%ecx
# ST (Local (0)) / 

	movl	%ecx,	-4(%ebp)
# DROP / 

# DROP / 

# SLABEL ("L1141") / 

L1141:

# LINE (85) / 

	.stabn 68,0,85,.L108-LinsnString

.L108:

# STRING ("\\tpopl\\t%s\\n") / 

	movl	$string_56,	%ebx
	pushl	%ebx
	call	Bstring
	addl	$4,	%esp
	movl	%eax,	%ebx
# LD (Local (0)) / 

	movl	-4(%ebp),	%ecx
# CALL ("LopndString_184", 1, false) / 

	pushl	%ebx
	pushl	%ecx
	call	LopndString_184
	addl	$4,	%esp
	popl	%ebx
	movl	%eax,	%ecx
# CALL ("Lsprintf", 2, true) / 

	pushl	%ecx
	pushl	%ebx
	call	Lsprintf
	addl	$8,	%esp
	movl	%eax,	%ebx
# SLABEL ("L1142") / 

L1142:

# JMP ("L1068") / 

	jmp	L1068
# SLABEL ("L1140") / 

L1140:

# SLABEL ("L1149") / 

L1149:

# LABEL ("L1136") / 

L1136:

# DUP / 

	movl	%ebx,	%ecx
# DUP / 

	movl	%ecx,	%esi
# TAG ("Ret", 0) / 

	movl	$361129,	%edi
	movl	$1,	-16(%ebp)
	pushl	%ebx
	pushl	%ecx
	pushl	-16(%ebp)
	pushl	%edi
	pushl	%esi
	call	Btag
	addl	$12,	%esp
	popl	%ecx
	popl	%ebx
	movl	%eax,	%esi
# CJMP ("nz", "L1147") / 

	sarl	%esi
	cmpl	$0,	%esi
	jnz	L1147
# LABEL ("L1148") / 

L1148:

# DROP / 

# JMP ("L1146") / 

	jmp	L1146
# LABEL ("L1147") / 

L1147:

# DROP / 

# DROP / 

# SLABEL ("L1151") / 

L1151:

# STRING ("\\tret\\n") / 

	movl	$string_57,	%ebx
	pushl	%ebx
	call	Bstring
	addl	$4,	%esp
	movl	%eax,	%ebx
# SLABEL ("L1152") / 

L1152:

# JMP ("L1068") / 

	jmp	L1068
# SLABEL ("L1150") / 

L1150:

# SLABEL ("L1156") / 

L1156:

# LABEL ("L1146") / 

L1146:

# DUP / 

	movl	%ebx,	%ecx
# DUP / 

	movl	%ecx,	%esi
# TAG ("Call", 1) / 

	movl	$15214105,	%edi
	movl	$3,	-16(%ebp)
	pushl	%ebx
	pushl	%ecx
	pushl	-16(%ebp)
	pushl	%edi
	pushl	%esi
	call	Btag
	addl	$12,	%esp
	popl	%ecx
	popl	%ebx
	movl	%eax,	%esi
# CJMP ("nz", "L1154") / 

	sarl	%esi
	cmpl	$0,	%esi
	jnz	L1154
# LABEL ("L1155") / 

L1155:

# DROP / 

# JMP ("L1153") / 

	jmp	L1153
# LABEL ("L1154") / 

L1154:

# DUP / 

	movl	%ecx,	%esi
# CONST (0) / 

	movl	$1,	%edi
# CALL (".elem", 2, false) / 

	pushl	%ebx
	pushl	%ecx
	pushl	%edi
	pushl	%esi
	call	Belem
	addl	$8,	%esp
	popl	%ecx
	popl	%ebx
	movl	%eax,	%esi
# DROP / 

# DROP / 

# DUP / 

	movl	%ebx,	%ecx
# CONST (0) / 

	movl	$1,	%esi
# CALL (".elem", 2, false) / 

	pushl	%ebx
	pushl	%esi
	pushl	%ecx
	call	Belem
	addl	$8,	%esp
	popl	%ebx
	movl	%eax,	%ecx
# ST (Local (0)) / 

	movl	%ecx,	-4(%ebp)
# DROP / 

# DROP / 

# SLABEL ("L1158") / 

L1158:

# LINE (87) / 

	.stabn 68,0,87,.L109-LinsnString

.L109:

# STRING ("\\tcall\\t%s\\n") / 

	movl	$string_58,	%ebx
	pushl	%ebx
	call	Bstring
	addl	$4,	%esp
	movl	%eax,	%ebx
# LD (Local (0)) / 

	movl	-4(%ebp),	%ecx
# CALL ("Lsprintf", 2, true) / 

	pushl	%ecx
	pushl	%ebx
	call	Lsprintf
	addl	$8,	%esp
	movl	%eax,	%ebx
# SLABEL ("L1159") / 

L1159:

# JMP ("L1068") / 

	jmp	L1068
# SLABEL ("L1157") / 

L1157:

# SLABEL ("L1165") / 

L1165:

# LABEL ("L1153") / 

L1153:

# DUP / 

	movl	%ebx,	%ecx
# DUP / 

	movl	%ecx,	%esi
# TAG ("Label", 1) / 

	movl	$1275609753,	%edi
	movl	$3,	-16(%ebp)
	pushl	%ebx
	pushl	%ecx
	pushl	-16(%ebp)
	pushl	%edi
	pushl	%esi
	call	Btag
	addl	$12,	%esp
	popl	%ecx
	popl	%ebx
	movl	%eax,	%esi
# CJMP ("nz", "L1163") / 

	sarl	%esi
	cmpl	$0,	%esi
	jnz	L1163
# LABEL ("L1164") / 

L1164:

# DROP / 

# JMP ("L1162") / 

	jmp	L1162
# LABEL ("L1163") / 

L1163:

# DUP / 

	movl	%ecx,	%esi
# CONST (0) / 

	movl	$1,	%edi
# CALL (".elem", 2, false) / 

	pushl	%ebx
	pushl	%ecx
	pushl	%edi
	pushl	%esi
	call	Belem
	addl	$8,	%esp
	popl	%ecx
	popl	%ebx
	movl	%eax,	%esi
# DROP / 

# DROP / 

# DUP / 

	movl	%ebx,	%ecx
# CONST (0) / 

	movl	$1,	%esi
# CALL (".elem", 2, false) / 

	pushl	%ebx
	pushl	%esi
	pushl	%ecx
	call	Belem
	addl	$8,	%esp
	popl	%ebx
	movl	%eax,	%ecx
# ST (Local (0)) / 

	movl	%ecx,	-4(%ebp)
# DROP / 

# DROP / 

# SLABEL ("L1167") / 

L1167:

# LINE (88) / 

	.stabn 68,0,88,.L110-LinsnString

.L110:

# STRING ("%s:\\n") / 

	movl	$string_59,	%ebx
	pushl	%ebx
	call	Bstring
	addl	$4,	%esp
	movl	%eax,	%ebx
# LD (Local (0)) / 

	movl	-4(%ebp),	%ecx
# CALL ("Lsprintf", 2, true) / 

	pushl	%ecx
	pushl	%ebx
	call	Lsprintf
	addl	$8,	%esp
	movl	%eax,	%ebx
# SLABEL ("L1168") / 

L1168:

# JMP ("L1068") / 

	jmp	L1068
# SLABEL ("L1166") / 

L1166:

# SLABEL ("L1174") / 

L1174:

# LABEL ("L1162") / 

L1162:

# DUP / 

	movl	%ebx,	%ecx
# DUP / 

	movl	%ecx,	%esi
# TAG ("Jmp", 1) / 

	movl	$296609,	%edi
	movl	$3,	-16(%ebp)
	pushl	%ebx
	pushl	%ecx
	pushl	-16(%ebp)
	pushl	%edi
	pushl	%esi
	call	Btag
	addl	$12,	%esp
	popl	%ecx
	popl	%ebx
	movl	%eax,	%esi
# CJMP ("nz", "L1172") / 

	sarl	%esi
	cmpl	$0,	%esi
	jnz	L1172
# LABEL ("L1173") / 

L1173:

# DROP / 

# JMP ("L1171") / 

	jmp	L1171
# LABEL ("L1172") / 

L1172:

# DUP / 

	movl	%ecx,	%esi
# CONST (0) / 

	movl	$1,	%edi
# CALL (".elem", 2, false) / 

	pushl	%ebx
	pushl	%ecx
	pushl	%edi
	pushl	%esi
	call	Belem
	addl	$8,	%esp
	popl	%ecx
	popl	%ebx
	movl	%eax,	%esi
# DROP / 

# DROP / 

# DUP / 

	movl	%ebx,	%ecx
# CONST (0) / 

	movl	$1,	%esi
# CALL (".elem", 2, false) / 

	pushl	%ebx
	pushl	%esi
	pushl	%ecx
	call	Belem
	addl	$8,	%esp
	popl	%ebx
	movl	%eax,	%ecx
# ST (Local (0)) / 

	movl	%ecx,	-4(%ebp)
# DROP / 

# DROP / 

# SLABEL ("L1176") / 

L1176:

# LINE (89) / 

	.stabn 68,0,89,.L111-LinsnString

.L111:

# STRING ("\\tjmp\\t%s\\n") / 

	movl	$string_60,	%ebx
	pushl	%ebx
	call	Bstring
	addl	$4,	%esp
	movl	%eax,	%ebx
# LD (Local (0)) / 

	movl	-4(%ebp),	%ecx
# CALL ("Lsprintf", 2, true) / 

	pushl	%ecx
	pushl	%ebx
	call	Lsprintf
	addl	$8,	%esp
	movl	%eax,	%ebx
# SLABEL ("L1177") / 

L1177:

# JMP ("L1068") / 

	jmp	L1068
# SLABEL ("L1175") / 

L1175:

# SLABEL ("L1183") / 

L1183:

# LABEL ("L1171") / 

L1171:

# DUP / 

	movl	%ebx,	%ecx
# DUP / 

	movl	%ecx,	%esi
# TAG ("CJmp", 2) / 

	movl	$15500961,	%edi
	movl	$5,	-16(%ebp)
	pushl	%ebx
	pushl	%ecx
	pushl	-16(%ebp)
	pushl	%edi
	pushl	%esi
	call	Btag
	addl	$12,	%esp
	popl	%ecx
	popl	%ebx
	movl	%eax,	%esi
# CJMP ("nz", "L1181") / 

	sarl	%esi
	cmpl	$0,	%esi
	jnz	L1181
# LABEL ("L1182") / 

L1182:

# DROP / 

# JMP ("L1180") / 

	jmp	L1180
# LABEL ("L1181") / 

L1181:

# DUP / 

	movl	%ecx,	%esi
# CONST (0) / 

	movl	$1,	%edi
# CALL (".elem", 2, false) / 

	pushl	%ebx
	pushl	%ecx
	pushl	%edi
	pushl	%esi
	call	Belem
	addl	$8,	%esp
	popl	%ecx
	popl	%ebx
	movl	%eax,	%esi
# DROP / 

# DUP / 

	movl	%ecx,	%esi
# CONST (1) / 

	movl	$3,	%edi
# CALL (".elem", 2, false) / 

	pushl	%ebx
	pushl	%ecx
	pushl	%edi
	pushl	%esi
	call	Belem
	addl	$8,	%esp
	popl	%ecx
	popl	%ebx
	movl	%eax,	%esi
# DROP / 

# DROP / 

# DUP / 

	movl	%ebx,	%ecx
# CONST (0) / 

	movl	$1,	%esi
# CALL (".elem", 2, false) / 

	pushl	%ebx
	pushl	%esi
	pushl	%ecx
	call	Belem
	addl	$8,	%esp
	popl	%ebx
	movl	%eax,	%ecx
# ST (Local (1)) / 

	movl	%ecx,	-8(%ebp)
# DROP / 

# DUP / 

	movl	%ebx,	%ecx
# CONST (1) / 

	movl	$3,	%esi
# CALL (".elem", 2, false) / 

	pushl	%ebx
	pushl	%esi
	pushl	%ecx
	call	Belem
	addl	$8,	%esp
	popl	%ebx
	movl	%eax,	%ecx
# ST (Local (0)) / 

	movl	%ecx,	-4(%ebp)
# DROP / 

# DROP / 

# SLABEL ("L1185") / 

L1185:

# LINE (90) / 

	.stabn 68,0,90,.L112-LinsnString

.L112:

# STRING ("\\tj%s\\t%s\\n") / 

	movl	$string_61,	%ebx
	pushl	%ebx
	call	Bstring
	addl	$4,	%esp
	movl	%eax,	%ebx
# LD (Local (1)) / 

	movl	-8(%ebp),	%ecx
# LD (Local (0)) / 

	movl	-4(%ebp),	%esi
# CALL ("Lsprintf", 3, true) / 

	pushl	%esi
	pushl	%ecx
	pushl	%ebx
	call	Lsprintf
	addl	$12,	%esp
	movl	%eax,	%ebx
# SLABEL ("L1186") / 

L1186:

# JMP ("L1068") / 

	jmp	L1068
# SLABEL ("L1184") / 

L1184:

# SLABEL ("L1192") / 

L1192:

# LABEL ("L1180") / 

L1180:

# DUP / 

	movl	%ebx,	%ecx
# DUP / 

	movl	%ecx,	%esi
# TAG ("Meta", 1) / 

	movl	$20490755,	%edi
	movl	$3,	-16(%ebp)
	pushl	%ebx
	pushl	%ecx
	pushl	-16(%ebp)
	pushl	%edi
	pushl	%esi
	call	Btag
	addl	$12,	%esp
	popl	%ecx
	popl	%ebx
	movl	%eax,	%esi
# CJMP ("nz", "L1190") / 

	sarl	%esi
	cmpl	$0,	%esi
	jnz	L1190
# LABEL ("L1191") / 

L1191:

# DROP / 

# JMP ("L1071") / 

	jmp	L1071
# LABEL ("L1190") / 

L1190:

# DUP / 

	movl	%ecx,	%esi
# CONST (0) / 

	movl	$1,	%edi
# CALL (".elem", 2, false) / 

	pushl	%ebx
	pushl	%ecx
	pushl	%edi
	pushl	%esi
	call	Belem
	addl	$8,	%esp
	popl	%ecx
	popl	%ebx
	movl	%eax,	%esi
# DROP / 

# DROP / 

# DUP / 

	movl	%ebx,	%ecx
# CONST (0) / 

	movl	$1,	%esi
# CALL (".elem", 2, false) / 

	pushl	%ebx
	pushl	%esi
	pushl	%ecx
	call	Belem
	addl	$8,	%esp
	popl	%ebx
	movl	%eax,	%ecx
# ST (Local (0)) / 

	movl	%ecx,	-4(%ebp)
# DROP / 

# DROP / 

# SLABEL ("L1194") / 

L1194:

# LINE (91) / 

	.stabn 68,0,91,.L113-LinsnString

.L113:

# LD (Local (0)) / 

	movl	-4(%ebp),	%ebx
# SLABEL ("L1195") / 

L1195:

# SLABEL ("L1193") / 

L1193:

# JMP ("L1068") / 

	jmp	L1068
# LABEL ("L1071") / 

L1071:

# FAIL ((78, 8), true) / 

	pushl	$17
	pushl	$157
	pushl	$string_16
	pushl	%ebx
	call	Bmatch_failure
	addl	$12,	%esp
# JMP ("L1068") / 

	jmp	L1068
# SLABEL ("L1070") / 

L1070:

# LABEL ("L1068") / 

L1068:

# SLABEL ("L1067") / 

L1067:

# END / 

	movl	%ebx,	%eax
LLinsnString_epilogue:

	movl	%ebp,	%esp
	popl	%ebp
	.cfi_restore	5

	.cfi_def_cfa	4, 4

	ret
	.cfi_endproc

	.set	LLinsnString_SIZE,	16

	.set	LSLinsnString_SIZE,	4

	.size LinsnString, .-LinsnString

# LABEL ("LopndString_184") / 

LopndString_184:

# BEGIN ("LopndString_184", 1, 1, [], ["opnd"], [{ blab="L1196"; elab="L1197"; names=[]; subs=[{ blab="L1199"; elab="L1200"; names=[]; subs=[{ blab="L1234"; elab="L1235"; names=[("i", 0)]; subs=[{ blab="L1236"; elab="L1237"; names=[]; subs=[]; }]; }; { blab="L1228"; elab="L1229"; names=[("x", 0)]; subs=[{ blab="L1230"; elab="L1231"; names=[]; subs=[]; }]; }; { blab="L1215"; elab="L1216"; names=[("i", 0)]; subs=[{ blab="L1217"; elab="L1218"; names=[]; subs=[]; }]; }; { blab="L1206"; elab="L1207"; names=[("i", 0)]; subs=[{ blab="L1208"; elab="L1209"; names=[]; subs=[]; }]; }]; }]; }]) / 

	.type opndString_184, @function

	.stabs "opndString_184:F1",36,0,0,LopndString_184

	.stabs "opnd:p1",160,0,0,8

	.stabs "i:1",128,0,0,-4

	.stabn 192,0,0,L1234-LopndString_184

	.stabn 224,0,0,L1235-LopndString_184

	.stabs "x:1",128,0,0,-4

	.stabn 192,0,0,L1228-LopndString_184

	.stabn 224,0,0,L1229-LopndString_184

	.stabs "i:1",128,0,0,-4

	.stabn 192,0,0,L1215-LopndString_184

	.stabn 224,0,0,L1216-LopndString_184

	.stabs "i:1",128,0,0,-4

	.stabn 192,0,0,L1206-LopndString_184

	.stabn 224,0,0,L1207-LopndString_184

	.cfi_startproc

	.cfi_adjust_cfa_offset	4

	pushl	%ebp
	.cfi_adjust_cfa_offset	4

	movl	%esp,	%ebp
	.cfi_def_cfa_register	5

	subl	$LLopndString_184_SIZE,	%esp
	movl	%esp,	%edi
	movl	$filler,	%esi
	movl	$LSLopndString_184_SIZE,	%ecx
	rep movsl	
# SLABEL ("L1196") / 

L1196:

# SLABEL ("L1199") / 

L1199:

# LINE (70) / 

	.stabn 68,0,70,0

	.stabn 68,0,70,.L114-LopndString_184

.L114:

# LD (Arg (0)) / 

	movl	8(%ebp),	%ebx
# DUP / 

	movl	%ebx,	%ecx
# SLABEL ("L1206") / 

L1206:

# DUP / 

	movl	%ecx,	%esi
# TAG ("R", 1) / 

	movl	$89,	%edi
	movl	$3,	-8(%ebp)
	pushl	%ebx
	pushl	%ecx
	pushl	-8(%ebp)
	pushl	%edi
	pushl	%esi
	call	Btag
	addl	$12,	%esp
	popl	%ecx
	popl	%ebx
	movl	%eax,	%esi
# CJMP ("nz", "L1204") / 

	sarl	%esi
	cmpl	$0,	%esi
	jnz	L1204
# LABEL ("L1205") / 

L1205:

# DROP / 

# JMP ("L1203") / 

	jmp	L1203
# LABEL ("L1204") / 

L1204:

# DUP / 

	movl	%ecx,	%esi
# CONST (0) / 

	movl	$1,	%edi
# CALL (".elem", 2, false) / 

	pushl	%ebx
	pushl	%ecx
	pushl	%edi
	pushl	%esi
	call	Belem
	addl	$8,	%esp
	popl	%ecx
	popl	%ebx
	movl	%eax,	%esi
# DROP / 

# DROP / 

# DUP / 

	movl	%ebx,	%ecx
# CONST (0) / 

	movl	$1,	%esi
# CALL (".elem", 2, false) / 

	pushl	%ebx
	pushl	%esi
	pushl	%ecx
	call	Belem
	addl	$8,	%esp
	popl	%ebx
	movl	%eax,	%ecx
# ST (Local (0)) / 

	movl	%ecx,	-4(%ebp)
# DROP / 

# DROP / 

# SLABEL ("L1208") / 

L1208:

# LINE (71) / 

	.stabn 68,0,71,.L115-LopndString_184

.L115:

# LD (Global ("regs")) / 

	movl	global_regs,	%ebx
# LD (Local (0)) / 

	movl	-4(%ebp),	%ecx
# CALL (".elem", 2, true) / 

	pushl	%ecx
	pushl	%ebx
	call	Belem
	addl	$8,	%esp
	movl	%eax,	%ebx
# SLABEL ("L1209") / 

L1209:

# JMP ("L1198") / 

	jmp	L1198
# SLABEL ("L1207") / 

L1207:

# SLABEL ("L1215") / 

L1215:

# LABEL ("L1203") / 

L1203:

# DUP / 

	movl	%ebx,	%ecx
# DUP / 

	movl	%ecx,	%esi
# TAG ("S", 1) / 

	movl	$91,	%edi
	movl	$3,	-8(%ebp)
	pushl	%ebx
	pushl	%ecx
	pushl	-8(%ebp)
	pushl	%edi
	pushl	%esi
	call	Btag
	addl	$12,	%esp
	popl	%ecx
	popl	%ebx
	movl	%eax,	%esi
# CJMP ("nz", "L1213") / 

	sarl	%esi
	cmpl	$0,	%esi
	jnz	L1213
# LABEL ("L1214") / 

L1214:

# DROP / 

# JMP ("L1212") / 

	jmp	L1212
# LABEL ("L1213") / 

L1213:

# DUP / 

	movl	%ecx,	%esi
# CONST (0) / 

	movl	$1,	%edi
# CALL (".elem", 2, false) / 

	pushl	%ebx
	pushl	%ecx
	pushl	%edi
	pushl	%esi
	call	Belem
	addl	$8,	%esp
	popl	%ecx
	popl	%ebx
	movl	%eax,	%esi
# DROP / 

# DROP / 

# DUP / 

	movl	%ebx,	%ecx
# CONST (0) / 

	movl	$1,	%esi
# CALL (".elem", 2, false) / 

	pushl	%ebx
	pushl	%esi
	pushl	%ecx
	call	Belem
	addl	$8,	%esp
	popl	%ebx
	movl	%eax,	%ecx
# ST (Local (0)) / 

	movl	%ecx,	-4(%ebp)
# DROP / 

# DROP / 

# SLABEL ("L1217") / 

L1217:

# LINE (72) / 

	.stabn 68,0,72,.L116-LopndString_184

.L116:

# STRING ("-%d(%%ebp)") / 

	movl	$string_62,	%ebx
	pushl	%ebx
	call	Bstring
	addl	$4,	%esp
	movl	%eax,	%ebx
# LD (Local (0)) / 

	movl	-4(%ebp),	%ecx
# CONST (1) / 

	movl	$3,	%esi
# BINOP ("+") / 

	addl	%esi,	%ecx
	decl	%ecx
# LD (Global ("wordSize")) / 

	movl	global_wordSize,	%esi
# BINOP ("*") / 

	decl	%ecx
	movl	%esi,	%eax
	sarl	%eax
	imull	%eax,	%ecx
	orl	$0x0001,	%ecx
# CALL ("Lsprintf", 2, true) / 

	pushl	%ecx
	pushl	%ebx
	call	Lsprintf
	addl	$8,	%esp
	movl	%eax,	%ebx
# SLABEL ("L1218") / 

L1218:

# JMP ("L1198") / 

	jmp	L1198
# SLABEL ("L1216") / 

L1216:

# SLABEL ("L1228") / 

L1228:

# LABEL ("L1212") / 

L1212:

# DUP / 

	movl	%ebx,	%ecx
# DUP / 

	movl	%ecx,	%esi
# TAG ("M", 1) / 

	movl	$79,	%edi
	movl	$3,	-8(%ebp)
	pushl	%ebx
	pushl	%ecx
	pushl	-8(%ebp)
	pushl	%edi
	pushl	%esi
	call	Btag
	addl	$12,	%esp
	popl	%ecx
	popl	%ebx
	movl	%eax,	%esi
# CJMP ("nz", "L1226") / 

	sarl	%esi
	cmpl	$0,	%esi
	jnz	L1226
# LABEL ("L1227") / 

L1227:

# DROP / 

# JMP ("L1225") / 

	jmp	L1225
# LABEL ("L1226") / 

L1226:

# DUP / 

	movl	%ecx,	%esi
# CONST (0) / 

	movl	$1,	%edi
# CALL (".elem", 2, false) / 

	pushl	%ebx
	pushl	%ecx
	pushl	%edi
	pushl	%esi
	call	Belem
	addl	$8,	%esp
	popl	%ecx
	popl	%ebx
	movl	%eax,	%esi
# DROP / 

# DROP / 

# DUP / 

	movl	%ebx,	%ecx
# CONST (0) / 

	movl	$1,	%esi
# CALL (".elem", 2, false) / 

	pushl	%ebx
	pushl	%esi
	pushl	%ecx
	call	Belem
	addl	$8,	%esp
	popl	%ebx
	movl	%eax,	%ecx
# ST (Local (0)) / 

	movl	%ecx,	-4(%ebp)
# DROP / 

# DROP / 

# SLABEL ("L1230") / 

L1230:

# LINE (73) / 

	.stabn 68,0,73,.L117-LopndString_184

.L117:

# LD (Local (0)) / 

	movl	-4(%ebp),	%ebx
# SLABEL ("L1231") / 

L1231:

# JMP ("L1198") / 

	jmp	L1198
# SLABEL ("L1229") / 

L1229:

# SLABEL ("L1234") / 

L1234:

# LABEL ("L1225") / 

L1225:

# DUP / 

	movl	%ebx,	%ecx
# DUP / 

	movl	%ecx,	%esi
# TAG ("L", 1) / 

	movl	$77,	%edi
	movl	$3,	-8(%ebp)
	pushl	%ebx
	pushl	%ecx
	pushl	-8(%ebp)
	pushl	%edi
	pushl	%esi
	call	Btag
	addl	$12,	%esp
	popl	%ecx
	popl	%ebx
	movl	%eax,	%esi
# CJMP ("nz", "L1232") / 

	sarl	%esi
	cmpl	$0,	%esi
	jnz	L1232
# LABEL ("L1233") / 

L1233:

# DROP / 

# JMP ("L1201") / 

	jmp	L1201
# LABEL ("L1232") / 

L1232:

# DUP / 

	movl	%ecx,	%esi
# CONST (0) / 

	movl	$1,	%edi
# CALL (".elem", 2, false) / 

	pushl	%ebx
	pushl	%ecx
	pushl	%edi
	pushl	%esi
	call	Belem
	addl	$8,	%esp
	popl	%ecx
	popl	%ebx
	movl	%eax,	%esi
# DROP / 

# DROP / 

# DUP / 

	movl	%ebx,	%ecx
# CONST (0) / 

	movl	$1,	%esi
# CALL (".elem", 2, false) / 

	pushl	%ebx
	pushl	%esi
	pushl	%ecx
	call	Belem
	addl	$8,	%esp
	popl	%ebx
	movl	%eax,	%ecx
# ST (Local (0)) / 

	movl	%ecx,	-4(%ebp)
# DROP / 

# DROP / 

# SLABEL ("L1236") / 

L1236:

# LINE (74) / 

	.stabn 68,0,74,.L118-LopndString_184

.L118:

# STRING ("$%d") / 

	movl	$string_63,	%ebx
	pushl	%ebx
	call	Bstring
	addl	$4,	%esp
	movl	%eax,	%ebx
# LD (Local (0)) / 

	movl	-4(%ebp),	%ecx
# CALL ("Lsprintf", 2, true) / 

	pushl	%ecx
	pushl	%ebx
	call	Lsprintf
	addl	$8,	%esp
	movl	%eax,	%ebx
# SLABEL ("L1237") / 

L1237:

# SLABEL ("L1235") / 

L1235:

# JMP ("L1198") / 

	jmp	L1198
# LABEL ("L1201") / 

L1201:

# FAIL ((70, 10), true) / 

	pushl	$21
	pushl	$141
	pushl	$string_16
	pushl	%ebx
	call	Bmatch_failure
	addl	$12,	%esp
# JMP ("L1198") / 

	jmp	L1198
# SLABEL ("L1200") / 

L1200:

# LABEL ("L1198") / 

L1198:

# SLABEL ("L1197") / 

L1197:

# END / 

	movl	%ebx,	%eax
LLopndString_184_epilogue:

	movl	%ebp,	%esp
	popl	%ebp
	.cfi_restore	5

	.cfi_def_cfa	4, 4

	ret
	.cfi_endproc

	.set	LLopndString_184_SIZE,	8

	.set	LSLopndString_184_SIZE,	2

	.size LopndString_184, .-LopndString_184

# LABEL ("LbinopString_184") / 

LbinopString_184:

# BEGIN ("LbinopString_184", 1, 0, [], ["op"], [{ blab="L1240"; elab="L1241"; names=[]; subs=[{ blab="L1243"; elab="L1244"; names=[]; subs=[{ blab="L1277"; elab="L1278"; names=[]; subs=[{ blab="L1279"; elab="L1280"; names=[]; subs=[]; }]; }; { blab="L1273"; elab="L1274"; names=[]; subs=[{ blab="L1275"; elab="L1276"; names=[]; subs=[]; }]; }; { blab="L1268"; elab="L1269"; names=[]; subs=[{ blab="L1270"; elab="L1271"; names=[]; subs=[]; }]; }; { blab="L1263"; elab="L1264"; names=[]; subs=[{ blab="L1265"; elab="L1266"; names=[]; subs=[]; }]; }; { blab="L1258"; elab="L1259"; names=[]; subs=[{ blab="L1260"; elab="L1261"; names=[]; subs=[]; }]; }; { blab="L1253"; elab="L1254"; names=[]; subs=[{ blab="L1255"; elab="L1256"; names=[]; subs=[]; }]; }; { blab="L1248"; elab="L1249"; names=[]; subs=[{ blab="L1250"; elab="L1251"; names=[]; subs=[]; }]; }]; }]; }]) / 

	.type binopString_184, @function

	.stabs "binopString_184:F1",36,0,0,LbinopString_184

	.stabs "op:p1",160,0,0,8

	.cfi_startproc

	.cfi_adjust_cfa_offset	4

	pushl	%ebp
	.cfi_adjust_cfa_offset	4

	movl	%esp,	%ebp
	.cfi_def_cfa_register	5

	subl	$LLbinopString_184_SIZE,	%esp
	movl	%esp,	%edi
	movl	$filler,	%esi
	movl	$LSLbinopString_184_SIZE,	%ecx
	rep movsl	
# SLABEL ("L1240") / 

L1240:

# SLABEL ("L1243") / 

L1243:

# LINE (58) / 

	.stabn 68,0,58,0

	.stabn 68,0,58,.L119-LbinopString_184

.L119:

# LD (Arg (0)) / 

	movl	8(%ebp),	%ebx
# DUP / 

	movl	%ebx,	%ecx
# SLABEL ("L1248") / 

L1248:

# STRING ("+") / 

	movl	$string_32,	%esi
	pushl	%ebx
	pushl	%ecx
	pushl	%esi
	call	Bstring
	addl	$4,	%esp
	popl	%ecx
	popl	%ebx
	movl	%eax,	%esi
# PATT (StrCmp) / 

	pushl	%ebx
	pushl	%esi
	pushl	%ecx
	call	Bstring_patt
	addl	$8,	%esp
	popl	%ebx
	movl	%eax,	%ecx
# CJMP ("z", "L1247") / 

	sarl	%ecx
	cmpl	$0,	%ecx
	jz	L1247
# DROP / 

# SLABEL ("L1250") / 

L1250:

# STRING ("addl") / 

	movl	$string_64,	%ebx
	pushl	%ebx
	call	Bstring
	addl	$4,	%esp
	movl	%eax,	%ebx
# SLABEL ("L1251") / 

L1251:

# JMP ("L1242") / 

	jmp	L1242
# SLABEL ("L1249") / 

L1249:

# SLABEL ("L1253") / 

L1253:

# LABEL ("L1247") / 

L1247:

# DUP / 

	movl	%ebx,	%ecx
# STRING ("-") / 

	movl	$string_33,	%esi
	pushl	%ebx
	pushl	%ecx
	pushl	%esi
	call	Bstring
	addl	$4,	%esp
	popl	%ecx
	popl	%ebx
	movl	%eax,	%esi
# PATT (StrCmp) / 

	pushl	%ebx
	pushl	%esi
	pushl	%ecx
	call	Bstring_patt
	addl	$8,	%esp
	popl	%ebx
	movl	%eax,	%ecx
# CJMP ("z", "L1252") / 

	sarl	%ecx
	cmpl	$0,	%ecx
	jz	L1252
# DROP / 

# SLABEL ("L1255") / 

L1255:

# STRING ("subl") / 

	movl	$string_65,	%ebx
	pushl	%ebx
	call	Bstring
	addl	$4,	%esp
	movl	%eax,	%ebx
# SLABEL ("L1256") / 

L1256:

# JMP ("L1242") / 

	jmp	L1242
# SLABEL ("L1254") / 

L1254:

# SLABEL ("L1258") / 

L1258:

# LABEL ("L1252") / 

L1252:

# DUP / 

	movl	%ebx,	%ecx
# STRING ("*") / 

	movl	$string_24,	%esi
	pushl	%ebx
	pushl	%ecx
	pushl	%esi
	call	Bstring
	addl	$4,	%esp
	popl	%ecx
	popl	%ebx
	movl	%eax,	%esi
# PATT (StrCmp) / 

	pushl	%ebx
	pushl	%esi
	pushl	%ecx
	call	Bstring_patt
	addl	$8,	%esp
	popl	%ebx
	movl	%eax,	%ecx
# CJMP ("z", "L1257") / 

	sarl	%ecx
	cmpl	$0,	%ecx
	jz	L1257
# DROP / 

# SLABEL ("L1260") / 

L1260:

# STRING ("imull") / 

	movl	$string_66,	%ebx
	pushl	%ebx
	call	Bstring
	addl	$4,	%esp
	movl	%eax,	%ebx
# SLABEL ("L1261") / 

L1261:

# JMP ("L1242") / 

	jmp	L1242
# SLABEL ("L1259") / 

L1259:

# SLABEL ("L1263") / 

L1263:

# LABEL ("L1257") / 

L1257:

# DUP / 

	movl	%ebx,	%ecx
# STRING ("&&") / 

	movl	$string_23,	%esi
	pushl	%ebx
	pushl	%ecx
	pushl	%esi
	call	Bstring
	addl	$4,	%esp
	popl	%ecx
	popl	%ebx
	movl	%eax,	%esi
# PATT (StrCmp) / 

	pushl	%ebx
	pushl	%esi
	pushl	%ecx
	call	Bstring_patt
	addl	$8,	%esp
	popl	%ebx
	movl	%eax,	%ecx
# CJMP ("z", "L1262") / 

	sarl	%ecx
	cmpl	$0,	%ecx
	jz	L1262
# DROP / 

# SLABEL ("L1265") / 

L1265:

# STRING ("andl") / 

	movl	$string_67,	%ebx
	pushl	%ebx
	call	Bstring
	addl	$4,	%esp
	movl	%eax,	%ebx
# SLABEL ("L1266") / 

L1266:

# JMP ("L1242") / 

	jmp	L1242
# SLABEL ("L1264") / 

L1264:

# SLABEL ("L1268") / 

L1268:

# LABEL ("L1262") / 

L1262:

# DUP / 

	movl	%ebx,	%ecx
# STRING ("!!") / 

	movl	$string_28,	%esi
	pushl	%ebx
	pushl	%ecx
	pushl	%esi
	call	Bstring
	addl	$4,	%esp
	popl	%ecx
	popl	%ebx
	movl	%eax,	%esi
# PATT (StrCmp) / 

	pushl	%ebx
	pushl	%esi
	pushl	%ecx
	call	Bstring_patt
	addl	$8,	%esp
	popl	%ebx
	movl	%eax,	%ecx
# CJMP ("z", "L1267") / 

	sarl	%ecx
	cmpl	$0,	%ecx
	jz	L1267
# DROP / 

# SLABEL ("L1270") / 

L1270:

# STRING ("orl") / 

	movl	$string_68,	%ebx
	pushl	%ebx
	call	Bstring
	addl	$4,	%esp
	movl	%eax,	%ebx
# SLABEL ("L1271") / 

L1271:

# JMP ("L1242") / 

	jmp	L1242
# SLABEL ("L1269") / 

L1269:

# SLABEL ("L1273") / 

L1273:

# LABEL ("L1267") / 

L1267:

# DUP / 

	movl	%ebx,	%ecx
# STRING ("^") / 

	movl	$string_44,	%esi
	pushl	%ebx
	pushl	%ecx
	pushl	%esi
	call	Bstring
	addl	$4,	%esp
	popl	%ecx
	popl	%ebx
	movl	%eax,	%esi
# PATT (StrCmp) / 

	pushl	%ebx
	pushl	%esi
	pushl	%ecx
	call	Bstring_patt
	addl	$8,	%esp
	popl	%ebx
	movl	%eax,	%ecx
# CJMP ("z", "L1272") / 

	sarl	%ecx
	cmpl	$0,	%ecx
	jz	L1272
# DROP / 

# SLABEL ("L1275") / 

L1275:

# STRING ("xorl") / 

	movl	$string_69,	%ebx
	pushl	%ebx
	call	Bstring
	addl	$4,	%esp
	movl	%eax,	%ebx
# SLABEL ("L1276") / 

L1276:

# JMP ("L1242") / 

	jmp	L1242
# SLABEL ("L1274") / 

L1274:

# SLABEL ("L1277") / 

L1277:

# LABEL ("L1272") / 

L1272:

# DUP / 

	movl	%ebx,	%ecx
# STRING ("cmp") / 

	movl	$string_25,	%esi
	pushl	%ebx
	pushl	%ecx
	pushl	%esi
	call	Bstring
	addl	$4,	%esp
	popl	%ecx
	popl	%ebx
	movl	%eax,	%esi
# PATT (StrCmp) / 

	pushl	%ebx
	pushl	%esi
	pushl	%ecx
	call	Bstring_patt
	addl	$8,	%esp
	popl	%ebx
	movl	%eax,	%ecx
# CJMP ("z", "L1245") / 

	sarl	%ecx
	cmpl	$0,	%ecx
	jz	L1245
# DROP / 

# SLABEL ("L1279") / 

L1279:

# STRING ("cmpl") / 

	movl	$string_70,	%ebx
	pushl	%ebx
	call	Bstring
	addl	$4,	%esp
	movl	%eax,	%ebx
# SLABEL ("L1280") / 

L1280:

# SLABEL ("L1278") / 

L1278:

# JMP ("L1242") / 

	jmp	L1242
# LABEL ("L1245") / 

L1245:

# FAIL ((58, 10), true) / 

	pushl	$21
	pushl	$117
	pushl	$string_16
	pushl	%ebx
	call	Bmatch_failure
	addl	$12,	%esp
# JMP ("L1242") / 

	jmp	L1242
# SLABEL ("L1244") / 

L1244:

# LABEL ("L1242") / 

L1242:

# SLABEL ("L1241") / 

L1241:

# END / 

	movl	%ebx,	%eax
LLbinopString_184_epilogue:

	movl	%ebp,	%esp
	popl	%ebp
	.cfi_restore	5

	.cfi_def_cfa	4, 4

	ret
	.cfi_endproc

	.set	LLbinopString_184_SIZE,	0

	.set	LSLbinopString_184_SIZE,	0

	.size LbinopString_184, .-LbinopString_184

